Zc:_glClearStencil
LVj:_UInt16_System_IConvertible_ToChar_m2096055221_AdjustorThunk
y7g:_MaskableGraphic_OnCanvasHierarchyChanged_m1780820310
CSi:_Array_TrueForAll_TisRuntimeObject_m1084992726_gshared
Q3c:__ZN5physx2Gu19gjkLocalPenetrationINS0_8CapsuleVENS0_17ShrunkConvexHullVEEEjRKT_RKT0_RKNS_6shdfnd3aos6FloatVERNSB_5Vec3VESG_SG_RSC_PhSI_Rhb
Wlb:__ZN18StreamedBinaryReadILb1EE21TransferSTLStyleArrayIN4core12basic_stringIcNS2_20StringStorageDefaultIcEEEEEEvRT_17TransferMetaFlags
sPl:__ZN6il2cpp2vm5Array13GetByteLengthEP11Il2CppArray
akk:_Array_InternalArray__set_Item_TisDateTime_t3738529785_m1331437427_gshared
qYk:_KeyBuilder_get_Rng_m3373220441
kka:__Z30GetIntermediateRendererManagerv
qDa:__Z21SourceMipLevelForBlitiiii
kIa:__Z23SetSpriteMeshIndexCountP14SharedMeshDataj
ZSj:_TimeSpan_get_Hours_m550761902
V4b:__ZN9ShaderLab9SubShader15FindNamedPassesERKN4core12basic_stringIcNS1_20StringStorageDefaultIcEEEER13dynamic_arrayIPNS_4PassELj0EE
p$f:__ZL63PlayableOutputHandle_t4208053793_CustomAttributesCacheGeneratorP21CustomAttributesCache
oM:__ZN11UnityEngine15CloudWebService26CloudServiceEventWithParam12ToJsonStringER9JSONWrite
Mbc:__Z59Register_UnityEngine_PlayerConnectionInternal_DisconnectAllv
FZk:_AnalyticsEventTracker_SendEvent_m1365958832
LZd:__ZNK5physx2Sc5Scene24getContactModifyCallbackEv
lt:__ZN11UnityEngine9Animation28GenericAnimationBindingCacheD2Ev
S0d:__ZN5physx2Sq10AABBPruner10addObjectsEPjPKNS_9PxBounds3EPKNS0_13PrunerPayloadEj
XOk:_X509Store_LoadCrl_m1881903843
Dmk:_Array_Sort_TisUICharInfo_t75501106_TisUICharInfo_t75501106_m722747892_gshared
BDl:_il2cpp_runtime_unhandled_exception_policy_set
ac:invoke_viiiifiiiiif
SWb:__Z18RestoreRenderStateR20CameraRenderOldStateR17ShaderPassContext
flb:__Z18Transfer_BlittableI18StreamedBinaryReadILb1EELb1E5RectTIfEEvRK29SerializationCommandArgumentsR31RuntimeSerializationCommandInfo
Ugb:__Z18Transfer_BlittableI24GenerateTypeTreeTransferLb0E11ColorRGBA32EvRK29SerializationCommandArgumentsR31RuntimeSerializationCommandInfo
Zpb:__Z25scripting_class_from_name17ScriptingImagePtrPKcS1_
ojk:_Array_InternalArray__Insert_TisSingle_t1397266774_m3161726127_gshared
jAl:__ZN14dense_hash_mapI10KeyWrapperINSt3__24pairIPK12PropertyInfoP11Il2CppClassEEEj17ReflectionMapHashIS8_ENS9_14EqualsComparerINS1_8equal_toIS8_EEEENS1_9allocatorINS2_IKS9_jEEEEE15set_deleted_keyERSH_
Rrb:__Z29scripting_class_enum_basetype17ScriptingClassPtr
igd:__ZN5physx6shdfnd8PoolBaseINS_2Sc10NPhaseCore16ClothListElementENS0_19ReflectionAllocatorIS4_EEE17releaseEmptySlabsEv
Yre:__Z20GetPhysicsModuleSpecv
owc:__ZN6IDList10BeginOnGUIEv
_Jc:__ZN16PhysicsManager2D7RaycastERK3RayfiR12RaycastHit2D
Qje:__ZN5physx2Sc14ConstraintCore10breakApartEv
k6:__ZL43__ManagedRegistrationHelperFunction_TexturePv
Drh:_InternalEnumerator_1_get_Current_m1477715453_gshared
I_a:__ZNK20LocalFileSystemPosix6ParentERK13FileEntryDataRN4core12basic_stringIcNS3_20StringStorageDefaultIcEEEE
BVf:__ZL118TouchScreenKeyboard_t731888065_CustomAttributesCacheGenerator_TouchScreenKeyboard_Open_m3609399077____textPlaceholder6P21CustomAttributesCache
zqe:__ZN5physx7Cooking20loadTriangleMeshDescERKNS_18PxTriangleMeshDescERNS_19TriangleMeshBuilderE
VGk:_Collection_1_System_Collections_IList_Remove_m1476284619_gshared
ZZh:_SHA1CryptoServiceProvider__ctor_m4195188793
cAl:__ZN15dense_hashtableINSt3__24pairIK10KeyWrapperINS1_IPK9EventInfoP11Il2CppClassEEEjEES9_17ReflectionMapHashIS8_EN14dense_hash_mapIS9_jSD_NS9_14EqualsComparerINS0_8equal_toIS8_EEEENS0_9allocatorISB_EEE9SelectKeyESI_SK_E15set_deleted_keyERKSB_
y9:__ZN9Scripting11UnityEngine9Profiling8Recorder12CleanupProxyEv
Zud:__ZNK5physx14NpShapeManager9getShapesEPPNS_7PxShapeEjj
fpb:__ZN18StreamedBinaryReadILb0EE21TransferSTLStyleArrayI13dynamic_arrayI11ColorRGBA32Lj0EEEEvRT_17TransferMetaFlags
qdf:_Dropdown_Hide_m504034854
Cqg:_NumberFormatter_NumberToString_m264078176
faa:__ZN9Scripting11UnityEngine20ManagedStreamHelpers9InitProxyEv
LRg:_Vector2_get_up_m2647420593
GBb:__ZN7ApiGLES17CopyBufferSubDataEjjlll
GYi:_Array_InternalArray__ICollection_CopyTo_TisUInt64_t4134040092_m691431926_gshared
LFh:_IPAddress_ToString_m1181734207
uOj:_StringBuilder_Append_m1965104174
pyc:__ZN5Unity9rapidjson15GenericDocumentINS0_4UTF8IcEE13JSONAllocatorS4_E11ParseStreamILj1ES3_NS0_25GenericInsituStringStreamIS3_EEEERS5_RT1_
P9i:_EqualityComparer_1__cctor_m3766928733_gshared
Yfk:_UnityAction_1_Invoke_m610765085_gshared
wH:__ZN11AudioModule26SetDefaultMicrophoneDriverEPv
aOh:_Kernel_modInverse_m652700340
dag:__ZL57CanvasRenderer_t2598313366_CustomAttributesCacheGeneratorP21CustomAttributesCache
wxc:__ZN5IMGUI18RepaintModalWindowER8GUIState
fna:__ZNK15dense_hashtableINSt3__24pairIKN9ShaderLab7Program23ShaderKeywordSetAndHashEPKNS2_10SubProgramEEES4_NS3_24ShaderKeywordHashFunctorEN14dense_hash_mapIS4_S8_SA_NS0_8equal_toIS4_EE13stl_allocatorIS9_L18MemLabelIdentifier67ELi16EEE9SelectKeyESD_SG_E23find_position_with_hashERS5_j
yoi:_CompareInfo_Finalize_m404687489
lqa:__ZN31CanvasBatchIntermediateRenderer15AddAsRenderNodeER15RenderNodeQueueRK20DeprecatedSourceData
yQj:_UTF8Decoder_GetChars_m1236346907
dTl:__ZN6il2cpp8metadata13GenericMethod9GetMethodEPK19Il2CppGenericMethod
Wr:__ZNSt3__26vectorIN4core12basic_stringIcNS1_20StringStorageDefaultIcEEEENS_9allocatorIS5_EEE7reserveEj
Nsg:_Default_SelectProperty_m1220817815
sUg:_RemotingConfiguration_IsRemotelyActivatedClientType_m4117048589
GNg:_Transform_TransformPoint_m226827784
Fxb:__ZN13GfxDeviceGLES11SetViewportERK5RectTIiE
wnd:__ZN5physx3Scb5Scene14addRigidStaticERNS0_11RigidStaticEb
re:_emscripten_glDepthRange
vJk:_SslStreamBase_BeginNegotiateHandshake_m4180435790
Rxe:__ZN9Scripting11UnityEngine10UILineInfo12CleanupProxyEv
H8c:__ZN5physx2Gu24contactConvexHeightfieldERKNS0_13GeometryUnionES3_RKNS_11PxTransformES6_RKfRNS0_5CacheERNS0_13ContactBufferE
Pkd:__ZN5physx6shdfnd5ArrayIPvNS0_19ReflectionAllocatorINS_2Cm5BlockIS2_Lj8EEEEEE15growAndPushBackERKS2_
jZb:__ZNSt3__26vectorINS_4pairIN4core12basic_stringIcNS2_20StringStorageDefaultIcEEEES6_EE13stl_allocatorIS7_L18MemLabelIdentifier38ELi16EEE12__move_rangeEPS7_SC_SC_
u1b:__Z14resize_trimmedINSt3__26vectorIN9ShaderLab20SerializedSubProgram12UAVParameterENS0_9allocatorIS4_EEEEEvRT_j
vyc:__ZN5Unity9rapidjson13GenericReaderINS0_4UTF8IcEES3_13JSONAllocatorE11ParseObjectILj1ENS0_25GenericInsituStringStreamIS3_EENS0_15GenericDocumentIS3_S4_S4_EEEEvRT0_RT1_
Inc:__Z10DestripifyPKjjRNSt3__26vectorIj13stl_allocatorIjL18MemLabelIdentifier1ELi16EEEE
Q7e:_StandaloneInputModule_GetRawMoveVector_m2737091079
Nhg:__ZL62Selectable_t3250028441_CustomAttributesCacheGenerator_m_ColorsP21CustomAttributesCache
eFi:_Convert_ToDateTime_m2616935982
Szb:__ZThn10632_N13GfxDeviceGLES22SetScissorRectPlatformERK5RectTIiE
dKk:_SslStreamBase_EndWrite_m4073224031
eY:__ZNSt3__218__insertion_sort_3IRNS_6__lessI14ObjectLoadDataS2_EEPS2_EEvT0_S6_T_
G6:__ZL50__ManagedRegistrationHelperFunction_PostLateUpdatePv
TCa:__ZN4crndL20crnd_default_reallocEPvjPjbS0_
W8d:__ZN5physx24PxsComputeAABBLocalSpaceERKNS_18PxcAABBDataDynamicERNS_9PxBounds3E
sJa:__ZN18SpriteAtlasManager19AddRequestingSpriteE4PPtrI6SpriteE
WXe:__ZNSt3__26__treeINS_12__value_typeIN4core12basic_stringIcNS2_20StringStorageDefaultIcEEEE14CallbackArray3IRKS6_R8JSONReadbEEENS_19__map_value_compareIS6_SD_NS_4lessIS6_EELb1EEE13stl_allocatorISD_L18MemLabelIdentifier6ELi16EEE25__emplace_unique_key_argsIS6_JNS_4pairIS6_SC_EEEEENSN_INS_15__tree_iteratorISD_PNS_11__tree_nodeISD_PvEEiEEbEERKT_DpOT0_
amg:_UnmanagedMemoryStream_Write_m930787521
XVb:__ZN23ScriptableRenderContextC2Ev
egf:_GridLayoutGroup_get_spacing_m2409263614
Pjj:_List_1_CheckIndex_m581273900_gshared
nKe:_UNITY_FT_Stream_GetChar
Glb:__Z18Transfer_BlittableI18StreamedBinaryReadILb1EELb1EdEvRK29SerializationCommandArgumentsR31RuntimeSerializationCommandInfo
Mqg:_NumberFormatter_NumberToString_m655666043
u1d:__ZN5physx6shdfnd8internal8HashBaseINS0_4PairIKNS_2Sq13PrunerPayloadEjEES5_NS0_4HashIS5_EENS1_11HashMapBaseIS5_jS9_NS0_9AllocatorEE6GetKeyESB_Lb1EE5eraseERS6_
Yrb:__Z26BuildSerializationCacheFor17ScriptingClassPtrRb
CDb:__ZN7ApiGLES15BlitFramebufferEN2gl6HandleILNS0_10ObjectTypeE9EEENS0_15FramebufferReadES3_S3_iiiiiiiiNS0_15FramebufferTypeE
mle:__ZN5physx13GuMeshFactory16createConvexMeshERNS_13PxInputStreamE
hue:__ZN5physx6shdfnd8internal8HashBaseINS0_4PairIKPKcjEES5_NS0_4HashIS5_EENS1_11HashMapBaseIS5_jS9_NS_7profile26WrapperReflectionAllocatorIjEEE6GetKeyESD_Lb1EE6createERS6_Rb
Nwj:__Z112RuntimeInvoker_RuntimeObject_RuntimeObject_RuntimeObject_RuntimeObject_RuntimeObject_RuntimeObject_RuntimeObjectPFvvEPK10MethodInfoPvPS4_
Sqh:_InternalEnumerator_1_System_Collections_IEnumerator_get_Current_m3553395619_AdjustorThunk
J_f:__ZL60ReadOnlyAttribute_t3518714744_CustomAttributesCacheGeneratorP21CustomAttributesCache
wdi:_Array_SetValue_m3998268557
QEc:__ZN8JSONRead8TransferI8Vector4fEEvRT_PKc17TransferMetaFlagsb
zaf:_ColorBlock_set_highlightedColor_m2089444414_AdjustorThunk
mNg:_RectTransform_INTERNAL_set_anchoredPosition_m939517950
_Vh:_Context_EndSwitchingSecurityParameters_m4148956166
yFe:_otv_PairPos_validate
qsl:__ZN6il2cpp6icalls8mscorlib6SystemL8IsStaticEPK12PropertyInfo
btb:__Z9InitInputv
Sia:__ZN17TransformInternal36OnScaleChangedCalculateTransformTypeE15TransformAccess
kle:__ZNK5physx13GuMeshFactory15getConvexMeshesEPPNS_12PxConvexMeshEjj
Hvl:__ZN6il2cpp2gc19AppendOnlyGCHashMapINSt3__24pairIPK10MethodInfoP11Il2CppClassEEP22Il2CppReflectionMethod17ReflectionMapHashIS9_ENS2_8equal_toIS9_EEE3AddERKS9_SB_
H2a:__ZN16MemoryFileSystem6DeleteER13FileEntryDatab
wrj:__Z81RuntimeInvoker_Void_t1185182177_RuntimeObject_Int64_t3736567304_Int32_t2950945753PFvvEPK10MethodInfoPvPS4_
prk:_List_1_set_Item_m1979164443_gshared
TWi:_Array_InternalArray__ICollection_Add_TisLink_t3209266973_m77922316_gshared
$za:__ZL21BlitScaleStbImageImplRK14ImageReferenceRS_NS_10ColorSpaceE
Rzd:__ZN5physx10NpMaterial17setStaticFrictionEf
Lfi:_Boolean_System_IConvertible_ToUInt16_m3465173538_AdjustorThunk
NUd:__ZNK5physx7NpScene18getStaticStructureEv
St:__ZL48__ManagedRegistrationHelperFunction_SkeletonBonePv
jUd:__ZNK5physx7NpScene19getFilterShaderDataEv
q2g:_InputField_get_keyboardType_m1248105267
Kcb:__Z29Transfer_Blittable_ArrayFieldI14SafeBinaryReadyEvRT_R9ArrayInfoRK23StaticTransferFieldInfo
wPk:_Match__ctor_m2425511580
z2i:_KeyPairPersistence_Remove_m1876145547
Uud:__ZN5physx2Sc19ShapeInstancePairLL26onPoseChangedWhileSleepingEv
b3d:__ZN5physx22PxcSweepCapsuleCapsuleERKNS_11PxsCCDShapeES2_PKNS_12PxsRigidBodyES5_RKNS_11PxTransformES8_S8_S8_fRNS_6PxVec3ESA_RNS_10PxcNpCacheERNS_18PxcNpThreadContextEf
Mc:invoke_vifffii
Zcd:__ZNK5physx3Cct17CapsuleController21getHalfHeightInternalEv
$0a:__ZNK25MultiBlocksMemoryFileData5CloneEv
PYl:_GC_add_ext_descriptor
Ytl:__ZNK15dense_hashtableINSt3__24pairIK10KeyWrapperINS1_IPK14Il2CppAssemblyP11Il2CppClassEEEjEES9_17ReflectionMapHashIS8_EN14dense_hash_mapIS9_jSD_NS9_14EqualsComparerINS0_8equal_toIS8_EEEENS0_9allocatorISB_EEE9SelectKeyESI_SK_E23find_position_with_hashERSA_j
Aok:_LayoutGroup_SetProperty_TisSingle_t1397266774_m793506911_gshared
XZg:_CryptoConfig_CreateFromName_m1538277313
tid:__ZL30GeomOverlapCallback_CapsuleBoxRKN5physx10PxGeometryERKNS_11PxTransformES2_S5_PNS_2Gu12TriggerCacheE
g7l:dynCall_iiiiiiiiiiii
zre:__Z38Rigidbody_CUSTOM_INTERNAL_get_velocityP12Il2CppObjectP8Vector3f
xq:__ZN9Scripting11UnityEngine2AI18NavMeshBuildSource9InitProxyEv
B2g:_InputField_set_caretPositionInternal_m3823580651
LVe:__ZN18UnityConnectClient16IsServiceEnabledEv
lca:__ZN9Scripting11UnityEngine10ColorGamut9InitProxyEv
f3a:__ZN22VertexDeclarationCacheD0Ev
vch:_Selectable_set_interactable_m3105888815
Aqa:__ZL26KeywordSetToStringDontSortRKNSt3__26vectorIN4core12basic_stringIcNS1_20StringStorageDefaultIcEEEENS_9allocatorIS5_EEEERS5_
$2:__ZN6prcoreL17RemapGenericFloatI16TexFormatRGFloat17TexFormatRGBAHalfEEvPKNS_9InnerInfoE
GE:__ZN12AudioManager22CreateFMODSoundFromWWWEP10IWWWStream15FMOD_SOUND_TYPE17FMOD_SOUND_FORMATjjbbP10SampleClip
nkc:__ZNK32RendererMaterialAnimationBinding15GenerateBindingERKN4core12basic_stringIcNS0_20StringStorageDefaultIcEEEEbRN11UnityEngine9Animation14GenericBindingE
Xnf:_TargetException__ctor_m4172127019
Ouk:_List_1_CheckCollection_m274117203_gshared
ocg:__ZL70EventSystem_t1003666588_CustomAttributesCacheGenerator_m_FirstSelectedP21CustomAttributesCache
rW:__ZN8Remapper23GetOrGenerateInstanceIDERK26SerializedObjectIdentifier
lbf:_ColorTween_get_startColor_m3792586410_AdjustorThunk
s7a:__ZN11TextureData17GetImageReferenceEii
Wqg:_CustomInfo__ctor_m426096741
l4e:_EventSystem_ToString_m3779610692
EXh:_RecordProtocol_BeginReceiveRecord_m295321170
CIa:__ZN6Sprite8TransferI24GenerateTypeTreeTransferEEvRT_
pdc:__Z48Register_UnityEngine_Transform_SetAsFirstSiblingv
_lh:_InternalEnumerator_1_System_Collections_IEnumerator_get_Current_m694606607_gshared
HIa:__ZN7SubMesh8TransferI24GenerateTypeTreeTransferEEvRT_
jsd:__ZNK5physx19NpArticulationJoint28getTwistLimitContactDistanceEv
Jgk:_UnityEvent_1_FindMethod_Impl_m2511430237_gshared
mgl:_NativeTypeAttribute__ctor_m133676646
J7c:__ZN5physx3Cct10Controller6setPosERKNS_14PxExtendedVec3E
Z_j:_Collection_1_System_Collections_IList_Contains_m296643274_gshared
m9c:__ZN5physx2GuL14testFaceNormalERKNS0_13PolygonalDataES3_PNS0_12SupportLocalES5_RKNS_6shdfnd3aos15PsMatTransformVESA_RKNS7_6FloatVERSB_RjRNS7_5Vec3VENS0_13FeatureStatusERSI_
Zwi:_DirectoryInfo__ctor_m126519516
nkf:_MethodBase_GetMethodFromIntPtr_m3014201362
Uoh:_InternalEnumerator_1_get_Current_m2315302778_AdjustorThunk
Wcc:__ZN9Transform23SetSiblingIndexInternalEib
wBc:__ZN9JSONWrite8TransferI13dynamic_arrayIaLj0EEEEvRT_PKc17TransferMetaFlags
zid:__ZL32GeomOverlapCallback_ConvexConvexRKN5physx10PxGeometryERKNS_11PxTransformES2_S5_PNS_2Gu12TriggerCacheE
DCi:_Enumerator_MoveNext_m635366482
qai:_X509Extension_Equals_m1222951829
NMl:__ZN6il2cpp8metadata15GenericMetadata15GetGenericClassEiPK17Il2CppGenericInst
jbb:__Z18Transfer_BlittableI14SafeBinaryReadLb0E10Matrix4x4fEvRK29SerializationCommandArgumentsR31RuntimeSerializationCommandInfo
nrb:__Z24GetFixedBehaviourManagerv
mrl:__ZN6il2cpp2vm10ThreadPool4WaitEP17Il2CppAsyncResultPPv
L9h:_PKCS12_Encrypt_m2617413749
HOk:_X509Crl_VerifySignature_m1377612461
Ebi:_Activator_CreateInstance_m94526014
s2l:_vfprintf
Yxc:__ZN10GUIManager12AddGUIScriptER8ListNodeI13MonoBehaviourE
V7:__ZL53__ManagedRegistrationHelperFunction_StackTraceUtilityPv
TCi:_Stack_Clear_m2010200235
iCe:_cf2_getVStore
b6e:_PointerEventData_set_pointerPressRaycast_m1363193059
VLb:__ZN20DynamicPropertySheetD0Ev
wqf:_SafeHandle_Dispose_m4229010569
nZb:__ZN14SafeBinaryRead17RegisterConverterEPKcS1_PFbPvRS_E
gUf:__ZL77RuntimePlatform_t4159857903_CustomAttributesCacheGenerator_OSXDashboardPlayerP21CustomAttributesCache
KO:__ZN35RegisterRuntimeInitializeAndCleanup8RegisterEPFvPvES2_iS0_
Ovg:_FieldBuilder_SetValue_m828035213
Ubk:__ZN28GenericInterfaceFuncInvoker0IfE6InvokeEPK10MethodInfoP12Il2CppObject
f3d:__ZN5physx25PxcSweepConvexHeightfieldERKNS_11PxsCCDShapeES2_PKNS_12PxsRigidBodyES5_RKNS_11PxTransformES8_S8_S8_fRNS_6PxVec3ESA_RNS_10PxcNpCacheERNS_18PxcNpThreadContextEf
wtc:__Z21Object_CUSTOM_DestroyP12Il2CppObjectf
EIb:__ZN8Material26ResetAllCachedMaterialDataEP6Shader
pvj:__Z63RuntimeInvoker_Void_t1185182177_RuntimeObject_Int16_t2552820387PFvvEPK10MethodInfoPvPS4_
zKe:_UNITY_TT_Get_MM_Var
sXg:_ObjectManager_AddFixup_m2154325362
$sh:_Comparer_1__cctor_m3761458313_gshared
ZKi:_DateTimeOffset_CompareTo_m1350732322_AdjustorThunk
ba:invoke_diddi
WOe:__ZNK2UI6Canvas13GetRenderModeEv
jDg:_PersistentCall__ctor_m1217622171
GUi:_Array_compare_TisCustomAttributeTypedArgument_t2723150157_m1384644047_gshared
j4i:_StrongName_get_TokenAlgorithm_m1794722022
uab:__Z18Transfer_BlittableI14SafeBinaryReadLb0EiEvRK29SerializationCommandArgumentsR31RuntimeSerializationCommandInfo
_ol:__ZN6il2cpp2vm13MetadataCache30GetPropertyDefinitionFromIndexEi
hok:_BaseInvokableCall_ThrowOnInvalidArg_TisRuntimeObject_m2266633109_gshared
SMd:__ZN5physx14NpRigidDynamic7releaseEv
OYe:__ZN22BaseUnityConnectClient17InitializeSessionERKN4core12basic_stringIcNS0_20StringStorageDefaultIcEEEES6_N19CloudServiceHandler13InitModeFlagsE
KBf:__ZL56KeyCollection_t4251528776_CustomAttributesCacheGeneratorP21CustomAttributesCache
yBj:__Z74RuntimeInvoker_RuntimeObject_Int32_t2950945753_RuntimeObject_RuntimeObjectPFvvEPK10MethodInfoPvPS4_
u$d:__ZN5physx6shdfnd8PoolBaseINS_21PxsBodyTransformVault13PxsBody2WorldENS0_19ReflectionAllocatorIS3_EEE15disposeElementsEv
CAk:_List_1_get_Item_m200663048_gshared
Fdm:_emscripten_glDeleteBuffers__wrapper
Bqc:__ZN13MonoBehaviour34StopCoroutineFromEnumeratorManagedE18ScriptingObjectPtr
$t:__ZN9Scripting11UnityEngine9HumanBone12CleanupProxyEv
j6c:__ZN5physx2Gu30computeCapsule_TriangleMeshMTDERKNS_22PxTriangleMeshGeometryERKNS_11PxTransformERNS0_8CapsuleVEffbRNS_10PxSweepHitE
rGc:__ZN11UnityEngine9Analytics18SceneLoadTimeEvent12SetSceneLoadERKN4core12basic_stringIcNS2_20StringStorageDefaultIcEEEEiyyyy
OSa:__ZN30RuntimeInitializeOnLoadManager8TransferI18StreamedBinaryReadILb0EEEEvRT_
NEi:_DateTimeOffset__ctor_m2084804982
VGe:_UNITY_tt_face_load_pclt
v9b:__ZL34GetComponentsImplementationRecurseILb1ELi0ELi2EEbR10GameObjectbRK17CompareParametersRK39GetComponentsImplementation_ReturnValue
_jk:_Array_InternalArray__set_Item_TisSlot_t3975888750_m3701794315_gshared
xTc:__ZN10ClipperLib7Clipper24InsertLocalMinimaIntoAELEx
Ydi:_Array_Sort_m3698291233
fGg:_Material_GetTexture_m3545614349
HSd:__ZThn8_N5physx2Sc19ShapeInstancePairLL10onActivateEj
gmj:__Z64RuntimeInvoker_RuntimeObject_Int32_t2950945753_Int16_t2552820387PFvvEPK10MethodInfoPvPS4_
Gaj:_EqualityComparer_1__cctor_m4244842342_gshared
oLb:__ZNK6Camera18WorldToScreenPointERK8Vector3fPb
m9d:__ZN5physx2Cm12DelegateTaskINS_10PxsContextEXadL_ZNS2_28mergeCMDiscreteUpdateResultsEPNS_10PxBaseTaskEEEE11runInternalEv
AOg:_SendMouseEvents_DoSendMouseEvents_m2140870850
zTe:__ZN14UnityAnalyticsD0Ev
Wpe:__ZN5physx19TriangleMeshBuilder10importMeshERKNS_18PxTriangleMeshDescERKNS_15PxCookingParamsEb
wQk:_PatternCompiler_EmitJump_m3915926156
bxb:__Z18IsCompressedFormat14GraphicsFormat
amf:_MonoMethod_GetBaseDefinition_m2844667474
mTj:__Z33il2cpp_codegen_check_add_overflowxx
vU:__ZNSt3__227__insertion_sort_incompleteIRPFbRKN18AwakeFromLoadQueue4ItemES4_EPS2_EEbT0_S9_T_
oUf:__ZL73RuntimePlatform_t4159857903_CustomAttributesCacheGenerator_MetroPlayerARMP21CustomAttributesCache
qwi:_InvalidOperationException__ctor_m1685032583
_ml:__ZN14dense_hash_mapI10KeyWrapperIN6il2cpp5utils13dynamic_arrayIPK10Il2CppTypeLj4EEEEPFvvENS1_8metadata19Il2CppSignatureHashENS8_14EqualsComparerINSB_22Il2CppSignatureCompareEEENSt3__29allocatorINSG_4pairIKS8_SA_EEEEE15set_deleted_keyERSJ_
UTj:_TimeSpan_op_Subtraction_m3592306516
RHl:__ZN6il2cpp2vm9Exception25RaiseOutOfMemoryExceptionERKNS_5utils10StringViewIDsEEP19Il2CppSequencePoint
Ecj:_EqualityComparer_1_System_Collections_IEqualityComparer_GetHashCode_m1517903420_gshared
TFd:__ZN5physx6shdfnd5ArrayINS_18PxClothFabricPhaseENS0_19ReflectionAllocatorIS2_EEE8recreateEj
jHa:__ZN26EnlightenSystemInformation8TransferI14SafeBinaryReadEEvRT_
j8f:__ZL67ContactFilter2D_t3805203441_CustomAttributesCacheGenerator_maxDepthP21CustomAttributesCache
CTa:__ZN24GenerateTypeTreeTransfer8TransferINSt3__26vectorIN15ResourceManager10DependencyE13stl_allocatorIS4_L18MemLabelIdentifier52ELi16EEEEEEvRT_PKc17TransferMetaFlags
Mbl:_CanvasRenderer_SplitUIVertexStreams_m2753637362
XDj:__Z119RuntimeInvoker_Void_t1185182177_RuntimeObject_Single_t1397266774_Single_t1397266774_SByte_t1669577662_Int32_t2950945753PFvvEPK10MethodInfoPvPS4_
Kla:__ZN27PerObjectLightCullingOutputD2Ev
uVd:__ZN5physx2Sq17SceneQueryManager11shiftOriginERKNS_6PxVec3E
fPa:__ZN12MeshRendererD0Ev
PF:__ZN12AudioManager35GetCurrentSpatializerDefinitionNameEv
$3c:__ZN5physx2Gu16sweepBoxTriangleERKNS_10PxTriangleERKNS_9PxBounds3ERKNS_6PxVec3ES9_RS7_SA_Rf
i8:__ZN9Scripting11UnityEngine14WaitForSeconds9InitProxyEv
ci:_utime
Gqe:__ZN5physx10writeChunkEaaaaRNS_14PxOutputStreamE
PSk:_BalancingGroup_Compile_m2575117193
rrl:__ZN6il2cpp6icalls8mscorlib6System8MonoType18IsGenericParameterEPK10Il2CppType
tBl:__ZNSt3__26vectorIN6il2cpp2vm17TypeNameParseInfoENS_9allocatorIS3_EEE8allocateEj
eu:__ZN9Scripting11UnityEngine22AnimatorTransitionInfo9InitProxyEv
rPk:_Mark_get_Index_m3048692661_AdjustorThunk
Dn:FUNCTION_TABLE_viiiiif
Bsh:_DefaultComparer_Compare_m3931992727_gshared
ko:FUNCTION_TABLE_viiiiii
urh:_InternalEnumerator_1_System_Collections_IEnumerator_get_Current_m1847780851_AdjustorThunk
oXk:_GUILayoutUtility_get_spaceStyle_m3392862907
w2h:_SecurityException_ToString_m3228070608
OEi:_DateTimeOffset__ctor_m74032857
mog:_MonoType_IsPrimitiveImpl_m2401722705
Lwd:__ZN5physx2Sc9RigidCore13onShapeChangeERNS0_9ShapeCoreENS_7PxFlagsINS0_21ShapeChangeNotifyFlag4EnumEjEENS4_INS_11PxShapeFlag4EnumEhEE
Fai:_SmallXmlParser_Error_m3899025466
OUj:_Type_type_is_assignable_from_m76737532
Xuc:__ZN9Scripting11UnityEngine14GUILayoutGroup12CleanupProxyEv
qKd:__ZN5physx6shdfnd5ArrayIPvNS0_15InlineAllocatorILj256ENS0_19ReflectionAllocatorINS_2Sc19ParticlePacketShapeEEEEEE15growAndPushBackERKS2_
L5d:__ZN5physx17solveContactBlockEPKNS_23PxcSolverConstraintDescEjRNS_16PxcSolverContextE
Pqe:__ZN5physx6shdfnd10FoundationD2Ev
GSa:__ZNSt3__26vectorIN4core12basic_stringIcNS1_20StringStorageDefaultIcEEEE13stl_allocatorIS5_L18MemLabelIdentifier13ELi16EEE8__appendEj
mjd:__ZN5physx9NpFactory21releaseConnectorArrayEPNS_16NpConnectorArrayE
nN:__ZN19CloudServiceHandler20StartEventDispatcherERKN11UnityEngine15CloudWebService18CloudServiceConfigERNS1_23WebRequestRestHeaderMapE
qGc:__ZN27PerformanceReportingManager21OnSceneTimingCallbackERK15SceneLoadTimingRKN4core12basic_stringIcNS3_20StringStorageDefaultIcEEEE
ycc:__Z43Transform_CUSTOM_INTERNAL_get_localRotationP12Il2CppObjectP11Quaternionf
S$d:__ZN5physx2Sc10NPhaseCoreD2Ev
xkd:__ZN5physx2Sc7BodySim18onConstraintDetachEv
kZl:__ZN6il2cpp6icalls8mscorlib6System10Reflection4Emit13ModuleBuilder13RegisterTokenEP29Il2CppReflectionModuleBuilderP12Il2CppObjecti
yIh:_X509Certificate2_GetValueAsString_m1348462142
Gtl:__ZN6il2cpp2os4File9SetLengthEPNS0_10FileHandleExPi
Kbm:_glGetShaderInfoLog__wrapper
E0f:__ZL63SpriteBone_t303320096_CustomAttributesCacheGenerator_m_ParentIdP21CustomAttributesCache
Hi:_emscripten_glGetTexParameteriv
g6:__ZL49__ManagedRegistrationHelperFunction_ComputeBufferPv
pUd:__ZN5physx7NpScene8simulateEfPNS_10PxBaseTaskEPvjb
gdm:_glGenTextures__wrapper
Q$c:__ZN5physx2Gu13GeometryUnion3setERKNS_10PxGeometryE
R1b:__ZN9ShaderLab20SerializedSubProgram14ConstantBufferaSERKS1_
N3f:__ZL74SharedBetweenAnimatorsAttribute_t2857104338_CustomAttributesCacheGeneratorP21CustomAttributesCache
$g:emscriptenWebGLGetBufferBinding
Fz:__ZN12AudioManager8TransferI19StreamedBinaryWriteILb0EEEEvRT_
tbl:_CanvasGroup_IsRaycastLocationValid_m2128397950
Ych:_Slider_UpdateCachedReferences_m3259451627
MFl:__ZN15dense_hashtableINSt3__24pairIK10KeyWrapperINS1_IP11Il2CppClassjEEES4_EES6_N6il2cpp8metadata14ArrayClassHashEN14dense_hash_mapIS6_S4_SB_NS6_14EqualsComparerINSA_17ArrayClassCompareEEENS0_9allocatorIS8_EEE9SelectKeyESF_SH_E6insertERKS8_
Ndf:_U3CShowU3Ec__AnonStorey1_U3CU3Em__0_m2340880019
RYe:__ZN22BaseUnityConnectClient38PrepareConfigRequestOnMainThreadStaticEPS_
ztd:__ZN5physx18NpArticulationLink10clearForceENS_11PxForceMode4EnumE
c6c:__ZN5physx2Gu30distanceSegmentTriangleSquaredERKNS_6PxVec3ES3_S3_S3_S3_PfS4_S4_
g5l:__ZNSt3__212basic_stringIcNS_11char_traitsIcEENS_9allocatorIcEEE21__grow_by_and_replaceEjjjjjjPKc
ALk:_TlsStream_Flush_m3793197834
uZa:__ZN22LocalFileSystemHandler9MakeLocalER13FileEntryDatab
GUl:__ZN6il2cpp2vm8Profiler10AllocationEP12Il2CppObjectP11Il2CppClass
nUk:_Uri_IsHexEncoding_m3290929897
Gfg:__ZL61Graphic_t1660335611_CustomAttributesCacheGenerator_m_MaterialP21CustomAttributesCache
q2:__Z13FormatOrderedPKcz
Nsl:__ZN6il2cpp2vm8basepathEPKc
wph:_InternalEnumerator_1_get_Current_m1506120701_AdjustorThunk
iJh:_X509Chain_GetAuthorityKeyIdentifier_m614536199
mye:__ZN14SafeBinaryRead21TransferSTLStyleArrayI10vector_mapINSt3__24pairIttEEfN20TextRenderingPrivate8FontImpl14KerningCompareENS2_9allocatorINS3_IS4_fEEEEEEEvRT_17TransferMetaFlags
NUh:_TlsServerFinished__ctor_m1445633918
Oqg:_NumberFormatter_FastIntegerToString_m390846811
C6g:__ZN21InterfaceFuncInvoker0IfE6InvokeEjP11Il2CppClassP12Il2CppObject
yOa:__ZN14CompressedMesh10GetQualityE15MeshCompression
MSb:__ZN25DeferredRenderLoopScratchD0Ev
gzj:__Z83RuntimeInvoker_Void_t1185182177_RuntimeObject_Single_t1397266774_Single_t1397266774PFvvEPK10MethodInfoPvPS4_
cva:__ZNK13RenderTexture21GetShadowSamplingModeEv
G5e:_PhysicsRaycaster_Raycast_m776323695
hRg:_UnityException__ctor_m1456865679
i0:__ZN14PlayableOutput26ClearInvalidSourcePlayableEv
a1b:__ZN15dense_hashtableINSt3__24pairIKiN4core17string_with_labelILi1EEEEEi18SInt32HashFunctionN14dense_hash_mapIiS5_S7_NS0_8equal_toIiEE13stl_allocatorIS6_L18MemLabelIdentifier1ELi16EEE9SelectKeyESA_SD_E9copy_fromERKSG_j
ktg:_CustomAttributeNamedArgument_GetHashCode_m2317130892
ZSa:__ZN15ResourceManagerD0Ev
sna:__ZN22CreateGpuProgramOutputD2Ev
Zdd:__ZNK5physx3Cct15ObstacleContext14getNbObstaclesEv
Hne:__ZN5physx6shdfnd8PoolBaseINS_11NpAggregateENS0_19ReflectionAllocatorIS2_EEE12allocateSlabEv
$Zh:_SHA1CryptoServiceProvider_Finalize_m1793183797
TDi:_Convert_ToByte_m4146281512
lej:_HashSet_1_System_Collections_Generic_ICollectionU3CTU3E_CopyTo_m408073502_gshared
kLd:__ZN5physx7NpScene26removeFromParticleBaseListERNS_14PxParticleBaseE
BGd:__ZN5physx2Sc9ClothCore23setSelfCollisionIndicesEPKjj
JZa:__ZN12HandlerChain4OpenER13FileEntryData14FilePermission16FileAutoBehavior
GXi:_Array_InternalArray__ICollection_Add_TisPlayerLoopSystem_t105772105_m1930641144_gshared
WJj:__Z72RuntimeInvoker_Void_t1185182177_Int32_t2950945753_RaycastHit_t1056001966PFvvEPK10MethodInfoPvPS4_
Lvl:__ZN15dense_hashtableINSt3__24pairIK10KeyWrapperINS1_IPK10MethodInfoP11Il2CppClassEEEjEES9_17ReflectionMapHashIS8_EN14dense_hash_mapIS9_jSD_NS9_14EqualsComparerINS0_8equal_toIS8_EEEENS0_9allocatorISB_EEE9SelectKeyESI_SK_E6insertERKSB_
vy:__ZL55__ManagedRegistrationHelperFunction_AudioPlayableOutputPv
CGc:__ZN27PerformanceReportingManager29OnSceneLoadedAfterAwakeStaticEPS_iR18AwakeFromLoadQueueN19RuntimeSceneManager11LoadingModeE
udi:_Array_SetValue_m394135409
zX:__ZN14FileCacherReadD2Ev
TVa:__ZN13RendererScene23UpdatePreviousFrameDataEii
fIg:_MonoBehaviour_StopCoroutine_m615723318
d9b:__Z50Register_UnityEngine_CullingGroup_FinalizerFailurev
P0h:_SecurityPermission_IsSubsetOf_m545000671
T5b:__ZN12ShaderErrors11ShaderErrorC2EOS0_
_4l:__ZNKSt3__221__basic_string_commonILb1EE20__throw_out_of_rangeEv
K2d:__ZN5physx10PxsCCDPair12updateShapesEv
rql:_UpdatedEventHandler_Invoke_m1320302085
F5h:_String_Format_m630303134
tE:__ZN9AudioClip23VirtualRedirectTransferER18StreamedBinaryReadILb0EE
bAk:_List_1_AddEnumerable_m2724989594_gshared
$Gd:__ZN5physx2Sc9ClothCore22removeCollisionCapsuleEj
KCj:__Z82RuntimeInvoker_Vector2_t2156229523_Vector2_t2156229523_RuntimeObject_RuntimeObjectPFvvEPK10MethodInfoPvPS4_
$rc:__Z70Register_UnityEngine_Playables_PlayableHandle_GetPlayableType_Injectedv
Fld:__ZN5physx16PxsIslandManager25setArticulationLinkHandleEjPvRKNS_20PxsIslandManagerHookIjLj4294967295EEE
gk:_glCopyTexSubImage2D
Mgm:_glActiveTexture__wrapper
mRg:_UnitySynchronizationContext_ExecuteTasks_m1310741010
KIk:_RIPEMD160Managed_CompressFinal_m497690796
Isb:__ZN18ScreenManagerWebGL13SetShowCursorEb
GGb:__ZN13DrawImmediateC2ER9GfxDevice
Spa:__ZN18VertexChannelsInfoC2ERA12_K11ChannelInfo
FPe:__ZN2UI13CanvasManager14GetRenderOrderEPKNS_6CanvasE
uvd:__ZN5physx6shdfnd5ArrayIPNS_3Scb5ShapeENS0_15InlineAllocatorILj16ENS0_19ReflectionAllocatorIS4_EEEEE15growAndPushBackERKS4_
fbb:__Z18Transfer_BlittableI14SafeBinaryReadLb0E5RectTIfEEvRK29SerializationCommandArgumentsR31RuntimeSerializationCommandInfo
Sqg:_NumberFormatter_NumberToString_m2562899600
GFe:_otv_u_C_x_Ox
GZc:__ZL44__ManagedRegistrationHelperFunction_ColliderPv
Wdm:_emscripten_glGenVertexArrays__wrapper
fZj:_Version_Clone_m1749041863
BAa:__ZN6prcoreL21CreateRemapAnyBlitterE13TextureFormatS0_
ARh:_RSAManaged_ExportParameters_m1754454264
$oc:__ZN17AnimationCurveTplIfE16StripInvalidKeysEv
Xfi:_Boolean_Equals_m535526264_AdjustorThunk
PPe:__ZNK2UI6Canvas17GetSortingLayerIDEv
Xpc:__ZL12HashLen0to16PKcj
eNc:__ZN14Raycast2DQuery8RunQueryEb
EGa:__ZN8Renderer24SetupNewRendererForSceneEv
IUj:_Type_internal_from_name_m1721940673
KDl:_il2cpp_type_get_class_or_element_class
WUg:_RemotingServices_GetMethodBaseFromName_m3194612939
_Cc:__Z35Transfer_Blittable_FixedBufferFieldI8JSONReadtEvRK29SerializationCommandArgumentsR31RuntimeSerializationCommandInfo
gee:__ZN5physx2Sc8ClothSim16addCollisionMeshEPKNS0_8ShapeSimE
QHa:__ZNK6Sprite22GetTypeVirtualInternalEv
xba:__ZN9Scripting11UnityEngine12Experimental9Playables22MaterialEffectPlayable9InitProxyEv
eo:FUNCTION_TABLE_iiiiiiiiiiiiii
igl:_NativePropertyAttribute__ctor_m2033094153
ije:__ZN5physx6shdfnd5ArrayIPKNS_10PxsCCDBodyENS0_19ReflectionAllocatorIS4_EEE8recreateEj
ovd:__ZN5physx6shdfnd4sortINS_2Cm19PreallocatingRegionENS0_4LessIS3_EENS0_19ReflectionAllocatorIS3_EEEEvPT_jRKT0_RKT1_j
xGe:_UNITY_tt_get_cmap_info
WYh:_SslClientStream_RaiseServerCertificateValidation_m3477149273
Vhb:__Z29Transfer_Blittable_ArrayFieldI24GenerateTypeTreeTransfer5RectTIiEEvRT_R9ArrayInfoRK23StaticTransferFieldInfo
psa:__ZN16ReflectionProbes8ScheduleEN18ReflectionProbeJob7JobTypeEP15ReflectionProbei
RUh:_ClientSessionInfo_KeepAlive_m1020179566
HY:__ZN16MessageForwarder13HandleMessageEPviR11MessageData
i$a:__Z18IsDirectoryCreatedRKN4core12basic_stringIcNS_20StringStorageDefaultIcEEEE
B0h:_String_FormatHelper_m3913915042
ZRc:__ZN18PlatformEffector2D19RecalculateContactsEv
bOe:__ZN2UI13CanvasManagerD2Ev
Rsg:_ConstructorInfo__cctor_m1016079270
Mjl:__ZN15dense_hashtableINSt3__24pairIK10KeyWrapperIPKcEP11Il2CppClassEES5_N6il2cpp5utils11StringUtils12StringHasherIS4_EEN14dense_hash_mapIS5_S8_SE_NS5_14EqualsComparerINSB_13VmStringUtils21CaseSensitiveComparerEEENS0_9allocatorIS9_EEE9SelectKeyESJ_SL_E15set_deleted_keyERKS9_
rbi:_AttrListImpl_get_Names_m977594476
itg:_CustomAttributeData_GetHashCode_m3727773664
EAe:_UNITY_FT_GlyphLoader_Done
T1:__ZNSt3__23mapIiN11TypeManager18TypeCallbackStructENS_4lessIiEENS_9allocatorINS_4pairIKiS2_EEEEEixERS7_
E9a:__ZNK17InstancingBatcher15RenderInstancesERK19ShaderPropertySheetRKNS_22RenderInstancesConfigsERK11MeshBuffersRK16DrawBuffersRange16VertexInputMasks
RNi:_StackTrace_get_FrameCount_m344690939
nX:__ZN13dynamic_arrayIcLj0EE6insertEPcPKcS3_
Gyi:_FileStream_BeginRead_m2419864669
Nlg:_UnexceptionalStreamWriter_Write_m363195622
s6d:__ZN5physx18ComputeSortedListsEPNS_2Cm10BitMapBaseINS_6shdfnd9AllocatorEEEjjPKjPPNS_8SapBox1DES7_PjSB_jRKNS_2Gu4AxesESB_RjSB_SG_RbSH_
D4e:_EventTrigger_OnInitializePotentialDrag_m2172162368
xHe:_tt_cmap14_char_var_index
kal:_Physics2D_Raycast_m1700114981
o3g:_Selectable_OnPointerDown_m1086067264
CLe:_psh_globals_new
fdf:_Dropdown_SetupTemplate_m628218778
EQj:_Thread_GetCompressedStack_m2923422412
UGg:_Matrix4x4_MultiplyPoint3x4_m4145063176
xHh:_X509BasicConstraintsExtension_ToString_m1809935297
o3a:__ZN9GfxDevice20SetMaxBufferedFramesEi
wik:_TweenRunner_1_StartTween_m1055628540_gshared
LHc:__ZN10Collider2D19WakeAllBodyContactsEv
mok:_GameObject_GetComponents_TisRuntimeObject_m1246177135_gshared
Fmg:_MethodAccessException__ctor_m3542088436
I_b:__Z23ConvertIntegerToTypePtrIsEbPvR14SafeBinaryRead
Eu:__ZN9Scripting11UnityEngine10Animations26AnimatorControllerPlayable9InitProxyEv
yJc:__ZN12b2MouseJoint11ShiftOriginERK6b2Vec2
Dqd:__ZNK5physx14NpArticulation17releaseDriveCacheERNS_24PxArticulationDriveCacheE
lyl:__ZN6il2cpp2vmL8IsMethodEP12Il2CppObject
_9i:_EqualityComparer_1_System_Collections_IEqualityComparer_GetHashCode_m2230215241_gshared
Nig:__ZL60ContentSizeFitter_t3850442145_CustomAttributesCacheGeneratorP21CustomAttributesCache
ymi:_Hashtable_Contains_m2145146412
j5:__ZN6prcoreL29inner_stretch_rgb565_bilinearEPKNS_9InnerInfoE
CGd:__ZNK5physx2Sc9ClothCore25getSelfCollisionStiffnessEv
cpa:__Z26TransformVerticesInnerLoopILb0ELb0ELb1EEvPhRK10Matrix4x4fRK10Matrix3x3fjPKhiS8_ii25GfxTransformVerticesFlagsj
Bti:_Int32_FindCurrency_m3541026887
mNh:_Interval_CompareTo_m3282557545
Zem:_pthread_cond_wait__wrapper
TRb:__ZNK14RenderSettings19GetFlatAmbientColorEv
xoa:__ZN8DrawUtil24DrawMeshRawFromNodeQueueERK15RenderNodeQueuej16VertexInputMasksi
QRa:__ZN18StreamedBinaryReadILb0EE21TransferSTLStyleArrayI10vector_mapIPKN5Unity4TypeE7Hash128NSt3__24lessIS6_EENS8_9allocatorINS8_4pairIS6_S7_EEEEEEEvRT_17TransferMetaFlags
mwl:__ZN6il2cpp2gc19AppendOnlyGCHashMapINSt3__24pairIPK11Il2CppImageP11Il2CppClassEEP22Il2CppReflectionModule17ReflectionMapHashIS9_ENS2_8equal_toIS9_EEE11TryGetValueERKS9_PSB_
tIk:_RijndaelManagedTransform_TransformBlock_m1610137419
kdc:__Z40Register_UnityEngine_Transform_SetParentv
Sza:__ZN14Texture2DArray17UploadToGfxDeviceEv
HVk:_Event_set_displayIndex_m1342258734
BB:__Z14FMODMemoryFreePvjPKc
qba:__ZN9Scripting11UnityEngine12Experimental10PlayerLoop11FixedUpdate12CleanupProxyEv
cDg:_NetFxCoreExtensions_GetMethodInfo_m444570327
zUj:_Type_get_IsSystemType_m624798880
vHg:_Mesh_SetNormals_m2521889643
vIe:_tt_cmap0_validate
PCe:_cf2_glyphpath_moveTo
lYd:__ZN5physx3Scb4Body9syncStateEv
AVc:__ZNK13BoxCollider2D22GetTypeVirtualInternalEv
irc:__Z51Register_UnityEngine_Texture_get_texelSize_Injectedv
hPg:_StackTraceUtility_SetProjectFolder_m830524047
Nud:__ZN5physx12PxsRigidBody23updatePoseDependenciesVERNS_10PxsContextE
eVh:_ClientSessionInfo_Finalize_m2165787049
xxc:__ZN5IMGUI14GUIWindowStateD2Ev
bUh:_ClientContext_Clear_m1774063253
joc:__ZN4Mesh17SetIndicesComplexEPKvjj16GfxPrimitiveTypeij
jKi:_DateTime_AddSeconds_m332574389_AdjustorThunk
ygi:_Byte_System_IConvertible_ToSByte_m1869482168
Idf:_U3CDelayedDestroyDropdownListU3Ec__Iterator0_MoveNext_m213723240
Hub:__Z21PlayerStartFirstSceneb
PEg:_GameObject_Internal_AddComponentWithType_m3797731663
Rm:_emscripten_glIsTexture
wl:_emscripten_glHint
SYk:_Check_SourceAndPredicate_m2332465641
e8f:__ZL74ContactFilter2D_t3805203441_CustomAttributesCacheGenerator_useOutsideDepthP21CustomAttributesCache
lKe:_ft_var_readpackeddeltas
blb:__Z35Transfer_Blittable_FixedBufferFieldI18StreamedBinaryReadILb1EEtEvRK29SerializationCommandArgumentsR31RuntimeSerializationCommandInfo
TWj:_UInt32_System_IConvertible_ToInt64_m2261037378
Um:_SDL_UpperBlit
rij:_List_1_System_Collections_IList_Add_m49923158_gshared
ksa:__Z35GetTextureDecodeValuesWithIntensity16TextureUsageMode17TextureColorSpace10ColorSpacef
ARk:_Parser_ParseRepetitionBounds_m1246581246
zRi:_Array_InternalArray__ICollection_Remove_TisChar_t3634460470_m4143749387_gshared
UGb:__ZN15dense_hashtableINSt3__24pairIK9TextureIDiEES2_14GfxGenericHashIS2_EN14GfxDoubleCacheIS2_iS6_NS0_8equal_toIS2_EEN31GfxDoubleCacheConcurrencyPolicy11LocklessGetE42GfxDoubleCacheDefaultEmptyDeletedGeneratorIS2_EE9SelectKeyES9_13stl_allocatorIS4_L18MemLabelIdentifier24ELi16EEE14squash_deletedEv
Pec:__Z13RegisterClassI14Texture2DArrayEvPKc
n8d:__ZN5physx14PxsAABBManager21processAggregatePairsEPKNS_19AggregateSortedDataE
uJc:__ZNK12b2MouseJoint10GetAnchorAEv
Tkb:__Z18Transfer_BlittableI18StreamedBinaryReadILb1EELb0E9BoundsIntEvRK29SerializationCommandArgumentsR31RuntimeSerializationCommandInfo
qoi:_GregorianCalendar__ctor_m979779718
vYh:_SslClientStream__ctor_m2402546929
wrb:__ZN14SafeBinaryRead20OverrideRootTypeNameEPKc
FDh:_DictionaryNodeEnumerator_get_Entry_m2309234501
DX:__ZN14FileCacherRead16UnlockCacheBlockEj
NR:__ZN10InstancingL21OnGraphicsCapsChangedEv
DZf:__ZL101SystemInfo_t3561985952_CustomAttributesCacheGenerator_SystemInfo_GetOperatingSystemFamily_m1440411909P21CustomAttributesCache
HSj:_WaitHandle_get_Handle_m3260446580
zhj:_Enumerator_VerifyState_m1745883925_AdjustorThunk
jd:_emscripten_glUniform1f
YBi:_SortedList__ctor_m1261191695
oEl:__ZN6il2cpp2vm6Thread28GetThreadStaticDataForThreadEiP12Il2CppThread
pBe:__Z20ParseImageParametersR11UTF16StringRiRN20TextRenderingPrivate16TextFormatChangeE
Cig:__ZL55CanvasScaler_t2767979955_CustomAttributesCacheGeneratorP21CustomAttributesCache
od:_emscripten_glUniform1i
qgb:__Z18Transfer_BlittableI24GenerateTypeTreeTransferLb1EN4math12int3_storageEEvRK29SerializationCommandArgumentsR31RuntimeSerializationCommandInfo
The:__ZN5physx2Sc19ShapeInstancePairLL23postIslandGenSecondPassEv
a$c:__ZN14PhysicsManager23VirtualRedirectTransferER19StreamedBinaryWriteILb0EE
dK:__ZN11UnityEngine15CloudWebService16SessionContainer20RestoreSessionHeaderERKN4core12basic_stringIcNS2_20StringStorageDefaultIcEEEES8_RNS0_13SessionHeaderE
B1d:__ZN5physx2Sq16BucketPrunerCore12updateObjectERKNS_9PxBounds3ERKNS0_13PrunerPayloadE
ehe:__ZN5physx18PxsDynamicsContext23atomIntegrationParallelEfPKPNS_11PxsBodyCoreEPKPNS_12PxsRigidBodyEjPKNS_2Cm13SpatialVectorEPNS_13PxcSolverBodyEPNS_17PxcSolverBodyDataEPSA_RjSI_RNS_10PxBaseTaskE
zv:__ZN11UnityEngine9Animation27CreateAvatarBindingConstantER9TransformPKN7mecanim9animation14AvatarConstantERNS3_6memory9AllocatorE
$qj:__Z151RuntimeInvoker_RuntimeObject_Int32_t2950945753_RuntimeObject_ObjectU5BU5DU26_t712384779_RuntimeObject_RuntimeObject_RuntimeObject_ObjectU26_t2146539884PFvvEPK10MethodInfoPvPS4_
LTe:__ZN8JSONRead19TransferSTLStyleMapINSt3__23mapIN4core12basic_stringIcNS3_20StringStorageDefaultIcEEEEN11UnityEngine9Analytics16LimitEventConfigENS1_4lessIS7_EE13stl_allocatorINS1_4pairIKS7_SA_EEL18MemLabelIdentifier6ELi16EEEEEEvRT_17TransferMetaFlags
Q9e:_CanvasUpdateRegistry__ctor_m2005397069
LV:__ZN14MessageHandler3GetEv
elf:_MonoMethodInfo_GetCallingConvention_m3156036493
yEg:_SupportedRenderingFeatures_FallbackMixedLightingModeByRef_m3859171964
Dd:_emscripten_glAttachShader
NP:__Z40DebugStringToFilePostprocessedStacktraceRK21DebugStringToFileData
Hhf:_Image__cctor_m1927508576
i3b:__ZNSt3__26vectorIN4core12basic_stringIcNS1_20StringStorageDefaultIcEEEENS_9allocatorIS5_EEE6assignIPS5_EENS_9enable_ifIXaasr21__is_forward_iteratorIT_EE5valuesr16is_constructibleIS5_NS_15iterator_traitsISC_E9referenceEEE5valueEvE4typeESC_SC_
Jbd:__ZN5physx2Gu19GetRaycastFuncTableEv
SFa:__ZThn32_N8Renderer15AddAsRenderNodeER15RenderNodeQueueRK20DeprecatedSourceData
pDb:__ZN13dynamic_arrayIN18GlslGpuProgramGLES9GLProgramELj0EE6insertEPS1_jRKS1_
yrh:_InternalEnumerator_1_get_Current_m3331252162_AdjustorThunk
Oab:__Z18Transfer_BlittableI14SafeBinaryReadLb0E11QuaternionfEvRK29SerializationCommandArgumentsR31RuntimeSerializationCommandInfo
xVc:__ZN13BoxCollider2D16CheckConsistencyEv
Lhe:__ZN5physx17EdgeChangeManager23cleanupBrokenEdgeEventsEPKNS_4EdgeE
kob:__Z18Transfer_BlittableI18StreamedBinaryReadILb0EELb1E12PropertyNameEvRK29SerializationCommandArgumentsR31RuntimeSerializationCommandInfo
vP:_tlsf_walk_heap
Qqj:__Z49RuntimeInvoker_Void_t1185182177_OpCode_t123070264PFvvEPK10MethodInfoPvPS4_
btl:__ZN6il2cpp2vm7Runtime6InvokeEPK10MethodInfoPvPS5_PP15Il2CppException
V3f:__ZL59AnimatorClipInfo_t3156717155_CustomAttributesCacheGeneratorP21CustomAttributesCache
rIi:_Convert_ToUInt32_m3592050311
wb:invoke_vif
bok:_Component_GetComponents_TisRuntimeObject_m2416546752_gshared
xb:invoke_vid
q5l:__ZNSt3__212basic_stringIcNS_11char_traitsIcEENS_9allocatorIcEEE6insertEjPKc
zb:invoke_vii
SKb:__ZNK12ImageFilters8DoRenderER17ShaderPassContextP13RenderTextureS3_RKNSt3__26vectorI11ImageFilterNS4_9allocatorIS6_EEEE
EWd:__ZN5physx13NpVolumeCacheD2Ev
vga:__ZN12TLSAllocatorI14StackAllocatorE16ThreadInitializeEP13BaseAllocator
osj:__Z82RuntimeInvoker_Boolean_t97287965_SByte_t1669577662_RuntimeObject_SByte_t1669577662PFvvEPK10MethodInfoPvPS4_
z3a:__ZN9GfxDevice32UpdateStereoViewProjectionMatrixE21MonoOrStereoscopicEye
Gee:__ZThn8_N5physx2Sc35ParticleElementRbElementInteraction12onDeactivateEj
vM:__Z29GetCloudWebServicesModuleSpecv
KQe:__Z41CanvasRenderer_CUSTOM_DisableRectClippingP12Il2CppObject
Rng:_MonoType_GetConstructorImpl_m441167626
x4d:__ZN5physx16PxsThreadContextC2EPNS_10PxsContextE
i6:__ZL45__ManagedRegistrationHelperFunction_CoroutinePv
sFk:_Collection_1_IsFixedSize_m3709118201_gshared
M1a:__ZN25SingleBlockMemoryFileDataD0Ev
Mx:__ZNSt3__26vectorI14ConstantStringNS_9allocatorIS1_EEE6assignINS_11__wrap_iterIPS1_EEEENS_9enable_ifIXaasr21__is_forward_iteratorIT_EE5valuesr16is_constructibleIS1_NS_15iterator_traitsISA_E9referenceEEE5valueEvE4typeESA_SA_
K7c:__ZN5physx3Cct10Controller4moveERNS0_11SweptVolumeERKNS_6PxVec3EffRKNS_19PxControllerFiltersEPKNS_17PxObstacleContextEb
_J:__ZN11UnityEngine15CloudWebService16SessionContainer21ConvertFromFolderTimeERKN4core12basic_stringIcNS2_20StringStorageDefaultIcEEEEPjPt
QUa:__Z15UnloadGameScenev
ycb:__ZNSt3__26vectorI8GUIStyle13stl_allocatorIS1_L18MemLabelIdentifier1ELi16EEE7reserveEj
ZGl:__ZN6il2cpp6icalls8mscorlib6System9Threading6Thread27GetSerializedCurrentCultureEP12Il2CppThread
BVh:_Context_set_ReadSequenceNumber_m2154909392
oIk:_RijndaelTransform_SubByte_m3037693507
Ogc:__Z31CalculateHierarchyTransformType23TransformAccessReadOnly
bB:__ZN4FMOD8ChannelI11setPositionEjj
vFg:_Input_INTERNAL_CALL_GetTouch_m3481893561
SWl:_GC_set_fl_marks
lnd:__ZN5physx6shdfnd8PoolBaseINS_2Sc12SimStateDataENS0_19ReflectionAllocatorIS3_EEE17releaseEmptySlabsEv
tSa:__ZNSt3__26vectorIN30RuntimeInitializeOnLoadManager15ClassMethodInfoE13stl_allocatorIS2_L18MemLabelIdentifier13ELi16EEE7reserveEj
C3a:__ZN9GfxDevice17SetStereoViewportE15StereoscopicEyeRK5RectTIiE
J1:__ZN17BaseObjectManager13StaticDestroyEPv
oO:__GLOBAL__sub_I_Runtime_Graphics_Mesh_1_cpp
xbl:_CanvasRenderer_INTERNAL_CALL_GetColor_m597074473
rOc:__ZN27b2UpdateTriggerContactsTask8FinalizeEv
F2c:__ZN5physx2Gu22closestPtPointTriangleEPNS_6shdfnd3aos5Vec3VES4_S4_Rj
lF:__ZN12AudioManager14UpdateListenerERK8Vector3fS2_S2_S2_
gxd:__ZN5physx2Cm8PtrTableC2Ev
tQg:_Vector3_get_forward_m3100859705
ez:__ZN4FMOD6Reverb13setPropertiesEPK22FMOD_REVERB_PROPERTIES
EMb:__ZN9DepthPass13PrepareSubsetEjRK10RenderNodeifRK17ShaderReplaceData
H7d:__ZN5physx16PxsBroadPhaseMBP6updateEjjRKNS_23PxcBroadPhaseUpdateDataEPNS_10PxBaseTaskE
WAd:__ZN5physx9NpPhysics18createRigidDynamicERKNS_11PxTransformE
$hd:__ZN5physx6shdfnd5ArrayIPvNS0_19ReflectionAllocatorINS_2Sc18TriggerInteractionEEEE15growAndPushBackERKS2_
_1b:__ZN9ShaderLab20SerializedSubProgram16TextureParameter8TransferI14SafeBinaryReadEEvRT_
lGe:_otv_BaseCoord_validate
roc:__Z35SetMeshComponentFromArrayFromScriptR4Mesh30InternalScriptingShaderChannel34InternalScriptingVertexChannelTypei17ScriptingArrayPtri
R9b:__Z18ExtractTagThrowingR11ICallString
hXi:_Array_InternalArray__ICollection_Add_TisCustomAttributeNamedArgument_t287865710_m4157175270_gshared
g5c:__ZN5physx2Gu17intersectRayAABB2ERKNS_6shdfnd3aos5Vec3VES5_S5_S5_RKNS2_6FloatVERS6_S9_
Pr:__ZN4core20StringStorageDefaultIcE6assignEPKcj
YXj:_UInt64_System_IConvertible_ToUInt64_m2135047981_AdjustorThunk
_Bd:__ZNK5physx7NpShape17getSphereGeometryERNS_16PxSphereGeometryE
tOh:_BigInteger_ModPow_m3776562770
pbd:__ZL18intersectAnyVsMeshILi1EEbPKN5physx2Gu6SphereEPKNS1_7CapsuleEPKNS1_3BoxERKNS1_13RTreeMidphaseERKNS0_11PxTransformERKNS0_11PxMeshScaleEP14LimitedResults
oOl:__ZN15dense_hashtableINSt3__24pairIK10KeyWrapperIP12Il2CppObjectEN6il2cpp2gc9CachedCCWEEES5_NS7_5utils11PointerHashIS3_EEN14dense_hash_mapIS5_S9_SD_NS5_14EqualsComparerINS0_8equal_toIS4_EEEENS0_9allocatorISA_EEE9SelectKeyESI_SK_E3endEv
CXh:_RecordProtocol_ProcessChangeCipherSpec_m15839975
Iii:_ArrayList_IndexOf_m305368842
tld:__ZN5physx6shdfnd5ArrayIPvNS0_15InlineAllocatorILj256ENS0_19ReflectionAllocatorINS_2Cm5BlockIhLj128EEEEEEEE15growAndPushBackERKS2_
EWb:__ZN6Camera6SetFarEf
SVg:_FormatterConverter_ToBoolean_m1680758923
V4:__ZN6prcoreL12RemapGenericI17TexFormatABGR888817TexFormatARGB8888EEvPKNS_9InnerInfoE
Uga:__ZN11GameManager17MainThreadCleanupEv
t2j:_ReadOnlyCollection_1__ctor_m1345363288_gshared
rQe:__Z50Register_UnityEngine_UISystemProfilerApi_EndSamplev
dal:_Physics2D_Raycast_m2082490717
ESc:__ZN10Collider2D12AddToManagerEv
TWg:_SerializationCallbacks_GetSerializationCallbacks_m2939476649
BEd:__ZNK5physx7NpCloth24getParticleAccelerationsEPNS_6PxVec4E
ZIe:_UNITY_tt_slot_init
mIb:__ZZ23InitPlayerLoopCallbacksvEN41PostLateUpdateUpdateResolutionRegistrator7ForwardEv
$pb:__Z25scripting_array_class_get17ScriptingClassPtrj
eE:__ZNK10SampleClip22GetTypeVirtualInternalEv
u4a:__ZN9GfxDevice20DestroyRenderSurfaceER12ObjectHandleI17RenderSurface_TagP17RenderSurfaceBaseE
NCi:_Stack__ctor_m2602729586
mcc:__Z35Resources_CUSTOM_GetBuiltinResourceP12Il2CppObjectP12Il2CppString
nei:_Array_slow_swapper_m4116724811
wVb:__ZN12_GLOBAL__N_15qAsinEff
cjh:_InternalEnumerator_1_System_Collections_IEnumerator_get_Current_m2629988057_AdjustorThunk
wga:__ZN12TLSAllocatorI14StackAllocatorE13ThreadCleanupEv
u6i:_Dictionary_2_get_Item_m2136868513_gshared
NKa:__ZN14SafeBinaryRead21TransferSTLStyleArrayI13dynamic_arrayI8Vector4fLj0EEEEvRT_17TransferMetaFlags
RYj:_ValueType_InternalEquals_m1384040357
xUl:__ZThn4_N6il2cpp2vm13ComObjectBase16MarshalInterfaceEP13Il2CppIStreamRK10Il2CppGuidPvjS7_j
cGi:_Convert_ToDouble_m996590115
U$b:__Z27FindActiveTransformWithPathPKc
R6j:_ReadOnlyCollection_1_System_Collections_IList_Remove_m4169110229_gshared
xWj:_UInt16_ToString_m3020002356
qSd:__ZN5physx16PxsIslandManager14setEdgeRigidCMERKNS_20PxsIslandManagerHookIjLj4294967295EEEPNS_17PxsContactManagerE
f6g:_LayoutRebuilder_LayoutComplete_m68578143
aXk:_GUIStyle_get_fixedWidth_m2576616348
mCi:_SortedList_Find_m3363512987
eme:__ZN5physx2Gu11HeightField7releaseEv
LOb:__ZNK6Camera7GetNearEv
Vvg:_GenericTypeParameterBuilder_GetConstructorImpl_m863833310
Ywh:_Enumerator_get_Current_m3687673883_AdjustorThunk
gPe:__ZN2UI13CanvasManager8SortListEv
YCb:__ZN7ApiGLES11UnmapBufferEjN2gl12BufferTargetE
OUl:__ZN6il2cpp5utilsL24Utf32CharToSurrogatePairEjRA2_Ds
GCa:__Z25GetNextAllowedTextureSizeib13TextureFormat
Ssb:__ZN20LocalFileSystemWebGL4CopyER13FileEntryDataS1_
eN:__ZN19CloudServiceHandler6RetainEv
j3j:_ReadOnlyCollection_1_System_Collections_IList_IndexOf_m198887188_gshared
YDj:__Z71RuntimeInvoker_Vector2_t2156229523_Vector2_t2156229523_Rect_t2360479859PFvvEPK10MethodInfoPvPS4_
wvc:__Z36Event_CUSTOM_Internal_SetNativeEventPv
kPj:_UTF32Encoding_GetBytes_m3180303867
hee:__ZN5physx2Sc8ClothSim23addCollisionHeightfieldEPKNS0_8ShapeSimE
W4j:_ReadOnlyCollection_1_System_Collections_IList_Clear_m2007013334_gshared
UWa:__Z34scripting_liveness_calculation_endPv
ahi:_Char_GetDataTablePointers_m754571594
SQl:__ZN6il2cpp2os6ThreadC2Ev
_ic:__ZN28ReflectionProbeAnchorManager7CleanupEv
lLi:_DateTimeOffset_get_UtcDateTime_m1021718282_AdjustorThunk
aDh:_HybridDictionary_get_Count_m1166314536
vLk:_TlsStream_Write_m1412844442
CCc:__Z18Transfer_BlittableI8JSONReadLb0E8Vector3fEvRK29SerializationCommandArgumentsR31RuntimeSerializationCommandInfo
MGg:_Matrix4x4__ctor_m53065545_AdjustorThunk
RDl:__ZN6il2cpp2vm6Thread6DetachEP12Il2CppThread
YLk:_GeneralNames_get_DNSNames_m3788548987
RLe:_Render_Single_Pass
B6:__ZL56__ManagedRegistrationHelperFunction_TextureMixerPlayablePv
Nv:__ZN7mecanim8skeleton30SkeletonBuildReverseIndexArrayEPiPKiPKNS0_8SkeletonES6_
Tvc:__Z19GetGUIBlendMaterialv
umg:_Math_Round_m3018379666
HRl:__ZN6il2cpp2os10ThreadImpl5SleepEjb
l3j:_ReadOnlyCollection_1_System_Collections_IList_Remove_m1965826685_gshared
V6d:__ZN5physx14SapPairManager12shrinkMemoryEv
LYe:__ZN22BaseUnityConnectClient12IsNewSessionEv
f6f:__ZL82LayoutCache_t78309876_CustomAttributesCacheGenerator_LayoutCache__ctor_m3885940174P21CustomAttributesCache
kNi:_Delegate_CreateDelegate_m1051651521
pqe:__ZN5physx6shdfnd8internal7median3IjKNS_19SortBoundsPredicateEEEvPT_iiRT0_
JSi:_PlayableHandle_IsPlayableOfType_TisRuntimeObject_m503495943_AdjustorThunk
wdm:_glBindSampler__wrapper
uHb:__ZNSt3__26vectorIN20ArchiveStorageHeader12StorageBlockE13stl_allocatorIS2_L18MemLabelIdentifier55ELi16EEE8__appendEj
kg:_emscripten_set_mouseup_callback
L0b:__Z14resize_trimmedINSt3__26vectorIN9ShaderLab14SerializedPassENS0_9allocatorIS3_EEEEEvRT_j
EGg:_Mathf_Clamp_m3350697880
Bsj:__Z165RuntimeInvoker_Void_t1185182177_UInt32U26_t3735378166_Int32_t2950945753_UInt32U26_t3735378166_Int32_t2950945753_Int32_t2950945753_Int32_t2950945753_Int32_t2950945753PFvvEPK10MethodInfoPvPS4_
Fqk:_List_1_System_Collections_IList_Remove_m3140917266_gshared
Aoh:_InternalEnumerator_1_get_Current_m2112392701_AdjustorThunk
cVd:__ZN5physx7NpScene22removeBroadPhaseRegionEj
sid:__ZL34GeomOverlapCallback_CapsuleCapsuleRKN5physx10PxGeometryERKNS_11PxTransformES2_S5_PNS_2Gu12TriggerCacheE
Lsb:__ZNK18ScreenManagerWebGL8GetWidthEv
kUd:__ZNK5physx7NpScene23getFilterShaderDataSizeEv
hTj:_TimeSpan_get_TotalHours_m306507525_AdjustorThunk
bE:__ZN10SampleClipD2Ev
Ddk:_Predicate_1_Invoke_m2389850270_gshared
mWa:__Z13GetGISettingsv
QM:__ZN11UnityEngine15CloudWebService20WebRequestRestClientC2Ev
yEe:_cff_cmap_unicode_init
JQi:_Array_InternalArray__ICollection_Contains_TisRuntimeObject_m4067783231_gshared
Q5:__ZL60__ManagedRegistrationHelperFunction_AssemblyIsEditorAssemblyPv
XDk:_Collection_1_IsValidItem_m3080586124_gshared
qaf:_ClipperRegistry_Register_m2407166513
T3l:_readlink
Gxl:__ZN15dense_hashtableINSt3__24pairIK10KeyWrapperINS1_IPK9EventInfoP11Il2CppClassEEEjEES9_17ReflectionMapHashIS8_EN14dense_hash_mapIS9_jSD_NS9_14EqualsComparerINS0_8equal_toIS8_EEEENS0_9allocatorISB_EEE9SelectKeyESI_SK_E12resize_deltaEjj
$kf:_MonoCMethod_Invoke_m2700167622
$mi:_KeyMarker__cctor_m2590194914
b$l:__ZN6il2cpp8metadata14Il2CppTypeHash4HashEPK10Il2CppType
d0l:__ZN6il2cpp2os13SemaphoreImplC2Eii
HMa:__ZNK6Sprite9GetBoundsE8Vector2fbb
xla:__ZNK19RenderEventsContext21CleanupCommandBuffersEv
D9k:_TextGenerator_PopulateWithErrors_m1222498386
Y5j:_ReadOnlyCollection_1_System_Collections_Generic_ICollectionU3CTU3E_Clear_m2102011098_gshared
xAb:__ZN11ContextGLES6CreateEi
Rad:__ZN5physx6shdfnd5ArrayINS_10PxTriangleENS0_19ReflectionAllocatorIS2_EEE15growAndPushBackERKS2_
auk:_List_1_set_Capacity_m3382070520_gshared
F4g:_U3CMouseDragOutsideRectU3Ec__Iterator1_Dispose_m267465418
NMi:_Decimal_CompareTo_m3502307243_AdjustorThunk
$ob:__Z19TransferField_ArrayI18StreamedBinaryReadILb0EE27Converter_SimpleNativeClassI17AnimationCurveTplIfEEEvRK23StaticTransferFieldInfoR31RuntimeSerializationCommandInfoRT0_
Qga:__ZN14StackAllocator16FrameMaintenanceEb
sad:__ZL11SweepBoxBoxPKN5physx3Cct9SweepTestEPKNS0_11SweptVolumeEPKNS0_11TouchedGeomERKNS_14PxExtendedVec3ERKNS_6PxVec3ERNS0_12SweptContactE
jFa:__Z18ReadStringFromFilePN4core17string_with_labelILi1EEERKNS_12basic_stringIcNS_20StringStorageDefaultIcEEEE
vBc:__ZN9JSONWrite8TransferI13dynamic_arrayIjLj0EEEEvRT_PKc17TransferMetaFlags
oY:__ZNK10GameObject20QueryComponentByTypeEPKN5Unity4TypeE
eMi:_Decimal_System_IConvertible_ToInt32_m1488426794_AdjustorThunk
Xmg:_MonoCustomAttrs_IsUserCattrProvider_m2878058089
mgg:__ZL71InputField_t3762917431_CustomAttributesCacheGenerator_m_HideMobileInputP21CustomAttributesCache
pBa:__ZN11TextureData5ResetEv
oac:__Z53Register_UnityEngine_GameObject_get_activeInHierarchyv
N$h:_ToBase64Transform_InternalTransformFinalBlock_m360524956
ybi:_ActivationContext_Dispose_m2038725770
uT:__ZL30InitializeCoreScriptingClassesv
Rra:__ZN15SerializeTraitsI12fixed_bitsetILi28EjEE8TransferI18StreamedBinaryReadILb0EEEEvRS1_RT_
hh:_glBlitFramebuffer
neb:__Z35Transfer_Blittable_SingleValueFieldI14SafeBinaryReadhEvRT_R17GeneralMonoObjectRK23StaticTransferFieldInfo
vTj:_TimeSpan_Duration_m2963553230
u_e:__ZN22BaseUnityConnectClientC2ERN11UnityEngine7Connect20BasePersistentValuesE
lYi:_Array_InternalArray__ICollection_CopyTo_TisInt64_t3736567304_m2845057751_gshared
xBa:__ZNK12CubemapArray22GetTypeVirtualInternalEv
Fo:FUNCTION_TABLE_vif
Go:FUNCTION_TABLE_vid
Io:FUNCTION_TABLE_vii
dXa:__Z40scripting_liveness_calculation_from_root18ScriptingObjectPtrPv
iwa:__ZN7Texture23VirtualRedirectTransferER24GenerateTypeTreeTransfer
Jze:_UNITY_FT_Set_Transform
ZLa:__ZN14SpriteRenderer16CheckConsistencyEv
$cm:_glDeleteFramebuffers__wrapper
Zoj:__Z220RuntimeInvoker_Boolean_t97287965_RuntimeObject_Int32U26_t1369213839_Int32_t2950945753_Int32_t2950945753_Int32_t2950945753_RuntimeObject_SByte_t1669577662_Int32_t2950945753_ContractionU26_t961830454_ContextU26_t3937453398PFvvEPK10MethodInfoPvPS4_
Jac:__Z36Register_UnityEngine_RectOffset_Initv
h1i:_BitConverterLE_GetUIntBytes_m949779219
ICe:_cff_blend_build_vector
BGh:_WebHeaderCollection_ToString_m1263025316
hnf:_GetterAdapter_Invoke_m3767885970
bvk:_List_1__ctor_m747758800_gshared
r6h:_String_CreateString_m2818852475
dlc:__Z22GenerateBoxTilingShapeP22GenerateTilingAreaInfo
Vbl:_CanvasRenderer_get_hasMoved_m2236392341
Mxd:__ZN5physx12NpBatchQuery13getUserMemoryEv
JIg:_MessageEvent__ctor_m1231650089
dZa:__ZNK15Lz4Decompressor16DecompressMemoryEPKvPjPvS2_
sHe:_UNITY_tt_face_build_cmaps
Wka:__Z11IsCoroutine18ScriptingMethodPtrRK22CommonScriptingClasses
y6b:__ZN4core8hash_mapINS_12basic_stringIcNS_20StringStorageDefaultIcEEEE10vector_setI4PPtrI11SpriteAtlasENSt3__24lessIS8_EE13stl_allocatorIS8_L18MemLabelIdentifier81ELi16EEENS_4hashIS4_EENS9_8equal_toIS4_EEEixERKS4_
sWc:__ZN11Rigidbody2D8TransferI24GenerateTypeTreeTransferEEvRT_
Hya:__Z35UnityPropertySheet_MakeSortedColorsRKNSt3__23mapIN9ShaderLab16FastPropertyNameE10ColorRGBAfNS_4lessIS2_EENS_9allocatorINS_4pairIKS2_S3_EEEEEER10vector_mapIS2_S3_S5_NS6_INS7_IS2_S3_EEEEE
PGe:_UNITY_tt_face_load_os2
ace:__ZN5physx2GuL34fullContactsGenerationSphereConvexERKNS0_8CapsuleVERKNS0_11ConvexHullVERKNS_6shdfnd3aos12PsTransformVESB_PNS0_17PersistentContactERjRNS0_13ContactBufferEbRNS0_25PersistentContactManifoldERNS8_5Vec3VERKNS8_6FloatVEb
UYi:_Array_InternalArray__ICollection_CopyTo_TisUICharInfo_t75501106_m4268526610_gshared
hld:__ZN5physx6shdfnd8PoolBaseINS_2Sc19ConstraintGroupNodeENS0_19ReflectionAllocatorIS3_EEE17releaseEmptySlabsEv
Idb:__Z29Transfer_Blittable_ArrayFieldI14SafeBinaryRead8Vector4fEvRT_R9ArrayInfoRK23StaticTransferFieldInfo
BPl:__GLOBAL__sub_I_BoehmGC_cpp
Hse:__ZNSt3__27__sort4IRNS_6__lessI24InterpolationDepthHandleS2_EEPS2_EEjT0_S6_S6_S6_T_
qQj:_UTF8Encoding_GetMaxCharCount_m3762459613
Mtg:_ModuleBuilder_RegisterToken_m4166846047
dIb:__ZZ23InitPlayerLoopCallbacksvEN51PostLateUpdateUpdateCustomRenderTexturesRegistrator7ForwardEv
o8g:_RawImage_OnPopulateMesh_m1115858855
wpl:__ZN6il2cpp2vm13MetadataCache25GetStringLiteralFromIndexEi
Zbi:_Hashtable_ToPrime_m33531354
Cjd:__ZN5physx3Scb5Scene20addArticulationJointERNS0_17ArticulationJointE
D$j:_Collection_1_IsSynchronized_m1117613618_gshared
bH:__ZN11AudioModule6UpdateEv
Dxh:_KeyCollection_System_Collections_Generic_ICollectionU3CTKeyU3E_Remove_m2555909644_gshared
ied:__ZN5physx3Cct9SweepTest15onObstacleAddedEjPKNS_17PxObstacleContextERKNS_6PxVec3ES7_f
CVj:_TypeInitializationException__ctor_m3546444694
zcc:__ZNK9Transform16GetLocalRotationEv
SL:__ZN11UnityEngine15CloudWebService23WebRequestUploadHandler17ConsumeUploadDataEj
qEj:__Z68RuntimeInvoker_Void_t1185182177_Single_t1397266774_SByte_t1669577662PFvvEPK10MethodInfoPvPS4_
Pzi:_MemoryStream_set_Position_m3169779190
yVb:__ZN13RenderManager29SetCurrentCameraAndStackStateEP6CameraP25CameraStackRenderingState
k5e:_ExecuteEvents_get_scrollHandler_m2659345019
pha:__ZNSt3__26__treeINS_12__value_typeIjN4core12basic_stringIcNS2_20StringStorageDefaultIcEEEEEENS_19__map_value_compareIjS7_NS_4lessIjEELb1EEE13stl_allocatorIS7_L18MemLabelIdentifier7ELi16EEE7destroyEPNS_11__tree_nodeIS7_PvEE
UFl:__ZN15dense_hashtableINSt3__24pairIK10KeyWrapperINS1_IP11Il2CppClassjEEES4_EES6_N6il2cpp8metadata14ArrayClassHashEN14dense_hash_mapIS6_S4_SB_NS6_14EqualsComparerINSA_17ArrayClassCompareEEENS0_9allocatorIS8_EEE9SelectKeyESF_SH_E12resize_deltaEjj
wi:_JS_WebRequest_Release
AK:__ZN11UnityEngine15CloudWebService14DataErrorEventD0Ev
eJl:__ZN6il2cpp6icalls8mscorlib6System4Type20internal_from_handleEi
ASf:__ZL72RequiredByNativeCodeAttribute_t4130846357_CustomAttributesCacheGeneratorP21CustomAttributesCache
Asf:_Context__ctor_m254302079
z2d:__ZN5physx13PxsCCDContext12postCCDSweepEPNS_10PxBaseTaskE
vba:__ZN9Scripting11UnityEngine12Experimental9Playables20TextureMixerPlayable9InitProxyEv
rEa:__ZN19ShaderPropertySheet16SetArrayPropertyEN9ShaderLab16FastPropertyNameENS_12PropertyTypeEPKvj
gah:_Selectable_FindSelectable_m2348614027
kGe:_otv_Axis_validate
Xqe:__ZN5physx6shdfnd10Foundation19AlignCheckAllocator28deregisterAllocationListenerERNS_20PxAllocationListenerE
zca:__ZN9Scripting11UnityEngine9BoundsInt9InitProxyEv
mwc:__ZN8GUIState8EndOnGUIEv
aXe:__ZN11UnityEngine15PlatformWrapper16GetApplicationIdEv
eJe:_UNITY_TT_Get_VMetrics
iKh:_X509Chain__cctor_m993507223
O4d:__ZN5physx33solveContactCoulombBlockWriteBackEPKNS_23PxcSolverConstraintDescEjRNS_16PxcSolverContextEPNS_25PxcThresholdStreamElementEjPi
Xji:_SimpleEnumerator__cctor_m2844299657
cmg:_LocalDataStoreSlot__ctor_m4104083971
V0k:_AudioSource_ReadExtensionName_m725112169
YNk:_X509CertificateEnumerator_System_Collections_IEnumerator_Reset_m2039524926
Bce:__ZN5physx9PxTaskMgr17submitUnnamedTaskERNS_6PxTaskENS_10PxTaskType4EnumE
Lvj:__Z128RuntimeInvoker_Void_t1185182177_RuntimeObject_BooleanU26_t4125257963_SByte_t1669577662_Int32U26_t1369213839_Int32U26_t1369213839PFvvEPK10MethodInfoPvPS4_
twa:__ZN7Texture21GetMasterTextureLimitEv
cQa:__ZN13dynamic_arrayI9InputAxisLj0EE18resize_initializedEj12ResizePolicy
qXb:__Z12CanAddScriptR10GameObject17ScriptingClassPtrPS1_S2_
FAl:__ZN6il2cpp2vm10Reflection12HasAttributeEP12Il2CppObjectP11Il2CppClass
mak:_Comparison_1_BeginInvoke_m3263247262_gshared
oS:__ZN9ShaderLabL25StaticInitializeShaderLabEPv
s0d:__ZNK5physx2Sq12BucketPruner5sweepERKNS0_9ShapeDataERKNS_6PxVec3ERfRNS0_14PrunerCallbackE
U:Math_max
Xig:__ZL64HorizontalLayoutGroup_t2586782146_CustomAttributesCacheGeneratorP21CustomAttributesCache
xCl:_il2cpp_class_get_methods
tgb:__Z18Transfer_BlittableI24GenerateTypeTreeTransferLb0EN4math12int2_storageEEvRK29SerializationCommandArgumentsR31RuntimeSerializationCommandInfo
YYk:_AesManaged_GenerateKey_m2004209814
QNi:_StackTrace_get_trace_m1194606084
B3h:_Single_CompareTo_m2785801815_AdjustorThunk
_Ql:__ZN6il2cpp2os6Thread16GetCurrentThreadEv
sYe:__ZN11UnityEngine7Connect20RemoteConfigSettings10UnregisterEv
Ijk:_Array_InternalArray__Insert_TisUILineInfo_t4195266810_m3191124053_gshared
n7b:__ZN10GameObject13ComponentPair15SetComponentPtrEPN5Unity9ComponentE
pbm:_glBlitFramebuffer__wrapper
Vve:__ZN5physx6shdfnd8internal8HashBaseINS0_4PairIKPKNS0_14NamedAllocatorEPKcEES6_NS0_4HashIS6_EENS1_11HashMapBaseIS6_S9_SC_NS0_20NonTrackingAllocatorEE6GetKeyESE_Lb1EE15reserveInternalEj
vha:__ZN10TagManager8TransferI19StreamedBinaryWriteILb0EEEEvRT_
zWa:__ZN11PreloadData23VirtualRedirectTransferER18StreamedBinaryReadILb0EE
Wca:__ZN9Scripting11UnityEngine24AssemblyIsEditorAssembly12CleanupProxyEv
ihi:_Char_System_IConvertible_ToDateTime_m3564102661
my:__ZN13RuntimeStaticINSt3__26vectorI12WebCamDeviceNS0_9allocatorIS2_EEEELb0EE13StaticDestroyEPv
OHa:__ZN6Sprite17MainThreadCleanupEv
Bbm:_glBlendFuncSeparate__wrapper
bD:__ZN10AudioMixer14UpdateMuteSoloEv
Gma:__ZN12BaseRenderer25FlattenSharedMaterialDataILb0EEEbRKS_R22PerThreadPageAllocatorR10RenderNode
oAd:__ZN5physx6shdfnd5ArrayINS_3Scb13MaterialEventENS0_19ReflectionAllocatorIS3_EEE15growAndPushBackERKS3_
Nia:__ZN9Transform35SetLocalPositionWithoutNotificationERKN4math7_float3Ey
eWf:__ZL101MonoBehaviour_t3962482529_CustomAttributesCacheGenerator_MonoBehaviour_StartCoroutine_Auto_m594129169P21CustomAttributesCache
xj:_JS_Eval_ClearTimeout
W8a:__ZN7ApiGLES16SetPatchVerticesEi
jTk:_CharacterClass_Compile_m3296067317
Ymd:__ZN5physx2Sc5Scene11onBodySleepEPNS0_7BodySimE
CQl:__ZN6il2cpp2gc16GarbageCollector16InvokeFinalizersEv
xgi:_Byte_System_IConvertible_ToInt64_m285584218_AdjustorThunk
iMg:_Rect_get_size_m477575021_AdjustorThunk
lhl:__ZN6il2cpp2vm5Class20FromGenericParameterEPK22Il2CppGenericParameter
sVi:_Array_IndexOf_TisVector3_t3722313464_m4284163268_gshared
s8c:__ZL28GeomMTDCallback_PlaneCapsuleRN5physx6PxVec3ERfRKNS_10PxGeometryERKNS_11PxTransformES5_S8_
c1:__ZN15GlobalCallbacksC2Ev
MJc:__ZN7b2World10CreateBodyEPK9b2BodyDef
guh:_Comparer_1_System_Collections_IComparer_Compare_m2016223770_gshared
j8h:_Encoding_GetBytes_m3823106599
Iuj:__Z74RuntimeInvoker_DateTime_t3738529785_DateTime_t3738529785_Int32_t2950945753PFvvEPK10MethodInfoPvPS4_
vBe:_UNITY_FT_New_Memory_Face
TGk:_Collection_1_System_Collections_IList_IndexOf_m3271188411_gshared
lfl:_Rigidbody_INTERNAL_set_velocity_m931742966
bze:__ZN20TextRenderingPrivate21TextMeshGeneratorImpl5FlushEv
Azi:_MonoIO_GetFileStat_m678141354
eFe:_UNITY_FT_Load_Sfnt_Table
scf:__Z15CastclassSealedP12Il2CppObjectP11Il2CppClass
LAd:__ZN5physx9NpPhysics16createConvexMeshERNS_13PxInputStreamE
CMi:_Decimal_IsZero_m4250358244_AdjustorThunk
Olg:_UnmanagedMemoryStream_get_CanRead_m3770815400
eWb:__ZN16ReflectionProbes40UpdateRealtimeReflectionProbesTimeslicedEv
cIa:__ZN14SafeBinaryRead21TransferSTLStyleArrayI13dynamic_arrayI8Vector2fLj0EEEEvRT_17TransferMetaFlags
PDi:_Decimal_u64_m3374804932
jmd:__ZN5physx2Sq17SceneQueryManager8addShapeERKNS_7NpShapeERKNS_12PxRigidActorEbPNS_9PxBounds3E
VVj:_UInt16_System_IConvertible_ToInt32_m1950778303_AdjustorThunk
cSa:__ZNK30RuntimeInitializeOnLoadManager22GetTypeVirtualInternalEv
sml:__ZN15dense_hashtableINSt3__24pairIK10KeyWrapperIN6il2cpp5utils13dynamic_arrayIPK10Il2CppTypeLj4EEEEPFvvEEESA_NS3_8metadata19Il2CppSignatureHashEN14dense_hash_mapISA_SD_SG_NSA_14EqualsComparerINSF_22Il2CppSignatureCompareEEENS0_9allocatorISE_EEE9SelectKeyESK_SM_E12resize_deltaEjj
Hjc:__ZN16ReflectionProbes15InitializeClassEv
KK:__ZN13dynamic_arrayIN11UnityEngine15CloudWebService14DataErrorEvent15FileErrorDetailELj0EE18resize_initializedEj12ResizePolicy
T4j:_ReadOnlyCollection_1_System_Collections_ICollection_CopyTo_m2527663815_gshared
HKl:__ZN6il2cpp2vm5Image9GetCorlibEv
iSg:_Vector3_get_left_m2428419009
QOl:__ZN6il2cpp2vm11MethodStack17GetStackFramesRawEv
v4d:__ZNK5physx2Gu29EPASupportMapPairRelativeImplINS0_8CapsuleVES2_E9doSupportERKNS_6shdfnd3aos5Vec3VERS6_S9_S9_
Z4e:_ExecuteEvents_Execute_m113814934
xZ:__ZN13RuntimeStaticINSt3__23mapIN4core12basic_stringIcNS2_20StringStorageDefaultIcEEEES6_NS0_4lessIS6_EE13stl_allocatorINS0_4pairIKS6_S6_EEL18MemLabelIdentifier13ELi16EEEELb0EE13StaticDestroyEPv
uBg:_Coroutine_ReleaseCoroutine_m947702340
fqe:__ZN5physx10SubSortSAH5sort4EPjjRNS_6shdfnd5ArrayINS_11RTreeNodeNQENS2_19ReflectionAllocatorIS4_EEEERjjPS4_
nuh:_Enumerator_System_Collections_IEnumerator_get_Current_m2979767597_AdjustorThunk
Lfk:__ZN30GenericInterfaceActionInvoker1I17Color_t2555686324E6InvokeEPK10MethodInfoP12Il2CppObjectS0_
C0g:_MD5CryptoServiceProvider_ProcessFinalBlock_m2241588515
qbh:_ScrollRect_GetBounds_m449872505
vk:_glIsVertexArray
Lai:_SmallXmlParser_Read_m3485223434
rti:_Int16_Parse_m2276856944
ZNe:__ZL42__ManagedRegistrationHelperFunction_CanvasPv
ha:invoke_fff
I3l:_mbsinit
mSi:_Array_InternalArray__ICollection_Remove_TisContactPoint2D_t3390240644_m284878234_gshared
eam:b14
Pve:__ZN5physx2Sc7PhysicsC2ERKNS_17PxTolerancesScaleERKNS_14PxvOffsetTableE
drc:__Z34RenderTexture_Get_Custom_PropWidthP12Il2CppObject
Fse:__ZNSt3__26__sortIRNS_6__lessI24InterpolationDepthHandleS2_EEPS2_EEvT0_S6_T_
AOe:__ZN2UI6Canvas17MainThreadCleanupEv
O4:__ZN6prcoreL12RemapGenericI17TexFormatARGB155517TexFormatRGBA8888EEvPKNS_9InnerInfoE
ejl:__ZN13Il2CppHashMapIPK19Il2CppGenericMethodPK26Il2CppGenericMethodIndicesN6il2cpp8metadata23Il2CppGenericMethodHashENS7_26Il2CppGenericMethodCompareENSt3__29allocatorINSA_4pairIK10KeyWrapperIS2_ES5_EEEEEC2EjRKS8_RKS9_
bjf:_TypeBuilder_HasElementTypeImpl_m1871001960
G2h:_SecurityFrame__ctor_m2140076703_AdjustorThunk
Tlk:_Array_Resize_TisVector2_t2156229523_m3382835435_gshared
w9i:_DefaultComparer_Equals_m2458578172_gshared
o9a:__ZN7ApiGLES13CreateProgramEv
Rta:__ZN11HaloManager7AddHaloEv
Ouh:_Enumerator_VerifyState_m4003066746_gshared
SCa:__ZN4crnd12crn_unpackerD2Ev
Cy:__ZN9Scripting11UnityEngine12Experimental5Audio19AudioSampleProvider9InitProxyEv
Lk:_emscripten_glTexImage2D
ath:_Comparer_1_System_Collections_IComparer_Compare_m2537217645_gshared
Foa:__ZN16MeshVertexFormat20GetVertexDeclarationER9GfxDevice16VertexInputMasksPKS_
jT:__ZN18ScriptingArguments9AddStringEPKc
$Xl:_setup_header
aii:_Char_ToString_m3588025615
u4d:__ZNK5physx2Gu29EPASupportMapPairRelativeImplINS0_8CapsuleVES2_E18doWarmStartSupportEiiRNS_6shdfnd3aos5Vec3VES7_S7_
G1i:_CryptoConvert_ToCapiKeyBlob_m3371450375
jAa:__ZL23stbir__resize_arbitraryPvPKviiiS_iiiffffPfiij14stbir_datatype12stbir_filterS4_10stbir_edgeS5_16stbir_colorspace
Ngb:__Z18Transfer_BlittableI24GenerateTypeTreeTransferLb1E8Vector4fEvRK29SerializationCommandArgumentsR31RuntimeSerializationCommandInfo
iam:b18
Wk:_pthread_detach
yql:__ZN6il2cpp2vm19SocketPollingThread7RunLoopEv
vef:_FontUpdateTracker_UntrackText_m1981515690
abg:__ZL64AnalyticsEventTracker_t2285229262_CustomAttributesCacheGeneratorP21CustomAttributesCache
B$d:__ZN5physx11EdgeManager6resizeEj
Qpb:__ZNSt3__213__stable_sortIRN10vector_mapI17ScriptingClassPtrPKN5Unity4TypeENS_4lessIS2_EENS_9allocatorINS_4pairIS2_S6_EEEEE13value_compareENS_11__wrap_iterIPSB_EEEEvT0_SJ_T_NS_15iterator_traitsISJ_E15difference_typeEPNSM_10value_typeEi
n_i:_SimpleCollator_FillSurrogateSortKeyRaw_m725998232
nxk:_List_1_AddEnumerable_m1284696147_gshared
OFh:_IPAddress_Equals_m1823478787
ntf:_Context_CreateNewContext_m3053563976
J3b:__ZN9ShaderLab25SerializedTextureProperty8TransferI24GenerateTypeTreeTransferEEvRT_
xyl:__ZN6il2cpp2gc19AppendOnlyGCHashMapINSt3__24pairIPK14Il2CppAssemblyP11Il2CppClassEEP24Il2CppReflectionAssembly17ReflectionMapHashIS9_ENS2_8equal_toIS9_EEEC2Ev
zjb:__Z18Transfer_BlittableI19StreamedBinaryWriteILb0EELb0EdEvRK29SerializationCommandArgumentsR31RuntimeSerializationCommandInfo
uOd:__ZN5physx2Sc5Scene12removeStaticERNS0_10StaticCoreERNS_6shdfnd11InlineArrayIPKNS0_9ShapeCoreELj64ENS4_19ReflectionAllocatorIS8_EEEEb
eO:__GLOBAL__sub_I_Runtime_Camera_RenderLoops_2_cpp
Tfa:__ZN11NamedObject8TransferI18StreamedBinaryReadILb0EEEEvRT_
_Cg:_InvokableCall_remove_Delegate_m1376110510
xmi:_Hashtable_Clear_m3112193608
_Pj:_UTF8Encoding_InternalGetByteCount_m771565606
ADc:__Z18Transfer_BlittableI8JSONReadLb1EyEvRK29SerializationCommandArgumentsR31RuntimeSerializationCommandInfo
wsk:_List_1_System_Collections_IList_Remove_m3654336679_gshared
G1f:__ZL51GUILayer_t2783472903_CustomAttributesCacheGeneratorP21CustomAttributesCache
Hoa:__ZN9GfxDevice20GetVertexDeclarationERK18VertexChannelsInfoNS_30VertexDeclarationMRUCacheIndexE
rl:_emscripten_glMatrixMode
B7g:_MaskableGraphic_UnityEngine_UI_IClippable_get_gameObject_m1739855597
J2h:_SecurityFrame_get_Assembly_m2874566710
esi:_Guid__ctor_m3562600567_AdjustorThunk
$le:__ZN5physx13GuMeshFactory17createHeightFieldERNS_13PxInputStreamE
DRd:__ZN5physx2Sc10NPhaseCore25createShapeInstancePairLLERNS0_8ShapeSimES3_NS_7PxFlagsINS_10PxPairFlag4EnumEtEE
vJi:_DateTime_System_IConvertible_ToInt16_m3239820399
UJ:__ZN11UnityEngine15CloudWebService14DataDispatcher16PrepareDataBlockERNS0_16SessionContainerE
fGb:__ZN18GfxFramebufferGLES5ClearE13GfxClearFlagsRK10ColorRGBAffib
ISd:__ZThn8_N5physx2Sc19ShapeInstancePairLL12onDeactivateEj
iXg:_ObjectManager_DoFixups_m3038765937
wYj:_UIntPtr_ToString_m984583492_AdjustorThunk
pob:__ZL26Transfer_SimpleNativeClassI18StreamedBinaryReadILb0EE10RectOffsetLb0EEvRK29SerializationCommandArgumentsR31RuntimeSerializationCommandInfo
Rlh:_InternalEnumerator_1_get_Current_m2316281569_gshared
oMb:__ZL12DepthPassJobPN21GfxDeviceAsyncCommand10ArgScratchEPKNS_3ArgE
a2b:__ZNSt3__26vectorIN9ShaderLab20SerializedSubProgram16TextureParameterENS_9allocatorIS3_EEE6assignINS_11__wrap_iterIPS3_EEEENS_9enable_ifIXaasr21__is_forward_iteratorIT_EE5valuesr16is_constructibleIS3_NS_15iterator_traitsISC_E9referenceEEE5valueEvE4typeESC_SC_
ZHg:_MonoBehaviour_IsInvoking_m3285132449
Ryc:__ZN5Unity9rapidjson6WriterI16TempBufferWriterNS0_4UTF8IcEES4_13JSONAllocatorE11WriteDoubleEd
B_c:__ZN9Rigidbody16ApplyConstraintsEv
IRj:_Thread_SetCachedCurrentUICulture_m1729523031
A7a:__ZN14GfxDeviceStats16CopyAllDrawStatsERKS_
aUh:_ClientContext_set_ClientHelloProtocol_m4189379912
zn:FUNCTION_TABLE_iiiiiiiiiiii
kKd:__ZN5physx2Sc17ParticleSystemSim8setFlagsEj
Mqa:__ZN16GraphicsSettingsD0Ev
eQ:__Z12FormatBufferPciPKcz
iYe:__ZNSt3__26__treeINS_12__value_typeIN4core12basic_stringIcNS2_20StringStorageDefaultIcEEEE14CallbackArray3IRKS6_R8JSONReadbEEENS_19__map_value_compareIS6_SD_NS_4lessIS6_EELb1EEE13stl_allocatorISD_L18MemLabelIdentifier6ELi16EEE7destroyEPNS_11__tree_nodeISD_PvEE
n:cttz_i8
wCe:_UNITY_FT_GlyphLoader_Add
_oe:__ZN5physx2Gu15EdgeListBuilder18CreateEdgesToFacesEjPKjPKt
Cad:__ZN5physx11PxMeshQuery5sweepERKNS_6PxVec3EfRKNS_10PxGeometryERKNS_11PxTransformEjPKNS_10PxTriangleERNS_10PxSweepHitENS_7PxFlagsINS_9PxHitFlag4EnumEtEEPKjfb
tql:_RemoteSettings_RemoteSettingsUpdateCompleted_m2057218144
q$e:__ZN9Scripting11UnityEngine10Networking29UnityWebRequestAsyncOperation9InitProxyEv
p1k:_AudioListener_INTERNAL_CALL_ReadExtensionPropertyName_m330480156
XHi:_Convert_ToUInt16_m867476252
om:_emscripten_glViewport
Skc:__Z21GenerateTilingAreaJobP22GenerateTilingAreaInfoj
EUl:__ZN6il2cpp6icalls8mscorlib6System15MonoCustomAttrs17IsDefinedInternalEP12Il2CppObjectP20Il2CppReflectionType
_1d:__ZN5physx6shdfnd5ArrayIPhNS0_19ReflectionAllocatorIS2_EEE8recreateEj
hdl:_SkeletonBone_t4134054672_marshal_pinvoke_back
vca:__ZN9Scripting11UnityEngine10CacheIndex9InitProxyEv
TDe:_cff_parse_font_bbox
q$c:__ZThn28_N14PhysicsManagerD0Ev
Vce:__ZN5physx2Sc27ConstraintProjectionManagerC2Ev
Kbd:__Z14raycast_sphereRKN5physx10PxGeometryERKNS_11PxTransformERKNS_6PxVec3ES8_fNS_7PxFlagsINS_9PxHitFlag4EnumEtEEjPNS_12PxRaycastHitEbPFbRSD_PvESG_
sQa:__ZN14PlayerSettings23VirtualRedirectTransferER18StreamedBinaryReadILb0EE
uoj:__Z85RuntimeInvoker_Void_t1185182177_Int32_t2950945753_Int32_t2950945753_Int32_t2950945753PFvvEPK10MethodInfoPvPS4_
fOi:_Double_System_IConvertible_ToDateTime_m2414543049_AdjustorThunk
zWe:__ZN11UnityEngine15PlatformWrapper16GetVRFieldOfViewEv
H2k:_curtainChangeScene__ctor_m2377265803
EOi:_Double_CompareTo_m3151899116
j1l:__ZN6il2cpp2os5Event5ResetEv
gHe:_tt_name_ascii_from_other
tlg:_TextWriter_Write_m2252948084
Q$k:_ToggleGroup__ctor_m3308114662
KMl:__ZN6il2cpp8metadata15GenericMetadata17InflateParametersEPK13ParameterInfohPK20Il2CppGenericContextb
CZh:_RSAParameters_t1728406613_marshal_pinvoke_back
Hmk:_Array_Sort_TisUILineInfo_t4195266810_m3737783007_gshared
YJg:_PlayableAsset_Internal_CreatePlayable_m2550417712
aOg:_RenderTexture_get_width_m2160921386
wBe:__ZN13dynamic_arrayIN4core17string_with_labelILi35EEELj0EE6insertEPS2_jRKS2_
Z6f:__ZL64GUIUtility_t1868551600_CustomAttributesCacheGenerator_s_SkinModeP21CustomAttributesCache
OPc:__ZN34b2SolveDiscreteIslandBodySleepTask7TaskJobEPS_j
cGe:_otv_LigatureSubst_validate
pyj:__Z50RuntimeInvoker_Ray_t3785851493_Vector3_t3722313464PFvvEPK10MethodInfoPvPS4_
ytb:__Z25SetNeedToPerformRenderingb
NTe:__ZN8JSONRead12TransferPairINSt3__24pairIN4core12basic_stringIcNS3_20StringStorageDefaultIcEEEEN11UnityEngine9Analytics16LimitEventConfigEEEEEvRT_17TransferMetaFlagsPKN5Unity9rapidjson12GenericValueINSG_4UTF8IcEE13JSONAllocatorEE
Xha:__ZN10GameObjectD2Ev
CMb:__ZN14qsort_internal30FindAndMovePivotToLastPositionIP15RODataDepthPassi17ROSorterDepthPassEEvT_S4_T0_T1_
w3d:__ZN5physxL27PxcSweepAnyShapeHeightfieldERKNS_11PxsCCDShapeES2_PKNS_12PxsRigidBodyES5_RKNS_11PxTransformES8_fRNS_6PxVec3ESA_RNS_10PxcNpCacheERNS_18PxcNpThreadContextE
cVb:__ZN12CullingGroup10SendEventsEPK17CullingGroupEventj
z6e:_PointerInputModule__ctor_m3728889932
TFa:__ZThn32_NK8Renderer8GetLayerEv
B_d:__ZN5physx3Scb5SceneD2Ev
Xgj:_Enumerator_System_Collections_IEnumerator_Reset_m2915500989_gshared
YDe:_cff_parse_vsindex
Cti:_Int32_ValidDigit_m1059003769
Sfm:_emscripten_glTexParameterfv__wrapper
oNg:_RectTransform_INTERNAL_get_sizeDelta_m2173368204
p5g:_LayoutGroup_get_rectTransform_m442863741
Vab:__Z18Transfer_BlittableI14SafeBinaryReadLb1E9BoundsIntEvRK29SerializationCommandArgumentsR31RuntimeSerializationCommandInfo
Rfc:__ZN2UI13RectTransform17GetLocalPositionZEv
qbm:b63
oDl:_il2cpp_method_get_param_count
$Y:__ZNK5Unity4Type21FindAllDerivedClassesER13dynamic_arrayIPKS0_Lj0EENS0_17TypeFilterOptionsE
ecc:__ZN10systeminfo19ISOToSystemLanguageERN4core12basic_stringIcNS0_20StringStorageDefaultIcEEEE
qxl:__ZNK15dense_hashtableINSt3__24pairIK10KeyWrapperINS1_IPK12PropertyInfoP11Il2CppClassEEEjEES9_17ReflectionMapHashIS8_EN14dense_hash_mapIS9_jSD_NS9_14EqualsComparerINS0_8equal_toIS8_EEEENS0_9allocatorISB_EEE9SelectKeyESI_SK_E3endEv
uWc:__ZN11Rigidbody2D8TransferI19StreamedBinaryWriteILb0EEEEvRT_
u_c:__Z16GetDynamicsScenev
E_e:__ZN22BaseUnityConnectClient14AppRunningTickEj
cLe:_ps_dimension_done
BXa:__ZN12ScriptMapperD0Ev
IOi:_Double_Parse_m4153729520
SGa:__ZN16LightmapSettings8TransferI14SafeBinaryReadEEvRT_
sAb:__ZN17BufferManagerGLES13ReleaseBufferEP14DataBufferGLES
$Sh:_CipherSuite_Write_m1172814058
pjd:__ZN5physx6shdfnd5ArrayIPvNS0_19ReflectionAllocatorINS_16NpConnectorArrayEEEE15growAndPushBackERKS2_
Ykg:_SynchronizedWriter_Write_m301917713
UQ:__ZN9profiling6MarkerC2EPKc13ProfilerGroupNS0_5FlagsE
LQd:__ZN5physx2Sc5Scene15prepareSimulateEv
xDc:__Z18Transfer_BlittableI8JSONReadLb1EjEvRK29SerializationCommandArgumentsR31RuntimeSerializationCommandInfo
Vkd:__ZN5physx6shdfnd5ArrayIPNS_2Sc11InteractionENS0_19ReflectionAllocatorIS4_EEE8recreateEj
Qtg:_ConstructorBuilder_get_IsCompilerContext_m3364441562
_Bg:_Debug_LogWarning_m3752629331
$ec:__Z13RegisterClassIN2UI13RectTransformEEvPKc
bca:__ZN9Scripting11UnityEngine7Texture9InitProxyEv
u9j:_ReadOnlyCollection_1_System_Collections_Generic_IListU3CTU3E_RemoveAt_m4037795630_gshared
Tsj:__Z117RuntimeInvoker_Void_t1185182177_RuntimeObject_Int32_t2950945753_Int32_t2950945753_Int32_t2950945753_Int32_t2950945753PFvvEPK10MethodInfoPvPS4_
HD:__Z30GetAudioSpatializerDefinitionsR13dynamic_arrayIP29AudioEffectInternalDefinitionLj0EE31UnityAudioEffectDefinitionFlags
k9e:_U3COnFinishSubmitU3Ec__Iterator0_Reset_m3632769946
gq:stackSave
sM:__ZN5Unity9rapidjson15GenericDocumentINS0_4UTF8IcEE13JSONAllocatorNS0_12CrtAllocatorEE6StringEPKcjb
nbf:_ColorTween_get_targetColor_m1724075482_AdjustorThunk
xLe:_ps_dimension_end
Nsc:__Z41Register_UnityEngine_Mesh_Internal_Createv
eMa:__ZN14SpriteRenderer23VirtualRedirectTransferER24GenerateTypeTreeTransfer
IMl:__ZNK15dense_hashtableI10KeyWrapperIP18Il2CppGenericClassES3_N6il2cpp8metadata22Il2CppGenericClassHashEN14dense_hash_setIS3_S6_NS3_14EqualsComparerINS5_25Il2CppGenericClassCompareEEENSt3__29allocatorIS3_EEE8IdentityESA_SD_E12test_deletedERK30dense_hashtable_const_iteratorIS3_S3_S6_SF_SA_SD_E
pNc:__ZNSt3__27__sort3IRN18Overlap2DQueryBase29ColliderHitsByDepthComparitorEPP10Collider2DEEjT0_S7_S7_T_
oil:__ZN6il2cpp2vm5Class14GetNestedTypesEP11Il2CppClassPPv
Tre:__Z63Register_UnityEngine_Physics_INTERNAL_CALL_Internal_RaycastTestv
iDi:_Console_Open_m3077673205
dOk:_X509StoreManager_get_CurrentUser_m4040993045
LWb:__ZN6Camera9SetAspectEf
IVi:_Array_InternalArray__IndexOf_TisDateTime_t3738529785_m2463359116_gshared
Ca:invoke_viiffiii
shm:_emscripten_glBindVertexArray__wrapper
jPl:__ZN6il2cpp6icalls8mscorlib6System4Enum19get_underlying_typeEP20Il2CppReflectionType
TTk:_Parser_IsECMAScript_m674158805
Wia:__ZN9Transform37InitializeTransformHierarchyRecursiveER18TransformHierarchyRii
z9a:__ZN26SinglePassStereoSupportExt23SetupStereoMatrixParamsE21MonoOrStereoscopicEye24BuiltinShaderMatrixParamRK10Matrix4x4f
h6a:__ZN9GfxDevice23CreateAsyncReadbackDataEv
E$e:__ZNK25UnityWebRequestJavaScript16GetUploadedBytesEv
_F:__Z46AudioListener_CUSTOM_GetNumExtensionPropertiesP12Il2CppObject
Jrl:__ZN6il2cpp6icalls8mscorlib6SystemL16CheckMemberMatchI9FieldInfoNS_5utils10functional6FilterINSt3__212basic_stringIcNS8_11char_traitsIcEENS8_9allocatorIcEEEENS5_13VmStringUtils23CaseInsensitiveComparerEEEEEbPKT_PK11Il2CppClassSN_iRKT0_
NYh:_SslClientStream_Finalize_m1251363641
uyj:__Z84RuntimeInvoker_RuntimeObject_RayU26_t3515555043_Single_t1397266774_Int32_t2950945753PFvvEPK10MethodInfoPvPS4_
Iwa:__ZN19ShaderPropertySheet38CopyTextureWithAuxiliaryPropertiesFromERKN9ShaderLab16FastPropertyNameERKS_
VVi:_Array_InternalArray__IndexOf_TisMonoResource_t4103430009_m1351751258_gshared
cRa:__ZN10VRSettings8TransferI19StreamedBinaryWriteILb0EEEEvRT_
QPd:__ZN5physx2Sc9StaticSim21postActor2WorldChangeEv
vni:_FieldAccessException__ctor_m3583219052
$Li:_Decimal_System_IConvertible_ToDouble_m3125524987
cdc:__Z57Register_UnityEngine_Transform_INTERNAL_set_localPositionv
hzb:__ZN13GfxDeviceGLES26SetRandomWriteTargetBufferEi15ComputeBufferID
_Xl:_GC_split_block
Nlk:_Array_Resize_TisUICharInfo_t75501106_m3903846016_gshared
THb:__ZZ23InitPlayerLoopCallbacksvEN49EarlyUpdateResetFrameStatsAfterPresentRegistrator7ForwardEv
Wvd:__ZN5physx6shdfnd4sortIPvNS0_4LessIS2_EENS0_19ReflectionAllocatorINS_2Cm5BlockIhLj256EEEEEEEvPT_jRKT0_RKT1_j
d4l:_poll
e6j:_ReadOnlyCollection_1_System_Collections_IEnumerable_GetEnumerator_m1671097018_gshared
jYj:_UInt64_ToString_m1529093114_AdjustorThunk
zqf:_TypeLibImportClassAttribute__ctor_m2302178978
X_i:_Escape_t3294788190_marshal_pinvoke
L3g:_InputField_OnUpdateSelected_m1118869681
Pme:__ZN5physx20InternalTriangleMesh7releaseEv
b2d:__ZN5physx6shdfnd5ArrayINS_16PxsCCDBlockArrayINS_13PxsCCDOverlapELi128EE9BlockInfoENS0_19ReflectionAllocatorIS5_EEE15growAndPushBackERKS5_
imd:__ZNK5physx7NpShape8getFlagsEv
$Ca:__ZN4crnd12crn_unpacker11unpack_dxt1EPPhjjj
Hzl:__ZN15dense_hashtableINSt3__24pairIK10KeyWrapperIPK10Il2CppTypeEjEES6_N6il2cpp8metadata14Il2CppTypeHashEN14dense_hash_mapIS6_jSB_NS6_14EqualsComparerINSA_26Il2CppTypeEqualityComparerEEENS0_9allocatorIS8_EEE9SelectKeyESF_SH_E14squash_deletedEv
gx:__ZL55__ManagedRegistrationHelperFunction_CoordinateFramePairPv
o6b:__ZNK11ICallString6ToUTF8Ev
rhl:__ZN15dense_hashtableINSt3__24pairIK10KeyWrapperIPK22Il2CppGenericParameterEP11Il2CppClassEES6_N6il2cpp5utils11PointerHashIS4_EEN14dense_hash_mapIS6_S9_SE_NS6_14EqualsComparerINS0_8equal_toIS5_EEEENS0_9allocatorISA_EEE9SelectKeyESJ_SL_E15insert_noresizeERKSA_
wzh:_Transform_1_Invoke_m2468053724_gshared
VI:__ZL60__ManagedRegistrationHelperFunction_ClothSkinningCoefficientPv
DMb:__ZNSt3__211__sift_downIR17ROSorterDepthPassP15RODataDepthPassEEvT0_S5_T_NS_15iterator_traitsIS5_E15difference_typeES5_
Vxa:__ZN18UnityPropertySheet11UnityTexEnvC2Ev
DFd:__ZNK5physx7NpCloth16getContactOffsetEv
uci:_ArgumentException__ctor_m3200406061
OX:__ZN12FileAccessor4ReadEyyPvPy
Iyk:_List_1_set_Capacity_m2777925136_gshared
gpc:__Z21GetSceneHierarchyPathPK6Object
nWb:__ZN13RenderTexture9SetHeightEi
sW:__ZN17PersistentManager25PreallocateObjectThreadedEiNS_9LockFlagsE
NTh:_CipherSuiteCollection_get_IsFixedSize_m3127823890
Crh:_InternalEnumerator_1_System_Collections_IEnumerator_get_Current_m3537550566_gshared
x9g:_Scrollbar_UpdateVisuals_m2492252165
VMk:_PKCS12_get_Keys_m2165478388
kHl:__ZN6il2cpp6icalls8mscorlib6System2IO6MonoIO17GetFileAttributesEP12Il2CppStringPi
T$g:_HMACMD5__ctor_m3008609295
IKi:_DateTime_ToString_m2992030064_AdjustorThunk
_He:_tt_cmap8_char_index
IT:__Z24scripting_class_get_name17ScriptingClassPtr
ZGh:_Oid__ctor_m911618594
n0k:_VerticalLayoutGroup_CalculateLayoutInputHorizontal_m1404590745
VZ:__ZN13RuntimeStaticI15GUIEventManagerLb0EE13StaticDestroyEPv
Kng:_ShortComparer_Compare_m1881262465
Lcb:__Z29Transfer_Blittable_ArrayFieldI14SafeBinaryReadjEvRT_R9ArrayInfoRK23StaticTransferFieldInfo
Je:_emscripten_set_keydown_callback
P7h:_EncoderReplacementFallback__ctor_m1483565116
AMh:_Interpreter_IsWordChar_m2858055765
vmi:_Hashtable_CopyTo_m2905447224
Yba:__ZN9Scripting11UnityEngine29CustomRenderTextureUpdateZone12CleanupProxyEv
WX:__ZN12FileAccessorC2Ev
Nqd:__ZN5physx2Sc15ArticulationSim12applyImpulseERNS0_8BodyCoreERKNS_9PxcFsDataERKNS_6PxVec3ES9_
dGa:__ZNK8Renderer29FlattenPerMaterialCustomPropsER22PerThreadPageAllocatorR10RenderNode
Ehk:_EventFunction_1_Invoke_m2429482587_gshared
Wpl:_CertificateHandler_Dispose_m2100863831
$Wc:__ZN23ColliderTilingExtensionC2Ev
RPa:__ZNK12InputManager22GetTypeVirtualInternalEv
YMc:__ZNSt3__27__sort3IR22InverseDepthComparitorP8DepthHitEEjT0_S5_S5_T_
vgj:_Enumerator_MoveNext_m1177880931_AdjustorThunk
gqd:__ZNK5physx14NpArticulation26getInternalDriveIterationsEv
tPc:__ZN14qsort_internal18QSortSingleJobDataIPN25b2SynchronizeFixturesTask14b2DeferredMoveEiPFbRKS2_S5_EE7SortJobEPS8_
yOg:_SendMouseEvents_SetMouseMoved_m2822596724
B9k:_TextGenerator_Populate_m194003733
Nug:_DerivedType_get_FullName_m1025358827
ZZg:_CryptoConfig_MapNameToOID_m2044758263
U7:__ZL50__ManagedRegistrationHelperFunction_SetupCoroutinePv
Js:__ZN13ConstraintJob23ConstraintComponentDataC2ERKS0_
qgg:__ZL70InputField_t3762917431_CustomAttributesCacheGenerator_m_OnValueChangedP21CustomAttributesCache
$rb:__Z39WriteQueueForTransferSignatureIntoCacheRK31TransferFunctionScriptingTraitsRK24TransferRequestSignature17ScriptingClassPtrR23CachedSerializationDataRb
u8h:_Encoding_get_UTF8UnmarkedUnsafe_m320312322
RRj:_Thread_Thread_free_internal_m333849022
kAc:__Z35Transfer_Blittable_FixedBufferFieldI9JSONWritexEvRK29SerializationCommandArgumentsR31RuntimeSerializationCommandInfo
ePk:_CostDelegate_BeginInvoke_m2828452701
PVe:__ZN22BaseUnityConnectClient30OnEnteringStatePausedOrStoppedEv
RTc:__ZN10ClipperLib7Clipper18SwapPositionsInAELEPNS_5TEdgeES2_
d_j:_Collection_1_ConvertItem_m1556170494_gshared
Ypc:__Z25scripting_raise_exception21ScriptingExceptionPtr
REi:_DateTime_ToUniversalTime_m1945318289
Wii:_ArrayList_ToArray_m3827492363
pdh:_Slider_get_stepSize_m1423227661
eYj:_UInt64_Parse_m819899889
r$h:_SymmetricAlgorithm_set_IV_m3196220308
Iwg:_GenericTypeParameterBuilder_GetHashCode_m852224381
nIi:_Convert_ToUInt32_m1453583008
Boi:_CompareInfo_Compare_m894311506
Bia:__Z24MergeTransformComponentsR9TransformS0_b
Lll:__ZNK15dense_hashtableI10KeyWrapperIPK19Il2CppGenericMethodES4_N6il2cpp8metadata23Il2CppGenericMethodHashEN14dense_hash_setIS4_S7_NS4_14EqualsComparerINS6_26Il2CppGenericMethodCompareEEENSt3__29allocatorIS4_EEE8IdentityESB_SE_E10test_emptyEj
Orh:_InternalEnumerator_1_System_Collections_IEnumerator_get_Current_m3982010935_AdjustorThunk
Nld:__ZThn24_N5physx2Sc20ArticulationJointSimD0Ev
i3e:_EventSystem_UpdateModules_m3643806022
t0c:__ZN14PhysicsManager32AddToTriggerStayStatesIfRequiredEPK9Rigidbody
Icl:_AnimationOffsetPlayable__cctor_m1029460816
Ufd:__ZN5physx14PxsAABBManager12createBPElemEv
ECd:__ZThn12_N5physx7NpShape14onRefCountZeroEv
F8c:__ZL26GeomMTDCallback_ConvexMeshRN5physx6PxVec3ERfRKNS_10PxGeometryERKNS_11PxTransformES5_S8_
mUl:__ZN6il2cpp2vm13ComObjectBase19GetRuntimeClassNameEPP15Il2CppHString__
Hpa:__Z37GetBarycentricCoordinatesForOuterCellPPK8Vector3fRK13dynamic_arrayIS_Lj0EERS0_RK11TetrahedronR8Vector4f
tk:_emscripten_glVertexAttribPointer
Oub:__ZN14PreloadManager26UpdatePreloadingSingleStepENS_21UpdatePreloadingFlagsEi
dch:_ScrollRect_SetLayoutHorizontal_m3078869633
fie:__ZN18ScBeforeSolverTask11runInternalEv
hDi:_Console_OpenStandardInput_m3262421490
MZi:_SimpleCollator__ctor_m1587210019
y8b:__Z57Register_UnityEngine_RectTransform_INTERNAL_set_anchorMinv
uid:__ZL33GeomOverlapCallback_CapsuleConvexRKN5physx10PxGeometryERKNS_11PxTransformES2_S5_PNS_2Gu12TriggerCacheE
eIi:_Convert_ToUInt16_m1480956416
i5:__ZN6prcoreL25inner_stretch_i8_bilinearEPKNS_9InnerInfoE
MWa:__ZL30RegisterFilteredObjectCallbackPP12Il2CppObjectiPv
S8j:_ReadOnlyCollection_1_System_Collections_Generic_IListU3CTU3E_RemoveAt_m3317217538_gshared
h5f:__ZL54AudioSource_t3935305588_CustomAttributesCacheGeneratorP21CustomAttributesCache
cKc:__ZN16PhysicsManager2D19ApplyParticleForcesER13dynamic_arrayI21BatchedColliderResultLj0EE
fTb:__Z30GetScriptableCullingParametersR6CamerabR27ScriptableCullingParameters
pK:__ZN11UnityEngine15CloudWebService16SessionContainer24GetSessionHeaderJsonDataERKN4core12basic_stringIcNS2_20StringStorageDefaultIcEEEERNS2_13StringBuilderE
qug:_DerivedType_GetEvent_m4157575360
lZ:__ZN13RuntimeStaticI21AssetReferenceStorageLb0EE13StaticDestroyEPv
Wme:__ZN5physx20InternalTriangleMesh9loadRTreeERNS_13PxInputStreamEj
N1j:_Collection_1_ConvertItem_m618594517_gshared
yEj:__Z72RuntimeInvoker_Bounds_t2266837910_RuntimeObject_Matrix4x4U26_t3606180965PFvvEPK10MethodInfoPvPS4_
JQl:__ZN6il2cpp6icalls8mscorlib6System9AppDomain22InternalGetProcessGuidEP12Il2CppString
dCe:_cf2_builder_moveTo
SKd:__ZN5physx2Sc18ParticleSystemCore16releaseParticlesEv
Cbd:__ZN5physx2Gu20intersectTriangleBoxERKNS_6shdfnd3aos5Vec3VES5_S5_S5_S5_
Cu:__ZN9Scripting11UnityEngine10Animations16ConstraintSource9InitProxyEv
orc:__Z34Quaternion_CUSTOM_Inverse_InjectedRK11QuaternionfRS_
ihb:__Z18Transfer_BlittableI24GenerateTypeTreeTransferLb1EjEvRK29SerializationCommandArgumentsR31RuntimeSerializationCommandInfo
rCj:__Z103RuntimeInvoker_Boolean_t97287965_Ray_t3785851493_Single_t1397266774_Int32_t2950945753_Int32_t2950945753PFvvEPK10MethodInfoPvPS4_
kfc:__ZNK28RectTransformPropertyBinding9BindValueER6ObjectRKN11UnityEngine9Animation14GenericBindingERNS3_10BoundCurveE
usa:__ZN11ColorRGBA328TransferI14SafeBinaryReadEEvRT_
kEe:_cff_vstore_done
Hte:__ZN5physx6shdfnd5ArrayIPvNS0_19ReflectionAllocatorINS_24NpPtrTableStorageManager8PtrBlockILi4EEEEEE15growAndPushBackERKS2_
Wxj:__Z68RuntimeInvoker_Void_t1185182177_UInt16_t2177724958_SByte_t1669577662PFvvEPK10MethodInfoPvPS4_
Yih:_InternalEnumerator_1_get_Current_m3008260692_AdjustorThunk
q0g:_MACTripleDES_HashFinal_m3613553534
AXj:_UInt64_System_IConvertible_ToChar_m2074245892
fAa:__Z11IsHDRFormat13TextureFormat
cQj:_UTF8Encoding_InternalGetBytes_m1965760031
mg:_emscripten_glClearDepth
fhc:__ZNK8GUILayer22GetTypeVirtualInternalEv
HEa:__ZN14SafeBinaryRead21TransferSTLStyleArrayINSt3__26vectorIN15QualitySettings14QualitySettingENS1_9allocatorIS4_EEEEEEvRT_17TransferMetaFlags
lxh:_KeyCollection__ctor_m2388548663_gshared
LRa:__ZNSt3__26vectorINS_4pairIPKN5Unity4TypeE7Hash128EENS_9allocatorIS7_EEE8__appendEj
kEc:__ZN8JSONRead21TransferSTLStyleArrayI13dynamic_arrayIaLj0EEEEvRT_17TransferMetaFlags
nEe:_cff_font_load
nRl:__GLOBAL__sub_I_LibraryLoader_cpp
Opc:__Z13IsPathCreatedRKN4core12basic_stringIcNS_20StringStorageDefaultIcEEEE
S5d:__ZN5physx35solveContactPreBlock_ConcludeStaticEPKNS_23PxcSolverConstraintDescEjRNS_16PxcSolverContextE
aCg:_Debug_LogWarningFormat_m2535776735
pAa:__ZL22stbir__encode_scanlineP11stbir__infoiPvPfiii
Lpf:_ExternalException__ctor_m2877839282
bxe:__ZN20QuadTreeNodeRenderer13StaticDestroyEPv
lL:__ZN11UnityEngine15CloudWebService20WebRequestRestClient5AbortEv
dSk:_Regex_Matches_m2080913806
$fc:__ZN9Transform12CleanupClassEv
rfg:__ZL57FontData_t746620069_CustomAttributesCacheGenerator_m_FontP21CustomAttributesCache
Jkd:__ZN5physx6shdfnd5ArrayIPvNS0_15InlineAllocatorILj256ENS0_19ReflectionAllocatorINS_2Cm5BlockIS2_Lj32EEEEEEEE15growAndPushBackERKS2_
fhe:__ZN5physx18PxsSolverStartTask13setupDescTaskEv
yBe:_UNITY_FT_Set_Pixel_Sizes
irg:_OperatingSystem_Clone_m1122165140
Vpk:_GameObject_AddComponent_TisRuntimeObject_m3469369570_gshared
a4a:__ZN9GfxDevice33ScheduleComputeBufferJobsInternalEPFvP20ComputeBufferJobDataEPFvRK8JobFenceEPK27ComputeBufferJobInstructionj
i7c:__ZN5physx3Cct13BoxController6resizeEf
Quk:_List_1_RemoveAll_m3165362277_gshared
AUj:_Type_type_is_subtype_of_m1406623598
Y7:__ZL54__ManagedRegistrationHelperFunction_SpriteAtlasManagerPv
Lie:__ZN5physx6shdfnd5ArrayINS_2Cm12DelegateTaskINS_2Sc5SceneEXadL_ZNS5_19updateCCDSinglePassEPNS_10PxBaseTaskEEEEENS0_19ReflectionAllocatorIS8_EEE8recreateEj
DQj:_Thread_get_CurrentThread_m4142136012
Voa:__Z30ProcessDynamicBatchGeometryJobP25DynamicVBOGeometryJobDataj
eNb:__ZNSt3__27__sort4IRNS_6__lessI11CulledLightS2_EEPS2_EEjT0_S6_S6_S6_T_
QAl:__ZN6il2cpp2vm14TypeNameParser26ParseArrayModifierOptionalEv
aV:__Z26scripting_object_get_class18ScriptingObjectPtr
nGl:__ZN6il2cpp6icalls8mscorlib6System10Reflection8Assembly13get_code_baseEP24Il2CppReflectionAssemblyb
ESa:__ZNSt3__26vectorIN4core12basic_stringIcNS1_20StringStorageDefaultIcEEEE13stl_allocatorIS5_L18MemLabelIdentifier13ELi16EEE7reserveEj
Kwd:__ZN5physx34NpShapeGetScRigidObjectFromScbSLOWERKNS_3Scb5ShapeE
f$g:_DSASignatureDeformatter__ctor_m2889130126
dic:__ZNK28MonoBehaviourPropertyBinding15GenerateBindingERKN4core12basic_stringIcNS0_20StringStorageDefaultIcEEEEbRN11UnityEngine9Animation14GenericBindingE
uNg:_RectTransform_INTERNAL_set_pivot_m1160676233
Hzk:_List_1_set_Item_m35836043_gshared
fKh:_X509ChainElementCollection__ctor_m3424079155
f0g:_HMACSHA512__cctor_m4155933671
mPk:_LinkStack_Push_m3081279930
Zvh:_Enumerator_MoveNext_m1107569389_gshared
Bod:__ZNK5physx21PxsBodyTransformVault12getTransformERKNS_11PxsBodyCoreE
rSl:__ZN6il2cpp6icalls8mscorlib6System11Environment15internalGetHomeEv
PGg:_Matrix4x4_GetHashCode_m4034747639_AdjustorThunk
Oof:_ResourceCacheItem_t51292791_marshal_pinvoke_cleanup
Oda:__ZNK5Unity9Component7GetNameEv
kXb:__Z23FindMonoScriptFromClass17ScriptingClassPtr
W8c:__ZN44ConvexVsHeightfieldContactGenerationCallback7onEventEjPj
_xk:_List_1_System_Collections_IList_Remove_m1070694895_gshared
zWk:_LayoutCache__ctor_m3885940174
lIc:__ZNK11b2RopeJoint16GetReactionForceEf
zXj:_UInt64_System_IConvertible_ToByte_m1501504925_AdjustorThunk
n9k:_TextGenerator_Invalidate_m1072346986
xWh:_TlsClientHello_ProcessAsTls1_m2549285167
LMj:__Z74RuntimeInvoker_Boolean_t97287965_UIVertex_t4057497605_UIVertex_t4057497605PFvvEPK10MethodInfoPvPS4_
Y3d:__ZN5physx2Gu19_gjkRelativeRayCastINS0_9TriangleVENS0_8CapsuleVEEEbRT_RT0_RKNS_6shdfnd3aos15PsMatTransformVERKNS9_6FloatVERKNS9_5Vec3VESI_RSD_RSG_SK_f
E7h:_EncoderExceptionFallback_Equals_m2760188920
kpd:__ZN5physx6shdfnd5ArrayIPvNS0_15InlineAllocatorILj256ENS0_19ReflectionAllocatorINS_11NpAggregateEEEEEE15growAndPushBackERKS2_
UUb:__ZNK15LODGroupManager17CalculateLODMasksERK13LODParametersfPhPf
RB:__ZN4FMOD6System7releaseEv
X$d:__ZN5physx6shdfnd8PoolBaseINS_2Sc18TriggerInteractionENS0_19ReflectionAllocatorIS3_EEE15disposeElementsEv
Qfi:_Boolean_CompareTo_m3665076258
z4h:_String_Split_m3580120853
a3i:_PrivateKeyInfo__ctor_m2811023496
rX:__Z18PathToAbsolutePathRKN4core12basic_stringIcNS_20StringStorageDefaultIcEEEE
Whf:_PropertyBuilder_GetCustomAttributes_m2917594003
vXk:_GUILayoutUtility_LayoutFromEditorWindow_m2914699782
jba:__ZN9Scripting11UnityEngine12Experimental10PlayerLoop13PreLateUpdate9InitProxyEv
ete:__ZN5physx28PxcContactCapsuleHeightFieldERKNS_2Gu13GeometryUnionES3_RKNS_11PxTransformES6_RKfRNS_10PxcNpCacheERNS0_13ContactBufferE
XTe:__ZN21UnityAnalyticsManager15ThreadedCleanupEv
S8c:__ZL31PointInConvexPolygon2D_OutCodesPKfjffffRh
Vza:__ZL13BlitImageImplR14ImageReferenceiiRKS_NS_10ColorSpaceENS_8BlitModeEb
bIa:__Z14resize_trimmedINSt3__26vectorI13dynamic_arrayI8Vector2fLj0EENS0_9allocatorIS4_EEEEEvRT_j
Dkk:_Array_InternalArray__set_Item_TisColor32_t2600501292_m1891325855_gshared
Ypk:_GameObject_GetComponentInChildren_TisRuntimeObject_m1310240902_gshared
Ore:__ZN9Rigidbody12MoveRotationERK11Quaternionf
q_f:__ZL69PersistentCall_t3407714124_CustomAttributesCacheGenerator_m_ArgumentsP21CustomAttributesCache
$Aa:__ZN29SerializeTraitsForStringTypesIN4core12basic_stringIcNS0_20StringStorageDefaultIcEEEEE8TransferI24GenerateTypeTreeTransferEEvRS4_RT_
Hz:__ZN12AudioManager29ShutdownReinitializeAndReloadEv
Xsa:__ZN16ReflectionProbes28GetMinBakedCubemapResolutionEv
Vje:__ZN5physx2Cm12DelegateTaskINS_2Sc5SceneEXadL_ZNS3_15postNarrowPhaseEPNS_10PxBaseTaskEEEE11runInternalEv
Mwe:__Z20ConvertContactToMonoP9Collision
ZTl:__GLOBAL__sub_I_String_cpp
ohl:__ZN15dense_hashtableINSt3__24pairIK10KeyWrapperIPK22Il2CppGenericParameterEP11Il2CppClassEES6_N6il2cpp5utils11PointerHashIS4_EEN14dense_hash_mapIS6_S9_SE_NS6_14EqualsComparerINS0_8equal_toIS5_EEEENS0_9allocatorISA_EEE9SelectKeyESJ_SL_E6insertERKSA_
U3g:_InputField_GenerateCaret_m1459647218
NMk:_X509CertificateEnumerator__ctor_m85694331
mAb:__ZN14DataBufferGLES16RecreateWithDataEjPKv
kea:__Z29GetGlobalAllowNameConversionsv
R8c:__ZL17transformVerticesRfS_S_S_PfjPKN5physx6PxVec3EPKhRKNS1_7PxMat33E
jte:__ZNK5physx2Gu15HeightFieldUtil31getFaceIndexAtShapePointNoTest2Ejff
Hik:_Array_InternalArray__Insert_TisTableRange_t3332867892_m558285859_gshared
E0c:__ZNK12PhysXRaycast20FindParticleOverlapsER13dynamic_arrayI15BatchedOverlapsLj0EEPP8Colliderj
aYb:__ZN8Material8SetColorEN9ShaderLab16FastPropertyNameERK10ColorRGBAf
bij:_Enumerator_System_Collections_IEnumerator_Reset_m3754523291_gshared
wYe:__ZN11UnityEngine7Connect20RemoteConfigSettings19ConfigUpdatedStaticEPS1_bbi
XJh:_X509CertificateEnumerator__ctor_m943731472
a$h:_SHA512Managed_processLength_m2162821715
tLg:_RangeInt_get_end_m4128831787
Y0d:__ZNK5physx2Sq10AABBPruner5sweepERKNS0_9ShapeDataERKNS_6PxVec3ERfRNS0_14PrunerCallbackE
p7l:dynCall_iiifiii
g_e:__Z25GetUnityConnectModuleSpecv
Twk:_List_1_set_Item_m2082115010_gshared
l8h:_Encoding_GetBytes_m3735967069
zSc:__ZN23ColliderTilingExtension5ResetEv
EDb:__ZN14GfxContextGLES43AddRenderSurfaceToDeferredFBOInvalidateListEPK17RenderSurfaceGLES
C2d:__ZN5physx17PxsCCDAdvanceTask11runInternalEv
kga:__ZN11NamedObject23VirtualRedirectTransferER14SafeBinaryRead
jeh:_Text_get_resizeTextMinSize_m1002355407
mBe:__ZNSt3__26vectorIN20TextRenderingPrivate8FontImpl13CharacterInfoE13stl_allocatorIS3_L18MemLabelIdentifier1ELi16EEE6insertENS_11__wrap_iterIPKS3_EERS9_
Yn:FUNCTION_TABLE_vifiiiiiiiiiiiii
htl:__ZN6il2cpp2vm7Runtime15InvokeWithThrowEPK10MethodInfoPvPS5_
aYc:__ZN10Effector2D10EndContactEP9b2Contact
yTl:__ZN6il2cpp5utils11StringUtils11Utf16ToUtf8ERKNSt3__212basic_stringIDsNS2_11char_traitsIDsEENS2_9allocatorIDsEEEE
rQh:_MD4Managed_Decode_m4273685594
Bdd:__ZN5physx3Cct26CharacterControllerManagerD2Ev
SVa:__ZN21LightProbeProxyVolume18HasHardwareSupportEv
qQb:__ZN26LightProbeProxyVolumeCacheC2ER13BatchRendererR15RenderLoopStats
Tvi:_IntPtr__ctor_m620280096
h5:__ZN6prcoreL31inner_stretch_argb8888_bilinearEPKNS_9InnerInfoE
nlb:__Z18Transfer_BlittableI18StreamedBinaryReadILb1EELb1E8BitFieldEvRK29SerializationCommandArgumentsR31RuntimeSerializationCommandInfo
EIe:_UNITY_FT_Outline_Decompose
Tui:_Int64_System_IConvertible_ToChar_m1509243576_AdjustorThunk
KEb:__ZNK12GraphicsCaps24GetFallbackSampledFormatE14GraphicsFormat
ZLk:_GeneralNames_get_IPAddresses_m4242915644
jRg:_UnitySynchronizationContext_Exec_m3359802660
qYl:_GC_init_size_map
d2d:__ZN5physx6shdfnd8internal8HashBaseINS0_4PairIKNS3_IPKNS_12PxsRigidCoreEPKNS_12PxsShapeCoreEEEPNS_11PxsCCDShapeEEESA_NS0_4HashISA_EENS1_11HashMapBaseISA_SD_SG_NS0_9AllocatorEE6GetKeyESI_Lb1EE15reserveInternalEj
ola:__Z20scripting_object_new17ScriptingClassPtr
B8l:dynCall_iiiiifi
ida:__ZN9Scripting5Unity11Collections39NativeMatchesParallelForLengthAttribute12CleanupProxyEv
n3i:_KeyGeneratedEventHandler_Invoke_m2527485594
LYd:__ZN5physx2Sc5Scene21setDominanceGroupPairEhhRKNS_20PxDominanceGroupPairE
LLi:_Decimal__ctor_m1925875020_AdjustorThunk
Oba:__ZN9Scripting11UnityEngine6Events14UnityEventBase12CleanupProxyEv
P:Math_exp
Ozg:_Vector3_Min_m1803158933
Hp:FUNCTION_TABLE_iiifi
dPl:__ZN6il2cpp2os5posix13PosixAutoLockD2Ev
bXc:__ZN13BoxCollider2D15InitializeClassEv
BYk:_SymmetricTransform_OFB_m3690147804
RBe:_cff_get_advances
vrb:__ZN13MonoBehaviour9SetScriptERK4PPtrI10MonoScriptE18ScriptingObjectPtr
Cal:_RaycastHit2D_get_collider_m1549426026
XHh:_X500DistinguishedName_GetSeparator_m1336760642
kQd:__ZN5physx7NpScene12loadFromDescERKNS_11PxSceneDescE
m$a:__ZNK10FileSystem16LastErrorMessageEv
Mjk:_Array_InternalArray__Insert_TisVector3_t3722313464_m3862657277_gshared
xIa:__ZN15SerializeTraitsI13dynamic_arrayI12SpriteVertexLj0EEE19ResizeSTLStyleArrayERS2_i
J1h:_SecurityException__ctor_m1631242336
pjl:__ZN15dense_hashtableINSt3__24pairIK10KeyWrapperIPK11Il2CppClassEPKcEES6_N6il2cpp5utils11PointerHashIS3_EEN14dense_hash_mapIS6_S9_SE_NS6_14EqualsComparerINS0_8equal_toIS5_EEEENS0_9allocatorISA_EEE9SelectKeyESJ_SL_E14squash_deletedEv
j4e:_EventSystem_Update_m1662072334
Goc:__ZN11TimeManager16HasFixedTimeStepEv
O0e:__ZN22UnityWebRequestManager10InitializeEv
ATa:__ZNSt3__26__treeINS_12__value_typeIN4core12basic_stringIcNS2_20StringStorageDefaultIcEEEE4PPtrI6ObjectEEENS_19__map_value_compareIS6_SA_NS_4lessIS6_EELb1EEE13stl_allocatorISA_L18MemLabelIdentifier52ELi16EEE15__emplace_multiIJRNS_4pairIS6_S9_EEEEENS_15__tree_iteratorISA_PNS_11__tree_nodeISA_PvEEiEEDpOT_
pfb:__ZL26Transfer_SimpleNativeClassI17RemapPPtrTransfer8GradientLb1EEvRK29SerializationCommandArgumentsR31RuntimeSerializationCommandInfo
N3e:_RaycasterManager_RemoveRaycasters_m3057093063
M6b:__ZN12CachedWriter9InitWriteER15CacheWriterBase
Smc:__Z21UnsignedInt64ToStringy
I8g:_GetRaycastNonAllocCallback_BeginInvoke_m3984885848
oQk:_PatternCompiler_BeginLink_m1295557963
JYd:__ZN5physx14PxsAABBManager15createAggregateEPvb
CTk:_Group_GetAnchorInfo_m3730312864
Ffg:__ZL50Graphic_t1660335611_CustomAttributesCacheGeneratorP21CustomAttributesCache
Oxh:_KeyCollection_System_Collections_Generic_ICollectionU3CTKeyU3E_Add_m454648927_gshared
TTj:_TimeSpan_op_LessThanOrEqual_m300470010
k4f:__ZL139AnimatorOverrideController_t3582062219_CustomAttributesCacheGenerator_AnimatorOverrideController_OnInvalidateOverrideController_m3380737075P21CustomAttributesCache
ndc:__Z66Register_UnityEngine_Transform_INTERNAL_CALL_InverseTransformPointv
H$:__ZZN15DirectorManager15InitializeClassEvEN41FixedUpdateDirectorFixedUpdateRegistrator7ForwardEv
Ozi:_MemoryStream_get_Position_m3733941202
gb:invoke_iiiiifiiiif
p$b:__ZL10KeyHandleriPK23EmscriptenKeyboardEventPv
bhm:_glLinkProgram__wrapper
GZa:__ZN18ScriptingArguments8AddInt64Ex
s4:__ZN6prcoreL12RemapGenericI17TexFormatARGB888815TexFormatBGR888EEvPKNS_9InnerInfoE
t9a:__ZN26SinglePassStereoSupportExt19SaveStereoConstantsEv
h1:__ZNSt3__26vectorIP10MemoryPool13stl_allocatorIS2_L18MemLabelIdentifier76ELi16EEE21__push_back_slow_pathIRKS2_EEvOT_
Fri:_TextInfo_get_ListSeparator_m1628160079
Ech:_Selectable_OnCanvasGroupChanged_m472903475
MQj:_EventWaitHandle_Reset_m3348053200
e_e:__ZN28UnityConnectScriptingClasses23CallSessionStateChangedEixxbP21ScriptingExceptionPtr
zCd:__ZN5physx7NpShape8requiresERNS_23PxProcessPxBaseCallbackE
wJl:__ZN6il2cpp6icalls8mscorlib6System13Globalization11CultureInfo35construct_internal_locale_from_nameEP17Il2CppCultureInfoP12Il2CppString
xhb:__ZL22Transfer_ManagedObjectI24GenerateTypeTreeTransferLb1EEvRK29SerializationCommandArgumentsR31RuntimeSerializationCommandInfo
DKb:__ZN15RenderNodeQueueC2E10MemLabelId
Kof:_ResourceEnumerator_FillCache_m1661715061
_Kf:__ZL72SecuritySafeCriticalAttribute_t3505979402_CustomAttributesCacheGeneratorP21CustomAttributesCache
Dk:_emscripten_set_main_loop_timing
Czg:_Bounds_get_min_m3755135869
ZHi:_Convert_ToUInt16_m3523269149
CBb:__ZN14DataBufferGLES12RecordRenderEv
i5e:_ExecuteEvents_get_endDragHandler_m2879610446
a9d:__ZNK5physx20SingleAABBUpdateTask7getNameEv
GXb:__ZN14ImageReference10FlipImageYEv
eMh:_Interpreter_GetLastDefined_m4107643411
Ayi:_FileStream_RefillBuffer_m4186945278
Vja:__ZN21ScalableBufferManager20GetHeightScaleFactorEv
Oy:__ZN4FMOD3DSP9setBypassEb
g$b:__Z19NormalizeWheelInputf
iff:_Graphic_DoMeshGeneration_m3548487693
iw:__ZN11KeyframeTplIfE8TransferI14SafeBinaryReadEEvRT_
BRk:_Repetition__ctor_m1672362629
yFc:__Z29Transfer_Blittable_ArrayFieldI8JSONReadhEvRT_R9ArrayInfoRK23StaticTransferFieldInfo
N2h:_SecurityFrame_ToString_m339310712_AdjustorThunk
Jif:_TypeBuilder_create_runtime_class_m2581270900
g6b:__ZN11MonoManager25GetImageFromAssemblyIndexEi
Tih:_InternalEnumerator_1_get_Current_m3008260692_gshared
ZGd:__ZN5physx2Sc9ClothCore17addCollisionPlaneERKNS_21PxClothCollisionPlaneE
Xla:__ZN22RenderingCommandBuffer20CleanupCommandBufferEv
QFi:_Decimal_op_Implicit_m2299919277
mAc:__Z18Transfer_BlittableI9JSONWriteLb1EtEvRK29SerializationCommandArgumentsR31RuntimeSerializationCommandInfo
Hlg:_UnexceptionalStreamReader_ReadToEnd_m920589220
FJi:_DateTime_System_IConvertible_ToType_m1242864300
Y4h:_String_IndexOf_m1298810678
Yk:___syscall85
pRe:__ZN2UI14CanvasRenderer18UpdateTRSHierarchyEb
ime:__ZNK5physx13PxHeightField8isKindOfEPKc
yge:__ZN5physx23correlatePatchesCoulombERNS_27PxcCorrelationBufferCoulombERKNS_2Gu13ContactBufferERKNS_11PxTransformES8_fjjj
IKb:__ZNSt3__26__sortIRPFbP10GUIElementS2_EPS2_EEvT0_S7_T_
eug:_ConstructorBuilder_GetILGenerator_m1750792206
k6h:_EncoderFallback_get_ReplacementFallback_m818398284
jRl:__ZN6il2cpp2os6Thread19DetachCurrentThreadEv
E4e:_EventTrigger_OnBeginDrag_m4203438710
Khl:__ZN6il2cpp2vmL21SetupInterfacesLockedEP11Il2CppClassRKNS_2os12FastAutoLockE
Z9a:__ZN11MonoManager23VirtualRedirectTransferER24GenerateTypeTreeTransfer
sTj:_TimeSpan_CompareTo_m3633415627_AdjustorThunk
ABg:_CullingGroup_Dispose_m782801025
hcd:__ZN16ControllerFilter9preFilterERKN5physx12PxFilterDataEPKNS0_7PxShapeEPKNS0_12PxRigidActorERNS0_7PxFlagsINS0_9PxHitFlag4EnumEtEE
lK:__ZN11UnityEngine15CloudWebService14DataDispatcher15SetupWebRequestEv
sHk:_Collection_1_ConvertItem_m492501417_gshared
pXe:__ZN11UnityEngine15PlatformWrapper13GetShaderCapsEv
Y7d:__ZN16MBPOS_TmpBuffers16allocateSleepingEjj
qwg:_GenericTypeParameterBuilder_IsDefined_m98179866
k2i:_KeyPairPersistence_get_MachinePath_m3812267291
YCi:_Stack_Peek_m2216191248
sJi:_DateTime_System_IConvertible_ToDecimal_m1044850612_AdjustorThunk
xhc:__ZN21FixedBehaviourManager6UpdateEv
Gcc:__ZN9Transform9SetParentEPS_NS_15SetParentOptionE
eoa:__ZN19ShaderPropertySheet8SetFloatEN9ShaderLab16FastPropertyNameEfNS_8SetFlagsE
Del:_Physics_Raycast_m952690504
oUa:__ZN19RuntimeSceneManager24BeginIntegrateMainThreadEP10UnityScene
hqd:__ZN5physx14NpArticulation26setExternalDriveIterationsEj
s3c:__ZN16RayRTreeCallbackILi0ELb0EED0Ev
ude:__ZN5physx20PxsParticleSystemSim23scheduleCollisionUpdateERNS_10PxBaseTaskE
hSl:__ZNSt3__2plIcNS_11char_traitsIcEENS_9allocatorIcEEEENS_12basic_stringIT_T0_T1_EERKS9_S6_
Fkg:_StringReader_CheckObjectDisposedException_m3796163530
PWj:_UInt32_System_IConvertible_ToInt16_m1659441601
w2b:__ZN9ShaderLab20SerializedSubProgramaSERKS0_
K6l:_roundf
Bgi:_Byte_System_IConvertible_ToSingle_m324484566_AdjustorThunk
ODi:_Decimal_op_Explicit_m2848387298
Iej:_KeyValuePair_2_ToString_m1238786018_gshared
Lhl:__ZN6il2cpp2vmL24SetupTypeHierarchyLockedEP11Il2CppClassRKNS_2os12FastAutoLockE
q$b:__ZL11TextHandleriPK23EmscriptenKeyboardEventPv
$Pb:__Z20CalculateLightMatrixRK15SharedLightDataP10Matrix4x4f
AAe:_destroy_face
RRg:_Vector3__ctor_m1719387948
Zcm:_glBlendEquationSeparate__wrapper
PZl:__ZN6il2cpp6icalls8mscorlib6System8Security12Cryptography24RNGCryptoServiceProvider13RngInitializeEP11Il2CppArray
zSf:__ZL68UsedByNativeCodeAttribute_t1703770351_CustomAttributesCacheGeneratorP21CustomAttributesCache
udd:__ZN5physx3Cct26CharacterControllerManager21createObstacleContextEv
HJi:_DateTimeUtils_ToString_m1782212840
Rqg:_NumberFormatter_NumberToString_m3906556024
omb:__Z19TransferField_ArrayI18StreamedBinaryReadILb1EE27Converter_SimpleNativeClassI17AnimationCurveTplIfEEEvRK23StaticTransferFieldInfoR31RuntimeSerializationCommandInfoRT0_
BXc:__ZN7b2World18SetContactListenerEP17b2ContactListener
UBb:__ZN18GfxFramebufferGLES22MakeCurrentFramebufferENS_7BuiltinE
wSd:__ZN5physx6shdfnd5ArrayIPNS_2Sc19ShapeInstancePairLLENS0_19ReflectionAllocatorIS4_EEE15growAndPushBackERKS4_
Tra:__ZN12CachedReader4ReadEPvj
qCe:_cf2_blues_init
vud:__ZN5physx2Sc8BodyCore24clearSpatialAccelerationEbb
A9f:__ZL49Canvas_t3310196443_CustomAttributesCacheGeneratorP21CustomAttributesCache
N$k:_Toggle_OnPointerClick_m3526893169
mPb:__Z24CalculateLightShadowFadeRK6CamerafffR8Vector4f
ST:__ZN19RuntimeSceneManagerD2Ev
Wni:_CCGregorianCalendar_GetMonth_m1547203696
BL:__ZN11UnityEngine15CloudWebService25WebRequestDownloadHandler17OnCompleteContentEv
CAa:__ZN6prcore17GetIntegerBlitterE13TextureFormatS0_N14ImageReference8BlitModeE
RXl:_GC_print_block_descr
pSd:__ZN5physx10PxsContext20createContactManagerERKNS_24PxvManagerDescRigidRigidEPNS_18PxsMaterialManagerE
wVc:__ZN13BoxCollider2DD0Ev
O7:__ZL51__ManagedRegistrationHelperFunction_ResourceRequestPv
qkd:__ZN5physx2Sc5Scene31removeActiveBreakableConstraintEPNS0_13ConstraintSimE
CWi:_Array_LastIndexOf_TisRuntimeObject_m1677937501_gshared
kG:__ZN11AudioSource18IsPlayingScriptingEv
c2i:_KeyBuilder_IV_m2230195376
MIc:__ZNK12b2WheelJoint10GetAnchorAEv
MWd:__ZN5physx6shdfnd5ArrayINS_12PxActorShapeENS0_19ReflectionAllocatorIS2_EEE15growAndPushBackERKS2_
a1a:__ZN25MultiBlocksMemoryFileData17AdjustBlocksCountEj
zGl:__ZNSt3__214__split_bufferIN6il2cpp2vm22EmbeddedResourceRecordERNS_9allocatorIS3_EEED2Ev
Hye:__ZN13TextRendering4Font8TransferI24GenerateTypeTreeTransferEEvRT_
$8b:__Z27CullingGroup_CUSTOM_DisposeP12Il2CppObject
dzd:__ZN5physx2Sc14ConstraintCore8setFlagsENS_7PxFlagsINS_16PxConstraintFlag4EnumEtEE
en:_glStencilMask
JRl:__ZN6il2cpp2os10ThreadImpl16GetCurrentThreadEv
ele:__ZNK5physx2Sc15ClothFabricCore20getNbParticleIndicesEv
i$b:__ZN15GUIEventManager10QueueEventERK10InputEvent
Dpl:_AnalyticsEvent_OnValidationFailed_m2609604624
I5f:__ZL62EventType_t3528516131_CustomAttributesCacheGenerator_mouseMoveP21CustomAttributesCache
tpf:_DecimalConstantAttribute__ctor_m3583301917
rXl:_GC_push_conditional_with_exclusions
Ivf:_MethodCallDictionary__ctor_m2167303393
QJe:_Compute_Point_Displacement
Bgk:__ZN30GenericInterfaceActionInvoker4IP12Il2CppObjectS1_S1_S1_E6InvokeEPK10MethodInfoS1_S1_S1_S1_S1_
VMa:__Z31DrawSpriteDeformedFromNodeQueueRK15RenderNodeQueuej16VertexInputMasksi
rVk:_UriParser_InitializeAndValidate_m2008117311
XWl:_GC_make_disappearing_links_disappear
Q3l:_strrchr
Ijd:__ZN5physx2Sc7BodySim6wakeUpEv
r8e:_UIBehaviour_IsDestroyed_m3033055982
fSd:__ZN5physx6shdfnd8PoolBaseINS_2Gu30LargePersistentContactManifoldENS0_19ReflectionAllocatorIS3_EEE17releaseEmptySlabsEv
dkd:__ZN5physx2Sc21ConstraintInteraction7destroyEv
t2g:_InputField_get_readOnly_m3111985574
ita:__ZN14RenderSettings27UpdateIndirectSpecularColorEv
RYf:__ZL59RectOffset_t1369453676_CustomAttributesCacheGenerator_m_PtrP21CustomAttributesCache
UQa:__ZN14PlayerSettings8TransferI18StreamedBinaryReadILb0EEEEvRT_
$rl:__ZN6il2cpp6icalls8mscorlib6System8MonoType16GetMethodsByNameEP20Il2CppReflectionTypeP12Il2CppStringibS5_
LTd:__ZNK5physx7NpScene16getNbConstraintsEv
IFd:__ZN5physx7NpCloth14setWakeCounterEf
vIk:_RijndaelTransform__cctor_m2439033240
$vb:__ZNSt3__27__sort3IRNS_4lessIN22BuiltinResourceManager8ResourceEEEPS3_EEjT0_S7_S7_T_
kLe:_ps_hints_t2mask
WRi:_Array_InternalArray__ICollection_Remove_TisMonoResource_t4103430009_m238733686_gshared
zdh:_Slider_Set_m1476104429
Wgf:_Image_set_fillClockwise_m2210525152
JOa:__ZN10BlendShape8TransferI19StreamedBinaryWriteILb0EEEEvRT_
bwe:__ZN14PhysicsManagerC2E10MemLabelId18ObjectCreationMode
ZIg:_PlayerConnection_DisconnectedCallback_m1697017309
JPa:__Z19GetTimeSinceStartupv
uhf:_Image_AddQuad_m2161647989
Rhj:_Enumerator_System_Collections_IEnumerator_Reset_m2953002685_gshared
GKe:_TT_Load_Composite_Glyph
HEi:_DateTime_FromTicks_m4059645178
Ft:__ZL51__ManagedRegistrationHelperFunction_ScaleConstraintPv
Swa:__ZN9ShaderLab11shaderprops9GetTexEnvEPK19ShaderPropertySheetS3_NS_16FastPropertyNameE16TextureDimensionb
rXk:_GUILayoutGroup_CalcHeight_m1669391299
yNb:__ZN29RenderNodeQueuePrepareContextC2Ev
aDl:_il2cpp_gc_disable
F3b:__ZN9ShaderLab20SerializedSubProgram16TextureParameter8TransferI24GenerateTypeTreeTransferEEvRT_
oda:__ZN9Scripting5Unity11Collections8LowLevel6Unsafe29NativeSetThreadIndexAttribute12CleanupProxyEv
h$g:_DSASignatureDeformatter_SetKey_m2999549245
n_l:__ZN6il2cpp2os11MutexHandle4WaitEb
G3a:__ZN9GfxDevice19SaveStereoConstantsEv
m_l:__ZN6il2cpp2os11MutexHandle4WaitEj
k9b:__ZL34GetComponentsImplementationRecurseILb1ELi1ELi1EEbR10GameObjectbRK17CompareParametersRK39GetComponentsImplementation_ReturnValue
Ooj:__Z114RuntimeInvoker_Boolean_t97287965_RuntimeObject_RuntimeObject_Int32_t2950945753_Int32_t2950945753_Int32_t2950945753PFvvEPK10MethodInfoPvPS4_
Atg:_AssemblyBuilder_GetTypes_m3415680380
G3:__ZN6prcoreL17RemapGenericFloatI15TexFormatRGHalf18TexFormatARGBFloatEEvPKNS_9InnerInfoE
Wtb:__Z18SimulateMouseInputi
uJb:__ZN13RenderManager23AddRemoveCamerasDelayedEv
$Te:__ZN11UnityEngine9Analytics15AnalyticsConfigC2Ev
rrg:_OverflowException__ctor_m4029085969
cfi:_BitConverter__cctor_m3841343255
vDi:_Decimal_Compare_m3062820418
sNh:_IntervalCollection_GetMetaCollection_m4029522214
ure:__ZNK5Unity5Joint16GetCurrentForcesER8Vector3fS2_
z4e:_EventTrigger_OnDeselect_m1919608102
I9k:_TextGenerator_get_characterCount_m864136654
YIl:__ZN6il2cpp2vm8Liveness3EndEPv
mWb:__ZN13RenderTexture8SetWidthEi
qpk:_Array_InternalArray__get_Item_TisSingle_t1397266774_m1672589487_gshared
IKe:_UNITY_FT_GlyphLoader_CheckSubGlyphs
vFk:_Collection_1_System_Collections_ICollection_CopyTo_m1516601228_gshared
_Z:__ZN23DefaultMeshVertexFormatC2E18VertexChannelsInfo
Ssi:_Int16_System_IConvertible_ToDouble_m1661805412
IBd:__ZNK5physx9NpFactory11getNbShapesEv
JEc:__ZN8JSONRead21TransferSTLStyleArrayI13dynamic_arrayI5RectTIiELj0EEEEvRT_17TransferMetaFlags
GR:__ZN9ShaderLab16FastPropertyName4InitEPKc
mwa:__ZN6ObjectC2E10MemLabelId18ObjectCreationMode
ao:FUNCTION_TABLE_iiiii
k$f:__ZL56PlayableGraph_t3515989261_CustomAttributesCacheGeneratorP21CustomAttributesCache
Imh:_InternalEnumerator_1_get_Current_m3911557813_AdjustorThunk
UWe:__ZN11UnityEngine15PlatformWrapper19GetPhysicalMemoryMBEv
ghi:_Char_System_IConvertible_ToByte_m2347554595_AdjustorThunk
Lua:__ZN13RenderTexture9SetMipMapEb
sHc:__ZN9Scripting11UnityEngine14ContactPoint2D9InitProxyEv
q6h:_String_CreateString_m860434552
g0:__Z18GetDirectorManagerv
Iqh:_InternalEnumerator_1_System_Collections_IEnumerator_get_Current_m2649471526_AdjustorThunk
xcc:__Z38Transform_CUSTOM_INTERNAL_get_rotationP12Il2CppObjectP11Quaternionf
z2f:__ZL99SceneManager_t2787271929_CustomAttributesCacheGenerator_SceneManager_LoadScene_m2298600132____mode1P21CustomAttributesCache
iFl:__ZNK15dense_hashtableINSt3__24pairIK10KeyWrapperIP11Il2CppClassES4_EES5_N6il2cpp8metadata16SZArrayClassHashEN14dense_hash_mapIS5_S4_SA_NS5_14EqualsComparerINS9_19SZArrayClassCompareEEENS0_9allocatorIS7_EEE9SelectKeyESE_SG_E3endEv
Kzj:__Z73RuntimeInvoker_Single_t1397266774_Vector2_t2156229523_Vector2_t2156229523PFvvEPK10MethodInfoPvPS4_
bwl:__ZNK15dense_hashtableINSt3__24pairIK10KeyWrapperINS1_IPK10MethodInfoP11Il2CppClassEEEjEES9_17ReflectionMapHashIS8_EN14dense_hash_mapIS9_jSD_NS9_14EqualsComparerINS0_8equal_toIS8_EEEENS0_9allocatorISB_EEE9SelectKeyESI_SK_E5beginEv
nAb:__ZN7ApiGLES19UploadBufferSubDataEjN2gl12BufferTargetEllPKv
Pe:_glFramebufferTextureLayer
O1d:__ZN5physx2Sc5Scene17createClothSolverEv
A2:__ZNSt3__216__rotate_forwardINS_11__wrap_iterIPN4core12basic_stringIcNS2_20StringStorageDefaultIcEEEEEEEET_S9_S9_S9_
ARg:_Vector2_GetHashCode_m3916089713
Iai:_SmallXmlParserException__ctor_m1976648878
Nog:_MulticastDelegate_Equals_m2502840627
v$h:_SymmetricAlgorithm_set_KeySize_m3805756466
Kue:__ZThn116_N5physx7profile8ZoneImplINS_28PxProfileNameProviderForwardEE12removeClientERNS_19PxProfileZoneClientE
l7d:__ZN15MBP_PairManager17removeMarkedPairsEPK10MBP_ObjectPN5physx16PxsBroadPhaseMBPERK8BitArrayS8_
Fgi:_Byte_System_IConvertible_ToUInt32_m1049546902_AdjustorThunk
Kxj:__Z53RuntimeInvoker_Double_t594665363_Interval_t1802865632PFvvEPK10MethodInfoPvPS4_
jwb:__Z21InitializeBatchedJobsv
rbl:_CanvasGroup_get_blocksRaycasts_m1805542303
d_h:_SHA1Internal_ProcessBlock_m1991889327
pcb:__Z19TransferField_ArrayI14SafeBinaryRead27Converter_SimpleNativeClassI8GUIStyleEEvRK23StaticTransferFieldInfoR31RuntimeSerializationCommandInfoRT0_
kqb:__ZN9TextAsset23VirtualRedirectTransferER19StreamedBinaryWriteILb0EE
cmk:_Array_Sort_TisRuntimeObject_TisRuntimeObject_m1685639929_gshared
ASj:_TimerCallback_Invoke_m1938221087
Dsa:__ZN14RenderSettings5ResetEv
A6b:__ZN6Sprite9BindAtlasERK4PPtrI11SpriteAtlasE
gzc:__ZN5Unity9rapidjson12GenericValueINS0_4UTF8IcEE13JSONAllocatorE10FindMemberIS4_EENS0_21GenericMemberIteratorILb0ES3_S4_EERKNS1_IS3_T_EE
jBd:__ZN5physx9NpPhysics33unregisterDeletionListenerObjectsERNS_18PxDeletionListenerEPKPKNS_6PxBaseEj
Emh:_InternalEnumerator_1_System_Collections_IEnumerator_get_Current_m3892960115_AdjustorThunk
Y5b:__ZN9ShaderLabL18AddPropertyToArrayERK19ShaderPropertySheetR13dynamic_arrayIiLj0EERKNS_8FloatValE
GHd:__ZNK5physx2Sc9ClothCore22getAngularInertiaScaleEv
Yii:_ArrayList_Clone_m2682741233
N$g:_HMAC_HashCore_m3684104066
h_e:__Z13RegisterClassI20UnityConnectSettingsEvPKc
bbk:__ZN28GenericInterfaceFuncInvoker2Ii20UIVertex_t4057497605S0_E6InvokeEPK10MethodInfoP12Il2CppObjectS0_S0_
xyc:__ZN5Unity9rapidjson13GenericReaderINS0_4UTF8IcEES3_13JSONAllocatorE11ParseNumberILj1ENS0_25GenericInsituStringStreamIS3_EENS0_15GenericDocumentIS3_S4_S4_EEEEvRT0_RT1_
Usd:__ZN5physx20NpRigidActorTemplateINS_18PxArticulationLinkEE12setActorFlagENS_11PxActorFlag4EnumEb
oWe:__ZN22BaseUnityConnectClient20StartEventDispatcherEv
iMa:__ZN14SpriteRenderer14OnChangeSpriteEv
tRl:__ZN6il2cpp2os10ThreadImplD2Ev
AJc:__ZN12b2MouseJoint23InitVelocityConstraintsERK12b2SolverData
vzc:__ZN8Gradient8TransferI9JSONWriteEEvRT_
hVa:__ZN21RendererUpdateManager18OncePerFrameUpdateER13RendererScene
sga:__ZNK12TLSAllocatorI14StackAllocatorE22GetAllocatedMemorySizeEv
hpc:__Z32GetSceneHierarchyPathDescriptivePK6Object
jbj:_EqualityComparer_1_System_Collections_IEqualityComparer_GetHashCode_m2138064395_gshared
YZa:__ZN12HandlerChain4NameEv
dti:_Int16_System_IConvertible_ToType_m3672347013_AdjustorThunk
sn:FUNCTION_TABLE_fiiiiiifiiiiiif
kui:_Int32_System_IConvertible_ToType_m3009233912_AdjustorThunk
Kti:_Int16_ToString_m2013897809
Age:__ZN5physx37setupFinalizeSolverConstraintsCoulombERNS_13PxcNpWorkUnitERKNS_2Gu13ContactBufferERKNS_27PxcCorrelationBufferCoulombERKNS_11PxTransformESB_bPhRKNS_13PxcSolverBodyESF_RKNS_17PxcSolverBodyDataESI_ffjffff
y2h:_String_Substring_m2848979100
HRe:__Z44Register_UnityEngine_CanvasRenderer_get_cullv
wWe:__ZN11UnityEngine7Connect17XRDeviceInfoEvent12XRDeviceInfoD2Ev
sab:__Z44InitializeTransferFunctionScriptingTraitsForI17RemapPPtrTransferEvR31TransferFunctionScriptingTraits
egc:__ZNSt3__26vectorI16MessageForwarder13stl_allocatorIS1_L18MemLabelIdentifier7ELi8EEE6resizeEj
CJh:_X509Chain_SelectBestFromCollection_m1068759221
EYk:_SymmetricTransform_TransformBlock_m851059707
Fyf:__ZL68IntPtr_t_CustomAttributesCacheGenerator_IntPtr_ToPointer_m4157623054P21CustomAttributesCache
Utb:__Z11StringToKeyRKN4core12basic_stringIcNS_20StringStorageDefaultIcEEEE
MBk:_Enumerator_System_Collections_IEnumerator_Reset_m2261065994_AdjustorThunk
pbh:_ScrollRect_get_verticalNormalizedPosition_m3693218937
m6d:__ZN5physx31ComputeCreatedDeletedPairsListsEPKjS1_jRPNS_17PxcBroadPhasePairERjS5_S4_S5_S5_RNS_14SapPairManagerE
nUa:__ZN18LoadSceneOperation21MustCompleteNextFrameEv
Bdh:_Slider_UpdateDrag_m1102107039
Emf:_MonoMethodInfo_get_method_info_m88651774
TF:__ZNK12AudioManager16GetAudioListenerEv
Wti:_Int32_System_IConvertible_ToDateTime_m1824716955
CYg:_RuntimeTypeHandle__ctor_m3315980708_AdjustorThunk
Yal:_Canvas_set_overrideSorting_m4088794420
RVb:__ZNSt3__26vectorI11CameraStackNS_9allocatorIS1_EEE8__appendEj
nbe:__ZN5physx2Gu16pcmContactBoxBoxERKNS0_13GeometryUnionES3_RKNS_11PxTransformES6_RKfRNS0_5CacheERNS0_13ContactBufferE
wSj:_Scheduler_ShrinkIfNeeded_m820085397
yUe:__ZN11UnityEngine9Analytics15UserCustomEvent12CustomParams6InsertEPKcRNS1_11CustomValueE
xX:__Z13GetFileSystemv
UZ:__ZN13RuntimeStaticI15GUIEventManagerLb0EE16StaticInitializeEPv
aIg:_MonoBehaviour_IsObjectMonoBehaviour_m2134950949
P0c:__ZN15RaycastCallback14processTouchesEPKN5physx12PxRaycastHitEj
W7:__ZL45__ManagedRegistrationHelperFunction_Texture2DPv
hZj:_Version_CompareTo_m3146217210
oKc:__ZN24RigidbodyMovementState2D21ResetAngularMoveStateEv
mMa:__ZThn32_N14SpriteRenderer15AddAsRenderNodeER15RenderNodeQueueRK20DeprecatedSourceData
$Xi:_Array_InternalArray__ICollection_CopyTo_TisKeyValuePair_2_t71524366_m1056941380_gshared
Fne:__ZN5physx2Gu5RTree15exportExtraDataERNS_22PxSerializationContextE
nUj:_Type_get_IsClass_m589177581
kTf:__ZL62NativeTypeAttribute_t2250406315_CustomAttributesCacheGeneratorP21CustomAttributesCache
F9a:__ZN19ShaderPropertySheet9SetMatrixEN9ShaderLab16FastPropertyNameERK10Matrix4x4fNS_8SetFlagsE
MCa:__Z29GetTextureSizeAllowedMultiple13TextureFormat
X0d:__ZNK5physx2Sq10AABBPruner7overlapERKNS0_9ShapeDataERNS0_14PrunerCallbackE
uMi:_Decimal_Subtract_m835601464
pgc:__Z46CleanupSpriteRendererAnimationBindingInterfacev
TSj:_TimeSpan__ctor_m3689759052_AdjustorThunk
lCl:_il2cpp_array_element_size
gSd:__ZN5physx6shdfnd5ArrayIPvNS0_19ReflectionAllocatorINS_2Gu30LargePersistentContactManifoldEEEE4copyINS0_15InlineAllocatorILj256ES6_EEEEvRKNS1_IS2_T_EE
Jwa:__ZN19ShaderPropertySheet22CopyVectorPropertyFromERKS_i
mxf:__ZL62ComVisibleAttribute_t1362837655_CustomAttributesCacheGeneratorP21CustomAttributesCache
mha:__ZNSt3__26__treeINS_12__value_typeIN4core12basic_stringIcNS2_20StringStorageDefaultIcEEEEjEENS_19__map_value_compareIS6_S7_NS_4lessIS6_EELb1EEE13stl_allocatorIS7_L18MemLabelIdentifier7ELi16EEE25__emplace_unique_key_argsIS6_JNS_4pairIS6_jEEEEENSH_INS_15__tree_iteratorIS7_PNS_11__tree_nodeIS7_PvEEiEEbEERKT_DpOT0_
qNg:_RectTransform_INTERNAL_set_sizeDelta_m188783163
zg:_glCheckFramebufferStatus
tZl:__ZN6il2cpp2os11EventHandle4WaitEv
DT:__Z43scripting_class_get_method_from_name_filter17ScriptingClassPtrPKciN24ScriptingMethodFiltering18MethodSearchFilterEPK16ScriptingTypePtr
XRe:__Z13RegisterClassIN2UI6CanvasEEvPKc
Iff:_GraphicRaycaster__ctor_m646559428
_ie:__ZN5physx2Cm12DelegateTaskINS_2Sc5SceneEXadL_ZNS3_19updateCCDSinglePassEPNS_10PxBaseTaskEEEE11runInternalEv
bfd:__ZN5physx6string9sprintf_sEPcjPKcz
xqe:__ZThn8_N5physx19TriangleMeshBuilderD1Ev
Tki:_BitArrayEnumerator_get_Current_m4220391712
Zrg:__Z37il2cpp_codegen_get_executing_assemblyPK10MethodInfo
iFh:_HttpWebRequest_GetServicePoint_m2640244283
UNg:_Transform_get_parent_m835071599
i4c:__ZN5physx2Gu16intersectRayAABBERKNS_6PxVec3ES3_S3_S3_RfS4_
IFh:_IPAddress_get_ScopeId_m4237202723
iba:__ZN9Scripting11UnityEngine12Experimental10PlayerLoop9PreUpdate12CleanupProxyEv
FRk:_ExpressionCollection_get_Item_m3510736379
xfg:__ZL62FontData_t746620069_CustomAttributesCacheGenerator_m_AlignmentP21CustomAttributesCache
q7e:_StandaloneInputModule_get_inputActionsPerSecond_m3946624274
hQj:_UTF8Encoding_InternalGetCharCount_m82458470
PRg:_Vector2__cctor_m2108982652
_Ig:_U3CBlockUntilRecvMsgU3Ec__AnonStorey2_U3CU3Em__0_m2225790220
$8:__ZN9Scripting11UnityEngine9Rendering20SphericalHarmonicsL29InitProxyEv
Ige:__ZN5physx30setupFinalizeSolverConstraintsERNS_13PxcNpWorkUnitERKNS_2Gu13ContactBufferERKNS_20PxcCorrelationBufferERKNS_11PxTransformESB_bPhRKNS_13PxcSolverBodyESF_RKNS_17PxcSolverBodyDataESI_ffffff
OJl:__ZN14dense_hash_mapI10KeyWrapperIP14Il2CppIUnknownEjN6il2cpp5utils11PointerHashIS1_EENS3_14EqualsComparerINSt3__28equal_toIS2_EEEENS9_9allocatorINS9_4pairIKS3_jEEEEE15set_deleted_keyERSF_
_xd:__ZN5physx7NpScene17releaseBatchQueryEPNS_12PxBatchQueryE
Gyl:__ZN13Il2CppHashMapIPK14Il2CppAssemblyPK22Il2CppMonoAssemblyNameN6il2cpp5utils11PointerHashIS1_EENSt3__28equal_toIS2_EENSA_9allocatorINSA_4pairIK10KeyWrapperIS2_ES5_EEEEEC2EjRKS9_RKSC_
$fe:__ZN5physx26solveVBlockDefaultFrictionEPNS_13PxsSolverCoreEfjjPNS_13PxcSolverBodyEPNS_17PxcSolverBodyDataEjjPNS_25PxcArticulationSolverDescEjPNS_23PxcSolverConstraintDescEjS9_jRNS_6shdfnd5ArrayINS_24PxsConstraintBatchHeaderENSA_19ReflectionAllocatorISC_EEEESG_PNS_2Cm13SpatialVectorEPNS_25PxcThresholdStreamElementEjRj
cci:_DelegatePInvokeWrapper_AppDomainInitializer_t682969308
CW:__ZN8Remapper6RemoveEi
h5d:__ZN5physx11writeBack1DERKNS_23PxcSolverConstraintDescERNS_16PxcSolverContextERNS_17PxcSolverBodyDataES6_
k8h:_Encoding_GetBytes_m3148649984
$pc:__ZN9Scripting27CreateArgumentNullExceptionEPKc
uBe:__ZL36CleanupTextRenderingScriptingClassesv
x3c:__ZThn4_N16RayRTreeCallbackILi0ELb0EED0Ev
jWb:__ZN15ReflectionProbe17UseRendererResultEP13ProbeRenderer
Hsc:__Z34Mesh_CUSTOM_SetArrayForChannelImplP12Il2CppObject30InternalScriptingShaderChannel34InternalScriptingVertexChannelTypeiP11Il2CppArrayi
HT:__Z32scripting_class_get_nested_types17ScriptingClassPtrRNSt3__26vectorIS_13stl_allocatorIS_L18MemLabelIdentifier1ELi16EEEE
zbl:_CanvasRenderer_INTERNAL_CALL_EnableRectClipping_m3318097918
FXj:_UInt64_System_IConvertible_ToDecimal_m806594027_AdjustorThunk
A6:__ZL58__ManagedRegistrationHelperFunction_MaterialEffectPlayablePv
v_e:__ZN11UnityEngine7Connect20RemoteConfigSettings18StaticCallOnUpdateEPS1_
xvh:_Enumerator_get_CurrentValue_m3103267885_gshared
nsk:_List_1__ctor_m3395838871_gshared
fpi:_CultureInfo_get_Parent_m672689885
Fx:__ZN9Scripting11UnityEngine18AssetBundleRequest9InitProxyEv
nMk:_PKCS12__ctor_m1854440921
Dlk:_Array_Resize_TisCustomAttributeNamedArgument_t287865710_m885566878_gshared
CY:__ZN17TransformInternal19FreeTransformThreadER18TransformHierarchyjj
DCl:_il2cpp_class_is_valuetype
Xt:__ZN9Scripting11UnityEngine12SkeletonBone12CleanupProxyEv
lv:__ZN11UnityEngine9Animation28GenericAnimationBindingCache25RegisterIAnimationBindingEPKN5Unity4TypeEiP17IAnimationBinding
b0d:__ZN5physx2Gu17GetGeomSweepFuncsEv
Xld:__ZN5physx6shdfnd8PoolBaseINS_15PxsArticulationENS0_16AlignedAllocatorILj64ENS0_9AllocatorEEEE17releaseEmptySlabsEv
Fxi:_DirectoryInfo__ctor_m481305441
r7l:dynCall_viiffiii
FR:__ZN10MemoryPoolC2E10MemLabelIdbPKciii
CTe:__ZN14UnityAnalytics25UnregisterGlobalCallbacksEv
BUb:__Z40ProcessCameraIndexListIsNodeVisibleInOutRK22SceneCullingParametersPK9SceneNodePK4AABBR9IndexList
zXk:_GUIScrollGroup_SetHorizontal_m291416666
Ira:__ZN16GraphicsSettings8TransferI17RemapPPtrTransferEEvRT_
xSe:__ZN2UI6Canvas13UpdateBatchesEb
yHh:_X509BasicConstraintsExtension_Decode_m120598446
bXg:_ObjectReader_ReadObjectGraph_m340866276
OCd:__ZN5physx2Gu5Debug9visualizeERKNS_13PxBoxGeometryERNS_2Cm12RenderOutputERKNS5_8Matrix34ERKNS_9PxBounds3Eyfj
$7c:__ZN5physx6shdfnd5ArrayIPKvNS0_19ReflectionAllocatorIS3_EEE6resizeEjRKS3_
OXe:__ZN11UnityEngine7Connect13ConfigHandler12GetListenersERKN4core12basic_stringIcNS2_20StringStorageDefaultIcEEEE
G4a:__ZN9GfxDevice18AllocRenderSurfaceEb
$gi:_Char__cctor_m2787437263
Oge:__ZN5physx31setupFinalizeSolverConstraints4EPNS_21PxcSolverContact4DescERNS_18PxcNpThreadContextEPhffRKNS_6shdfnd3aos5Vec4VES9_S9_S9_
uUd:__ZN5physx7NpScene5flushEb
Qkc:__ZN10TagManager32GetSortingLayerUniqueIDFromValueEi
ZVe:__ZN11UnityEngine7Connect15DeviceInfoEvent7GFXInfoD2Ev
F8e:_AspectRatioFitter_get_rectTransform_m2996235303
vT:__ZL27CleanupCoreScriptingClassesv
Fff:_Graphic_UnregisterDirtyMaterialCallback_m2707090617
Sth:_Comparer_1_System_Collections_IComparer_Compare_m1313384821_gshared
Cdc:__Z26AnimationCurve_CUSTOM_InitP12Il2CppObjectP11Il2CppArray
yfm:_glUniform1uiv__wrapper
vLc:__ZNK14b2PolygonShape5CloneEP16b2BlockAllocator
ryl:__ZN6il2cpp2vm10Reflection7IsEventEP12Il2CppObject
DW:__ZN17PersistentManager26GetStreamNameSpaceInternalEi
PD:__ZN4FMOD6System11createSoundEPKcjP22FMOD_CREATESOUNDEXINFOPPNS_5SoundE
So:FUNCTION_TABLE_iiifiiii
jxe:__ZN13SpeedTreeWind20AdvanceWithoutUpdateEd
S1j:_ReadOnlyCollection_1_System_Collections_Generic_ICollectionU3CTU3E_Add_m1422506275_gshared
rJi:_DateTime_System_IConvertible_ToDecimal_m1044850612
mJh:_X509Store_get_Factory_m3282910266
cve:__ZThn128_N5physx7profile8ZoneImplINS_28PxProfileNameProviderForwardEED1Ev
BS:__ZN9ShaderLab19CommonPropertyNames13StaticCleanupEPv
SV:__Z31scripting_method_get_returntype18ScriptingMethodPtr
s1d:__ZN5physx2Sq17AABBTreeUpdateMap10invalidateEjjRNS0_8AABBTreeE
oHa:__ZN15SerializeTraitsI12LightmapDataE8TransferI24GenerateTypeTreeTransferEEvRS0_RT_
T0h:_SecurityElement_AddAttribute_m311510562
mda:__ZN9Scripting5Unity11Collections44NativeDisableParallelForRestrictionAttribute12CleanupProxyEv
ege:__ZN5physx28solveParallelDefaultFrictionERNS_18PxsDynamicsContextEjjPNS_13PxcSolverBodyEPNS_17PxcSolverBodyDataEjjPNS_25PxcArticulationSolverDescEjPNS_23PxcSolverConstraintDescEjS9_jPiSA_SA_SA_SA_SA_PNS_25PxcThresholdStreamElementEjSA_PNS_2Cm13SpatialVectorEPKPNS_11PxsBodyCoreERNSD_10BitMapBaseINS_6shdfnd9AllocatorEEEPKPNS_15PxsArticulationEjPViRNSL_5ArrayINS_24PxsConstraintBatchHeaderENSL_19ReflectionAllocatorISW_EEEES10_RNSV_IjNSX_IjEEEES13_PPNS_12PxsRigidBodyEj
Qbm:_glStencilOpSeparate__wrapper
boc:__ZN4Mesh5SetUvEiPKfjj
_Ea:__ZN7Texture13SetAnisoLimitENS_20AnisotropicFilteringE
h0e:__ZN20UnityWebRequestProtoI24UnityWebRequestTransport16AtomicRefCounter14RedirectHelper14ResponseHelper15DownloadHandler13UploadHandler18CertificateHandler12HeaderHelper14AsyncOperationED2Ev
Uei:_Attribute_IsDefined_m4069052474
ti:_emscripten_glCompressedTexSubImage2D
tDb:__ZN13GfxDeviceGLES22MemoryBarrierImmediateEyN2gl17MemoryBarrierTypeE
vm:_abort
i4:__ZN6prcoreL26RemapGenericFloatToIntegerI18TexFormatARGBFloat17TexFormatARGB8888EEvPKNS_9InnerInfoE
YOc:__ZN14qsort_internal5QSortIPN35b2SynchronizeContinuousFixturesTask14b2DeferredMoveEiPFbRKS2_S5_EEEvT_S8_T0_T1_
AAk:_List_1_set_Capacity_m1977188119_gshared
XTl:__ZN6il2cpp6icalls8mscorlib6System10Reflection9MonoField16GetValueInternalEP21Il2CppReflectionFieldP12Il2CppObject
vpc:__Z46GetShaderModelNumericValueFromRequirementsMask18ShaderRequirements
HPj:_UTF7Encoding_InternalGetBytes_m797138468
WEe:_cff_ps_has_glyph_names
Cqe:__ZN5physx15writeWordBufferEPKtjbRNS_14PxOutputStreamE
x7i:_Dictionary_2_Resize_m3287623642_gshared
VVl:_GC_write
nTg:_SoapTypeAttribute_SetReflectionObject_m1691526413
pff:_Graphic_OnPopulateMesh_m767318148
ys:__ZN17ConstraintManagerD2Ev
X4i:_Dictionary_2_Remove_m4193450060_gshared
Evi:_Int64_TryParse_m3606398488
wkk:_Array_InternalArray__set_Item_TisMark_t3471605523_m1299772331_gshared
axc:__Z44Register_UnityEngine_GUIStyle_SetDefaultFontv
qRl:__GLOBAL__sub_I_ThreadImpl_cpp
vkb:__Z18Transfer_BlittableI18StreamedBinaryReadILb1EELb1EiEvRK29SerializationCommandArgumentsR31RuntimeSerializationCommandInfo
Uoj:__Z173RuntimeInvoker_Int32_t2950945753_RuntimeObject_Int32_t2950945753_Int32_t2950945753_Int32_t2950945753_RuntimeObject_Int32_t2950945753_SByte_t1669577662_ContextU26_t3937453398PFvvEPK10MethodInfoPvPS4_
fuk:_List_1__ctor_m2576108087_gshared
gxl:__ZN15dense_hashtableINSt3__24pairIK10KeyWrapperINS1_IPK12PropertyInfoP11Il2CppClassEEEjEES9_17ReflectionMapHashIS8_EN14dense_hash_mapIS9_jSD_NS9_14EqualsComparerINS0_8equal_toIS8_EEEENS0_9allocatorISB_EEE9SelectKeyESI_SK_E12maybe_shrinkEv
Kjd:__ZN5physx2Sc7BodySim37checkSleepReadinessBesidesWakeCounterEv
v6k:__ZL25UnresolvedVirtualCall_150P12Il2CppObject19Vector2_t2156229523S1_fiPK10MethodInfo
KMk:_X509Certificate_get_DSA_m565099499
Wkb:__Z18Transfer_BlittableI18StreamedBinaryReadILb1EELb1EsEvRK29SerializationCommandArgumentsR31RuntimeSerializationCommandInfo
rOj:_StringBuilder_Remove_m940064945
JQa:__ZN14SafeBinaryRead21TransferSTLStyleArrayI13dynamic_arrayI16SplashScreenLogoLj0EEEEvRT_17TransferMetaFlags
l8a:__ZN13dynamic_arrayIN16GeometryJobTasks15GeometryJobTaskELj0EE18resize_initializedEjRKS1_12ResizePolicy
C_g:_DESCryptoServiceProvider_GenerateIV_m683687014
eFa:__ZL21SetAnisoLimitEnumImplN7Texture20AnisotropicFilteringEb
JXe:__ZN22BaseUnityConnectClient17OnEnterStateReadyEv
J$d:__ZN5physx13PxsCCDContextD2Ev
reh:_Text_get_fontSize_m1677872538
Lqk:_List_1_System_Collections_IList_get_Item_m995551621_gshared
Raa:__ZN9Scripting11UnityEngine12Experimental9Rendering15ShadowSplitData9InitProxyEv
K1c:__ZN5physx2Gu9ContainerD2Ev
Tdc:__Z29Input_CUSTOM_GetMouseButtonUpi
G9c:__ZN5physx2Gu12selectNormalEhff
zsl:__ZN6il2cpp6icalls8mscorlib6System8MonoType16InternalGetEventEP20Il2CppReflectionTypeP12Il2CppStringi
Zre:__Z13RegisterClassI9RigidbodyEvPKc
kVk:_UriScheme_t722425697_marshal_pinvoke_back
OGe:_UNITY_tt_face_load_maxp
gec:__Z46Input_CUSTOM_INTERNAL_set_compositionCursorPosRK13Vector2fIcall
TKd:__ZN5physx3Scb14ParticleSystem16releaseParticlesEjRKNS_16PxStrideIteratorIKjEE
uMb:__ZN13BatchRenderer15ApplyShaderPassER17ShaderPassContextPK18SharedMaterialDataP6ShaderPN9ShaderLab4PassEi13BatchingFlagsbbPKNS7_10GrabPassesEPK22DeviceRenderStateBlock
SMa:__ZN19ShaderPropertySheet11ComputeHashEv
Mll:__ZN30dense_hashtable_const_iteratorI10KeyWrapperIPK19Il2CppGenericMethodES4_N6il2cpp8metadata23Il2CppGenericMethodHashEN14dense_hash_setIS4_S7_NS4_14EqualsComparerINS6_26Il2CppGenericMethodCompareEEENSt3__29allocatorIS4_EEE8IdentityESB_SE_EppEv
DXd:__ZN5physx2Sc5Scene21processLostTouchPairsEv
$Lc:__ZN12b2EPCollider24ComputePolygonSeparationEv
kL:__ZN11UnityEngine15CloudWebService20WebRequestRestClient6IsDoneEv
LJk:_X509CertificateCollection_get_Item_m1033426577
qj:_llvm_fabs_f32
PK:__ZN11UnityEngine15CloudWebService16SessionContainer16GetJsonDataBlockEjRKN4core12basic_stringIcNS2_20StringStorageDefaultIcEEEERS6_PjSA_
T0i:_ASN1_Decode_m1695284166
V9d:__ZN5physx22PxcContactConvexConvexERKNS_2Gu13GeometryUnionES3_RKNS_11PxTransformES6_RKfRNS_10PxcNpCacheERNS0_13ContactBufferE
iPi:_Enum_ToString_m3248653065
jrf:_ChannelServices__cctor_m2475086854
h2c:__ZNK5physx2Gu11ConvexHullV12HillClimbingERKNS_6shdfnd3aos5Vec3VE
WU:__ZN14SafeBinaryReadD2Ev
HKd:__ZN5physx2Sc18ParticleSystemCore10setDampingEf
Yhj:_Enumerator_MoveNext_m3859993671_gshared
kye:__ZN14SafeBinaryRead21TransferSTLStyleArrayI13dynamic_arrayIN20TextRenderingPrivate8FontImpl13CharacterInfoELj0EEEEvRT_17TransferMetaFlags
kmb:__ZN8Gradient8TransferI18StreamedBinaryReadILb1EEEEvRT_
jLh:_Capture__ctor_m3103117740
Snj:__Z113RuntimeInvoker_Void_t1185182177_RuntimeObject_Int64_t3736567304_RuntimeObject_Int64_t3736567304_Int64_t3736567304PFvvEPK10MethodInfoPvPS4_
tgd:__ZN5physx2Sc10NPhaseCore16deleteFilterPairEPNS0_10FilterPairE
uLg:_RangeInt_get_end_m4128831787_AdjustorThunk
iJl:__ZN6il2cpp6icalls8mscorlib6System4Type15MakeGenericTypeEP20Il2CppReflectionTypeP11Il2CppArray
qse:_PxCreateBasePhysics
Sj:_SDL_PauseAudio
Dmi:_Hashtable_Clone_m3078962909
ICl:_il2cpp_class_from_type
stl:__ZN6il2cpp2os4File11GetStdErrorEv
agl:_NativeHeaderAttribute__ctor_m457462113
rcl:_AnimationLayerMixerPlayable__ctor_m860721801
ukd:__ZN5physx2Sc5Scene28addActiveBreakableConstraintEPNS0_13ConstraintSimE
AS:__ZN9ShaderLab19CommonPropertyNames16StaticInitializeEPv
szd:__ZN5physx6shdfnd8PoolBaseINS_16NpParticleSystemENS0_19ReflectionAllocatorIS2_EEE15disposeElementsEv
Tsh:_Comparer_1__cctor_m2517796511_gshared
xv:__ZN7mecanim9animation18CreateAvatarOutputEPKNS0_14AvatarConstantEbbRNS_6memory9AllocatorE
yve:__ZN5physx7profile11EventBufferINS_24PxDefaultContextProviderENS_6shdfnd6MutexTINS0_26WrapperReflectionAllocatorIhEEEENS0_14ScopedLockImplIS7_EENS_24PxProfileNullEventFilterEE10eventValueEtyx
KWh:_TlsServerCertificateRequest_Update_m2763887540
hdh:_Slider_set_maxValue_m2251404465
Jnc:__ZN7Texture11SetWrapModeE15TextureWrapMode
Jza:__ZN14Texture2DArray23VirtualRedirectTransferER14SafeBinaryRead
Lmg:_MissingMemberException__ctor_m1220732369
hPb:__ZNK6Camera21CalculateCanDoShadowsEv
cWd:__ZNK5physx2Sc5Scene17getBroadPhaseCapsERNS_16PxBroadPhaseCapsE
gwd:__ZN5physx9NpFactory14onActorReleaseEPNS_7PxActorE
lyg:_Application_InvokeOnBeforeRender_m2875673833
cRl:__ZN6il2cpp2os6Thread12SetStackSizeEj
wmd:__ZN5physx2Sc5Actor15onElementAttachERNS0_7ElementE
A7g:_MaskableGraphic_RecalculateMasking_m183336762
cpk:_Array_InternalArray__get_Item_TisRuntimeObject_m3347010206_gshared
ojf:_TypeBuilder_IsSubclassOf_m3458909121
Osg:_Default_check_arguments_with_score_m3467814020
A7l:dynCall_viffii
sKd:__ZN5physx2Sc18ParticleSystemCore23setSimulationFilterDataERKNS_12PxFilterDataE
tnb:__Z18Transfer_BlittableI18StreamedBinaryReadILb0EELb1EhEvRK29SerializationCommandArgumentsR31RuntimeSerializationCommandInfo
Z9h:_X509Certificate__cctor_m198658613
ew:__ZN14SafeBinaryRead21TransferSTLStyleArrayI13dynamic_arrayI11KeyframeTplIfELj0EEEEvRT_17TransferMetaFlags
gKg:_PlayableHandle_Equals_m1666612586_AdjustorThunk
Q3:__ZN6prcoreL27StretchGenericFloatBilinearI15TexFormatRFloatEEvPKNS_9InnerInfoE
l0d:__ZN5physx6shdfnd8internal8HashBaseINS0_4PairIKNS_2Sq13PrunerPayloadEjEES5_NS0_4HashIS5_EENS1_11HashMapBaseIS5_jS9_NS0_9AllocatorEE6GetKeyESB_Lb1EE15reserveInternalEj
oRf:__ZL139ServicePointManager_t170559685_CustomAttributesCacheGenerator_ServicePointManager_t170559685____CheckCertificateRevocationList_PropertyInfoP21CustomAttributesCache
uPi:_Enum_ToObject_m1628250250
xBi:_StreamWriter_LowLevelWrite_m1081676583
aJa:__ZN19StreamedBinaryWriteILb0EE21TransferSTLStyleArrayI13dynamic_arrayI8Vector2fLj0EEEEvRT_17TransferMetaFlags
uDa:__Z14PadImageBorderR14ImageReferenceii
Ivl:__ZN15dense_hashtableINSt3__24pairIK10KeyWrapperINS1_IPK10MethodInfoP11Il2CppClassEEEjEES9_17ReflectionMapHashIS8_EN14dense_hash_mapIS9_jSD_NS9_14EqualsComparerINS0_8equal_toIS8_EEEENS0_9allocatorISB_EEE9SelectKeyESI_SK_E4findERSA_
Wol:__ZN6il2cpp2vm13MetadataCache28GetFieldDefaultValueForFieldEPK9FieldInfo
qVi:_Array_IndexOf_TisUIVertex_t4057497605_m3336763564_gshared
Raf:_ColorBlock_Equals_m518833916_AdjustorThunk
Z3d:__ZN5physx2Gu22gjkRelativePenetrationINS0_9TriangleVENS0_8CapsuleVEEEjRKT_RKT0_RKNS_6shdfnd3aos15PsMatTransformVERKNSB_6FloatVERNSB_5Vec3VESJ_SJ_RSF_PhSL_Rh
M$l:__ZN6il2cpp2os9FastMutexC2Ev
q_c:__ZN9Rigidbody14SetIsKinematicEb
Uih:_InternalEnumerator_1_System_Collections_IEnumerator_get_Current_m1514266661_AdjustorThunk
Nz:__ZN12AudioManager39HandlePendingAudioConfigurationCallbackEv
b8:__ZL43__ManagedRegistrationHelperFunction_Vector3Pv
Rk:_emscripten_glIsFramebuffer
s3i:_RSAManaged_EncryptValue_m799827583
vVb:__ZN12_GLOBAL__N_16qAtan2Eff
Vk:_JS_Sound_SetLoopPoints
C_l:__ZN6il2cpp2vm26MetadataAllocGenericMethodEv
fSi:_Array_InternalArray__ICollection_Remove_TisUInt16_t2177724958_m1766181761_gshared
qYe:__ZN11UnityEngine7Connect20BasePersistentValues18TransferBaseValuesI8JSONReadEEvRT_
O$d:__ZN5physx13ActorAABBTaskD2Ev
lBc:__ZN9JSONWrite8TransferI10RectOffsetEEvRT_PKc17TransferMetaFlags
lDa:__ZN4crnd12symbol_codec11decode_bitsEj
vMc:__ZN15b2CircleContact8EvaluateEP10b2ManifoldRK11b2TransformS4_
XYk:_AesManaged_GenerateIV_m1368817386
_y:__ZN4FMOD6System12createReverbEPPNS_6ReverbE
_Tl:__ZN6il2cpp2vm6String21InitializeEmptyStringEP11Il2CppClass
SWa:__Z16MarkDependenciesR27GarbageCollectorThreadStatej
Nfl:_ObjectPool_1_get_countInactive_m526975942_gshared
UTg:_RemotingServices_DisposeIdentity_m2605848806
N2:__ZNK9Transform11GetPositionEv
Wri:_GuidParser_Reset_m2640004655
I7b:__ZN23SharedMeshRenderingData18UnloadVertexStreamEi
eed:__ZN5physx3Cct13HandleManager3AddEPv
Emc:__ZN31CanvasBatchIntermediateRenderer11AddSubBatchERK16DrawBuffersRangePK19ShaderPropertySheet
Cic:__ZN19RenderEventsContextC2Ei
HI:__Z6simd4fRKf
xl:_emscripten_glEnable
Akh:_InternalEnumerator_1_System_Collections_IEnumerator_get_Current_m2982675020_gshared
bha:__ZN10TagManager23VirtualRedirectTransferER14SafeBinaryRead
bhg:__ZL51RawImage_t3182918964_CustomAttributesCacheGeneratorP21CustomAttributesCache
fle:__ZNK5physx2Sc15ClothFabricCore9getNbSetsEv
D3k:_playerMovement3d_OnCollisionExit2D_m19496551
dSb:__Z15InitLightMeshesv
nlf:_MonoCMethod_ToString_m3992577062
gfl:_RaycastHit_get_collider_m1464180279
jVd:__ZNK5physx7NpScene26getNbContactDataBlocksUsedEv
oo:FUNCTION_TABLE_iifiii
S5c:__ZN5physx2Gu29computeCapsule_HeightFieldMTDERKNS_21PxHeightFieldGeometryERKNS_11PxTransformERNS0_8CapsuleVEffbjRNS_10PxSweepHitE
wme:__ZN5physx2Gu11HeightField15exportExtraDataERNS_22PxSerializationContextE
VEa:__ZN15QualitySettings8TransferI19StreamedBinaryWriteILb0EEEEvRT_
J6g:_LayoutUtility_U3CGetFlexibleHeightU3Em__7_m2991026842
yCe:_cf2_arrstack_init
lpk:_Array_InternalArray__get_Item_TisResourceCacheItem_t51292791_m1306056717_gshared
VCj:__Z157RuntimeInvoker_Void_t1185182177_RuntimeObject_RuntimeObject_RuntimeObject_RuntimeObject_RuntimeObject_RuntimeObject_RuntimeObject_RuntimeObject_RuntimeObjectPFvvEPK10MethodInfoPvPS4_
QP:__Z15CleanLogHandler7LogTypePKcz
Ypg:_NumberFormatter_NumberToString_m2481532188
i4b:__ZN9ShaderLab19SerializedSubShader8TransferI19StreamedBinaryWriteILb0EEEEvRT_
tBd:__ZN5physx10NpMaterialC2ERKNS_2Sc12MaterialCoreE
sbh:_ScrollRect_InternalGetBounds_m599803667
Rce:__ZN5physx9PxTaskMgr10resolveRowEjb
Fda:__ZN9Scripting5Unity11Collections8LowLevel6Unsafe41NativeContainerIsAtomicWriteOnlyAttribute9InitProxyEv
frb:__ZN6Camera17RemoveImageFilterERK11ImageFilter
R8a:__ZNSt3__218__insertion_sort_3IR25ValueParameterArraySorterPN20GpuProgramParameters14ValueParameterEEEvT0_S6_T_
ATc:__ZN10ClipperLib7Clipper27ProcessEdgesAtTopOfScanbeamEx
cRf:__ZL67EditorBrowsableAttribute_t1475454531_CustomAttributesCacheGeneratorP21CustomAttributesCache
Jli:_Comparer__cctor_m3311686689
JUk:_Uri__ctor_m3040793867
mvh:_Enumerator_VerifyState_m1203790900_gshared
ckh:_InternalEnumerator_1_get_Current_m3500427238_AdjustorThunk
jTe:__ZN2UI26InitializeDeviceForOverlayEi
Bke:__ZNK5physx13NpClothFabric13getRestvaluesEPfj
kR:__Z27LogRepeatingStringWithFlagsRKN4core12basic_stringIcNS_20StringStorageDefaultIcEEEE15LogMessageFlagsi
C2c:__ZN5physx2Gu16_gjkLocalRayCastINS0_9TriangleVENS0_11ConvexHullVEEEbRT_RT0_RKNS_6shdfnd3aos6FloatVERKNS9_5Vec3VESF_RSA_RSD_SH_f
vPi:_Enum_IsDefined_m1442314461
xRj:_Thread__cctor_m817723615
R0k:_AudioExtensionManager_RegisterBuiltinDefinitions_m2742744104
Fkd:__ZN5physx6shdfnd8PoolBaseINS_2Cm5BlockIPvLj32EEENS0_19ReflectionAllocatorIS5_EEE17releaseEmptySlabsEv
c6d:__ZN5physx23PxsBroadPhaseContextSap21batchUpdateFewUpdatesEjRPNS_17PxcBroadPhasePairERjS4_
x7h:_DecoderReplacementFallbackBuffer_Fallback_m1261056214
Gad:__ZN5physx3Cct17getSceneTimestampEPKNS0_30InternalCBData_FindTouchedGeomE
Tng:_Binder_get_DefaultBinder_m950908649
GYe:__ZN18UnityConnectClient33OnPlayerSessionStateChangedStaticEPS_jyy
ZNc:__ZN19ProcessContactsDataD2Ev
hCj:__Z109RuntimeInvoker_Boolean_t97287965_Vector3_t3722313464_Vector3_t3722313464_Single_t1397266774_Int32_t2950945753PFvvEPK10MethodInfoPvPS4_
mZh:_RSA_ToXmlString_m2922661427
WL:__ZNK11UnityEngine15CloudWebService23WebRequestUploadHandler11GetProgressEv
ZAb:__ZN7ApiGLES4LoadE16GfxDeviceLevelGL
CAd:__ZN5physx9NpPhysics15createAggregateEjb
fDa:__ZN4crnd12crn_unpacker22decode_color_endpointsEv
SMl:__ZN15dense_hashtableI10KeyWrapperIP18Il2CppGenericClassES3_N6il2cpp8metadata22Il2CppGenericClassHashEN14dense_hash_setIS3_S6_NS3_14EqualsComparerINS5_25Il2CppGenericClassCompareEEENSt3__29allocatorIS3_EEE8IdentityESA_SD_E15insert_noresizeERKS3_
ekc:__ZZL31RegisterOtherRendererPropertiesR22GenericPropertyBindingEN30Wrapper_RendererReceiveShadows13GetFloatValueEPv
i0c:__ZN9Rigidbody5ResetEv
BQi:_Array_InternalArray__ICollection_Contains_TisSlot_t384495010_m688761886_gshared
KCa:__ZN17SharedTextureDataC2E10MemLabelIdii13TextureFormatjiibb
MEj:__Z114RuntimeInvoker_RuntimeObject_RuntimeObject_Int32_t2950945753_Int32_t2950945753_Int32_t2950945753_Int32_t2950945753PFvvEPK10MethodInfoPvPS4_
iub:__ZN8Material11SetPassFastEPN9ShaderLab4PassER17ShaderPassContextP6Shaderib
pYe:__ZN11UnityEngine7Connect20BasePersistentValues10SaveValuesER9JSONWrite
T_j:_Collection_1_IsFixedSize_m3748602684_gshared
tJi:_DateTime_System_IConvertible_ToDouble_m2116720007
xPh:_BitConverterLE_GetUIntBytes_m795219058
qCg:_Display_GetSystemExtImpl_m2808197389
rZg:_SByte_Parse_m2899090751
gaa:__ZN9Scripting11UnityEngine20ManagedStreamHelpers12CleanupProxyEv
Tfh:_ArrayReadOnlyList_1_GetEnumerator_m1835926958_gshared
Ice:__ZN5physx9PxTaskMgr12addReferenceEj
HZ:__ZN20GlobalCachingManager7DisposeEv
OLb:__Z12SetupLODFadeR9GfxDeviceR17ShaderPassContextf
bCc:__ZN9JSONWrite8TransferI13dynamic_arrayI4AABBLj0EEEEvRT_PKc17TransferMetaFlags
SRb:__ZL24CollectForwardObjectsJobP27CollectForwardObjectsHeader
Gzk:_List_1_get_Item_m1378751541_gshared
bEc:__ZN8JSONRead21TransferSTLStyleArrayI13dynamic_arrayIdLj0EEEEvRT_17TransferMetaFlags
mUb:__Z13IsNodeVisibleRK9SceneNodeRK4AABBRK22SceneCullingParameters
TVi:_Array_InternalArray__IndexOf_TisLabelFixup_t858502054_m1491765395_gshared
m_i:_SortKeyBuffer_AppendCJKExtension_m2591091991
RRe:__Z57RectTransformUtility_CUSTOM_INTERNAL_CALL_PixelAdjustRectP12Il2CppObjectS0_R5RectTIfE
bQj:_UTF8Encoding_GetByteCount_m4153686982
Fhm:_emscripten_glStencilMask__wrapper
Hmj:__Z49RuntimeInvoker_Void_t1185182177_Double_t594665363PFvvEPK10MethodInfoPvPS4_
Cll:__ZN15dense_hashtableI10KeyWrapperIPK19Il2CppGenericMethodES4_N6il2cpp8metadata23Il2CppGenericMethodHashEN14dense_hash_setIS4_S7_NS4_14EqualsComparerINS6_26Il2CppGenericMethodCompareEEENSt3__29allocatorIS4_EEE8IdentityESB_SE_EC2ERKSH_j
cnl:__ZN15dense_hashtableINSt3__24pairIK10KeyWrapperIN6il2cpp5utils13dynamic_arrayIPK10Il2CppTypeLj4EEEEPFvvEEESA_NS3_8metadata19Il2CppSignatureHashEN14dense_hash_mapISA_SD_SG_NSA_14EqualsComparerINSF_22Il2CppSignatureCompareEEENS0_9allocatorISE_EEE9SelectKeyESK_SM_EC2EjRKSG_RKSK_RKSO_
Nla:__ZN15RenderNodeQueue7CleanupEv
iUf:__ZL66RuntimePlatform_t4159857903_CustomAttributesCacheGenerator_XBOX360P21CustomAttributesCache
xZc:__ZN16NovodexAllocator8allocateEjPKcS1_i
mRb:__Z17PrepareShadowMapsRK11CullResultsRK11ActiveLightRK10MinMaxAABB
BMk:_DeriveBytes_DeriveIV_m973925711
fui:_Int32_System_IConvertible_ToSByte_m3133688512
m2e:__ZN9Scripting11UnityEngine12Experimental23SubsystemDescriptorBase9InitProxyEv
ORb:__ZN9ShaderLab10GrabPassesD2Ev
KAa:__ZN14Texture2DArray13UploadTextureEv
k7g:_MaskableGraphic_UpdateCull_m2805101913
uHe:_tt_cmap14_done
SUa:__ZN18AwakeFromLoadQueue25RegisterObjectInstanceIDsEv
m1g:_InputField_UpdateLabel_m1837760870
WCd:__ZNK5physx2Gu10ConvexMesh14debugVisualizeERNS_2Cm12RenderOutputERKNS2_8Matrix34ERKNS_9PxBounds3Eyfj
rze:__ZN20TextRenderingPrivate19NativeTextGenerator15InsertCharacterEiPj
WVd:__ZN5physx2Sc5Scene22removeBroadPhaseRegionEj
wed:__ZN5physx2Cm12RenderBuffer5clearEv
IHd:__ZNK5physx2Sc9ClothCore21getStiffnessFrequencyEv
pIc:__ZN11b2RopeJoint24SolveVelocityConstraintsERK12b2SolverData
Nng:_MonoType_get_attributes_m1332507727
OWk:_GUIContent_ClearStaticCache_m1205116045
xgg:__ZL66InputField_t3762917431_CustomAttributesCacheGenerator_m_CaretWidthP21CustomAttributesCache
m2d:__ZN5physx13PxsCCDContext14postCCDAdvanceEPNS_10PxBaseTaskE
A2k:_Cat__ctor_m3809522572
XVg:_BinaryCommon__cctor_m2978407547
YN:__GLOBAL__sub_I_Runtime_Burst_0_cpp
RPb:__Z19GetReflectionSampleRK23ReflectionProbesContextRK22ActiveReflectionProbesRK27PerObjectLightCullingOutputRK10RenderNodejP16ReflectionSample
Rjc:__ZN28ReflectionProbeAnchorManager23HandleAnchorDestructionEPK15TransformAccessj
wHl:__ZN6il2cpp6icalls8mscorlib6System2IO6MonoIO20GetFileSystemEntriesEP12Il2CppStringS6_iiPi
m$e:__ZL65__ManagedRegistrationHelperFunction_UnityWebRequestAsyncOperationPv
Mhk:_IndexedSet_1__ctor_m2250384602_gshared
sWj:_UInt16_TryParse_m4139137016
trc:__Z41MonoBehaviour_Set_Custom_PropUseGUILayoutP12Il2CppObjecth
Y8:__ZN9Scripting11UnityEngine15ResourceRequest12CleanupProxyEv
BQl:__ZN6il2cpp2gc16GarbageCollector9FreeFixedEPv
b8h:_Encoding__ctor_m2997749867
aGg:_ManagedStreamHelpers_ManagedStreamSeek_m3158782053
wTk:_ExpressionAssertion_Compile_m2166597834
P9a:__ZN16ScriptingManagerD0Ev
m3h:_Single_System_IConvertible_ToSByte_m1208276900_AdjustorThunk
jWh:_TlsClientCertificate_ProcessAsSsl3_m3265529850
RUl:__ZN6il2cpp6icalls8mscorlib6System7Convert24InternalFromBase64StringEP12Il2CppStringb
D8d:__ZNK5physx10BPWorkTask7getNameEv
Owd:__ZN5physx2Sc8ShapeSim16onResetFilteringEv
gLl:__ZN30dense_hashtable_const_iteratorINSt3__24pairIK10KeyWrapperINS1_IPKcS4_EEEiEES6_24NamespaceAndNamePairHashN14dense_hash_mapIS6_iS9_NS6_14EqualsComparerI26NamespaceAndNamePairEqualsEENS0_9allocatorIS8_EEE9SelectKeyESD_SF_EppEv
Rtc:__Z44Register_UnityEngine_Component_get_transformv
Q9b:__Z39GameObject_CUSTOM_FindGameObjectWithTagP12Il2CppString
Ubl:_CanvasRenderer_get_absoluteDepth_m2703237819
Jri:_TextInfo_ToLower_m2744057472
bHb:__ZN17ArchiveFileSystem12MountArchiveEPKcS1_
jkl:__ZN14dense_hash_mapI10KeyWrapperIP9FieldInfoEiN6il2cpp5utils11PointerHashIS1_EENS3_14EqualsComparerINSt3__28equal_toIS2_EEEENS9_9allocatorINS9_4pairIKS3_iEEEEE15set_deleted_keyERSF_
Fcj:_EqualityComparer_1_System_Collections_IEqualityComparer_Equals_m3977314386_gshared
pAc:__Z18Transfer_BlittableI9JSONWriteLb1E8Vector4fEvRK29SerializationCommandArgumentsR31RuntimeSerializationCommandInfo
yT:__Z11RequireTypePKcS0_S0_
Pni:_CCGregorianCalendar_year_from_fixed_m463929682
cOe:__ZN2UI13CanvasManagerD0Ev
SWh:_TlsServerHello_Update_m3935081401
iyg:_Debug_get_unityLogger_m2239795986
$1j:_ReadOnlyCollection_1_System_Collections_IEnumerable_GetEnumerator_m2123446296_gshared
gQh:_MD2Managed_Initialize_m2341076836
u8j:_ReadOnlyCollection_1_System_Collections_IList_Add_m4240023232_gshared
m5a:__ZN9GfxDevice15ImmediateVertexEfff
MGa:__ZNK16LightmapSettings22GetTypeVirtualInternalEv
Jmk:_Array_Sort_TisUIVertex_t4057497605_TisUIVertex_t4057497605_m4243853890_gshared
txb:__ZN13GfxDeviceGLES15SetStencilStateEPK18DeviceStencilStatei
egi:_Buffer_BlockCopyInternal_m418318694
W2l:_cycle
HUl:__ZN6il2cpp2vm8Profiler7GCEventE13Il2CppGCEvent
soj:__Z76RuntimeInvoker_Void_t1185182177_RuntimeObject_RuntimeFieldHandle_t1871169219PFvvEPK10MethodInfoPvPS4_
gIk:_Rijndael_Create_m3053077028
ge:_emscripten_glUniform1iv
Z7a:__ZN13ComputeShader14SetBufferParamEjRKN9ShaderLab16FastPropertyNameE15ComputeBufferIDb
VRj:_Thread_get_ManagedThreadId_m1068113671
KKc:__ZN15b2DistanceProxy3SetEPK7b2Shapei
e2a:__ZN16MemoryFileSystemD2Ev
Joj:__Z150RuntimeInvoker_Int32_t2950945753_RuntimeObject_Int32_t2950945753_Int32_t2950945753_RuntimeObject_Int32_t2950945753_Int32_t2950945753_Int32_t2950945753PFvvEPK10MethodInfoPvPS4_
ffi:_BitConverter_DoubleToInt64Bits_m3574395137
qEi:_DateTime_Parse_m3729096069
kuk:_List_1_System_Collections_IList_Add_m1540114404_gshared
bra:__ZN16GraphicsSettings27SetLightsUseLinearIntensityEb
TQc:__ZN29b2InitializeContactSolverTask7TaskJobEPS_j
$jc:__ZZN8Renderer15InitializeClassEvEN32FunctorImpl_146kCullSceneChanged4CallEPviR11MessageData
Gkg:_StringReader_Read_m3322058819
yrf:_CrossAppDomainChannel_get_ChannelPriority_m3418073750
g4g:_Selectable_StartColorTween_m3618813981
q3e:_BaseInputModule_HandlePointerExitAndEnter_m1705532066
Aue:__ZN5physx7profile8ZoneImplINS_28PxProfileNameProviderForwardEE10startEventEty
G2d:__ZN5physx10PxsCCDPair17sweepAdvanceToToiEfb
J_b:__Z23ConvertIntegerToTypePtrItEbPvR14SafeBinaryRead
rNi:_Delegate_CombineImpl_m3572135514
rlc:__Z13RegisterClassI15EditorExtensionEvPKc
Zpg:_NumberFormatter_IntegerToString_m1679294587
H5j:_ReadOnlyCollection_1_System_Collections_IList_RemoveAt_m422909114_gshared
xe:_emscripten_glStencilFunc
Qvd:__ZN5physx6shdfnd8PoolBaseINS_2Cm5BlockIhLj384EEENS0_19ReflectionAllocatorIS4_EEE17releaseEmptySlabsEv
Iie:__ZN5physx16PxsIslandManager11freeBuffersEv
Pwe:__ZN5Unity12PhysicsQuery21OverlapBoxUserCollectERK8Vector3fS3_RK11Quaternionfi23QueryTriggerInteractionRN8IPhysics12IUserCollectE
x5b:__ZN9ShaderLab20SerializedSubProgram14AddMatrixParamEPKcii15ShaderParamTypei
Ee:_glGetActiveUniformBlockName
RTk:_Parser_IsIgnoreCase_m2210120858
Mol:__ZN6il2cpp2vm13MetadataCache28GetGenericContainerFromIndexEi
GWa:__ZN27UnloadUnusedAssetsOperationD0Ev
KA:__ZN4FMOD7Channel20set3DConeOrientationEP11FMOD_VECTOR
co:FUNCTION_TABLE_iiifii
ztg:_AssemblyBuilder_not_supported_m1735277432
IOl:__ZN6il2cpp2vm12GenericClass11SetupEventsEP11Il2CppClass
kAe:_ft_open_face_internal
SHe:_tt_cmap12_get_info
qKl:__ZN6il2cpp2vm15ReboxIReferenceEP14Il2CppIUnknownP11Il2CppClass
tdl:__ZN6il2cpp6icalls8mscorlib6System7Decimal14decimalCompareEP19il2cpp_decimal_reprS5_
W4i:_Dictionary_2_OnDeserialization_m4209543208_gshared
pVl:__ZThn4_N6il2cpp2vm13CachedCCWBaseINS0_13ManagedObjectEE7ReleaseEv
Yqd:__ZN5physx26PxcFsComputeJointLoadsSimdERKNS_9PxcFsDataEPKNS_12PxcFsInertiaEPNS_6shdfnd3aos6Mat33VEPKfjjNS_21PxcFsScratchAllocatorE
zQd:__ZN5physx6shdfnd8SyncImpl7getSizeEv
fZh:_RNGCryptoServiceProvider_GetNonZeroBytes_m1918423726
Zxj:__Z100RuntimeInvoker_Void_t1185182177_RuntimeObject_Int32_t2950945753_Int32_t2950945753_UInt16_t2177724958PFvvEPK10MethodInfoPvPS4_
vem:_glCopyTexImage2D__wrapper
GXc:__ZN16PhysicsManager2D11CreateWorldERK8Vector2f
tub:__Z18ClearByDrawingQuad13GfxClearFlagsRK10ColorRGBAffjR17ShaderPassContext
v3:__ZN6prcoreL17RemapGenericFloatI14TexFormatRHalf15TexFormatRFloatEEvPKNS_9InnerInfoE
vqg:_NumberFormatter_FormatExponential_m2139559983
asj:__Z155RuntimeInvoker_Void_t1185182177_RuntimeObject_SByte_t1669577662_SByte_t1669577662_Int64U26_t200113976_ObjectU26_t2146539884_SerializationInfoU26_t419328957PFvvEPK10MethodInfoPvPS4_
b0:__ZN15DirectorManager21RebuildStageCallbacksEv
Lub:__ZN19RuntimeSceneManager9LoadSceneERKN4core12basic_stringIcNS0_20StringStorageDefaultIcEEEES6_S6_RK9UnityGUIDiNS_11LoadingModeE
kyg:_Application_Internal_ApplicationQuit_m2936209313
bAb:__ZN7ApiGLES10DrawArraysE16GfxPrimitiveTypejjj
ID:__ZN10SampleClip13LoadBaseSoundEv
G3c:__ZN5physx2Gu22gjkRelativePenetrationINS0_17ShrunkConvexHullVES2_EEjRKT_RKT0_RKNS_6shdfnd3aos15PsMatTransformVERKNSA_6FloatVERNSA_5Vec3VESI_SI_RSE_PhSK_Rh
Qai:_SmallXmlParser_SkipWhitespaces_m4243606597
Joi:_CompareInfo_IndexOf_m2631915198
zdb:__ZN14SafeBinaryRead21TransferSTLStyleArrayI13dynamic_arrayI10Matrix4x4fLj0EEEEvRT_17TransferMetaFlags
J4e:_TriggerEvent__ctor_m87299207
r2e:__ZN9Scripting11UnityEngine12Experimental27Internal_SubsystemInstances12CleanupProxyEv
vG:__Z57AudioSource_CUSTOM_INTERNAL_CALL_ClearExtensionPropertiesP12Il2CppObjectRK12PropertyName
BOl:__ZN15dense_hashtableINSt3__24pairIK10KeyWrapperIP12Il2CppObjectEN6il2cpp2gc9CachedCCWEEES5_NS7_5utils11PointerHashIS3_EEN14dense_hash_mapIS5_S9_SD_NS5_14EqualsComparerINS0_8equal_toIS4_EEEENS0_9allocatorISA_EEE9SelectKeyESI_SK_E15insert_noresizeERKSA_
Gje:__ZN5physx2Sc19ParticlePacketShapeC2ERNS0_17ParticleSystemSimEjPNS_16PxvParticleShapeE
gSc:__ZN18PlatformEffector2D8TransferI24GenerateTypeTreeTransferEEvRT_
U9i:_EqualityComparer_1__cctor_m3962593840_gshared
iza:__ZN22DeviceMVPMatricesStateC2ER9GfxDevice
EAd:__ZN5physx9NpPhysics18createTriangleMeshERNS_13PxInputStreamE
po:FUNCTION_TABLE_iiiiifiiiif
Mn:FUNCTION_TABLE_iifii
ali:_Comparer_Compare_m3984347512
GAl:__ZN6il2cpp2vm10Reflection12HasAttributeEP9FieldInfoP11Il2CppClass
Zaa:__ZN9Scripting11UnityEngine12Experimental9Rendering11CullResults9InitProxyEv
Ic:invoke_viiifi
Rec:__Z13RegisterClassI6SpriteEvPKc
Ymf:_MonoProperty_GetCustomAttributes_m3619796755
Qne:__ZN5physx6shdfnd5ArrayIPNS_7PxActorENS0_19ReflectionAllocatorIS3_EEE8recreateEj
Mvf:_MethodDictionary_System_Collections_IEnumerable_GetEnumerator_m4169036899
RIk:_RIPEMD160Managed_JJJ_m4161373884
_7i:_DefaultComparer_Equals_m3257444875_gshared
Of:_JS_Sound_SetPosition
oua:__ZN19RenderBufferManager13GetTempBufferEii17DepthBufferFormat19RenderTextureFormatj22RenderTextureReadWrite14VRTextureUsagei23RenderTextureMemoryless
xol:__ZL13GetSharedInstPK17Il2CppGenericInst
Ppa:__Z27ConvertSubMeshesToTrianglesIjEvR13dynamic_arrayI7SubMeshLj0EERS0_IhLj0EE
Xjl:__ZNK15dense_hashtableINSt3__24pairIK10KeyWrapperIPKcEP11Il2CppClassEES5_N6il2cpp5utils11StringUtils12StringHasherIS4_EEN14dense_hash_mapIS5_S8_SE_NS5_14EqualsComparerINSB_13VmStringUtils21CaseSensitiveComparerEEENS0_9allocatorIS9_EEE9SelectKeyESJ_SL_E3endEv
kWe:__ZN22BaseUnityConnectClient17SaveSessionValuesEv
fih:_InternalEnumerator_1_get_Current_m476140818_gshared
XDd:__ZNK5physx7NpCloth14getNbParticlesEv
zgd:__ZN5physx2Sc10NPhaseCore24releaseShapeInstancePairEPNS0_19ShapeInstancePairLLEjj
VRb:__Z24SetupActiveLightsContextR21ActiveLightingContextRK12ActiveLightsRK11CullResultsP14ShadowMapCacheRK10MinMaxAABB
B7b:__Z38Sprite_CUSTOM_INTERNAL_get_textureRectP12Il2CppObjectP5RectTIfE
szl:__ZNK15dense_hashtableINSt3__24pairIK10KeyWrapperIPK22Il2CppGenericParameterEPK24MonoGenericParameterInfoEES6_N6il2cpp5utils11PointerHashIS4_EEN14dense_hash_mapIS6_SA_SF_NS6_14EqualsComparerINS0_8equal_toIS5_EEEENS0_9allocatorISB_EEE9SelectKeyESK_SM_E3endEv
cac:__ZN9TextAsset7SetTextERKN4core12basic_stringIcNS0_20StringStorageDefaultIcEEEE
zka:__ZN6Camera8TransferI24GenerateTypeTreeTransferEEvRT_
Sa:invoke_iiiiiiif
Ma:invoke_iiiiiiii
Rjk:_Array_InternalArray__set_Item_TisByte_t1134296376_m3104140039_gshared
GMg:_Rect_ToString_m447614148
dNk:_PKCS12_GetBytes_m415958948
JJb:__ZN8Renderer17PendingAddToSceneEv
xwd:__ZN5physx7NpActor18releaseConstraintsERNS_12PxRigidActorE
Ced:__ZN5physx6shdfnd5ArrayINS_11PxDebugLineENS0_19ReflectionAllocatorIS2_EEE8recreateEj
kim:b125
jim:b124
mim:b127
lim:b126
oim:b129
w8b:__Z52Register_UnityEngine_RectTransform_INTERNAL_get_rectv
iT:__Z21PostprocessStacktracePKcRN4core12basic_stringIcNS1_20StringStorageDefaultIcEEEE
k8f:__ZL73ContactFilter2D_t3805203441_CustomAttributesCacheGenerator_minNormalAngleP21CustomAttributesCache
bGg:_ManagedStreamHelpers_ManagedStreamLength_m2930872960
g8b:__Z43RectTransform_CUSTOM_INTERNAL_get_anchorMinP12Il2CppObjectP13Vector2fIcall
kOd:__ZNK5physx14NpRigidDynamic25getContactReportThresholdEv
vzi:_FileStreamAsyncResult_CBWrapper_m1670848754
rbc:__Z47Register_UnityEngine_Camera_get_allCamerasCountv
aaf:___clang_call_terminate
Xu:__ZN16MecanimAnimation25RegisterIAnimationBindingEPKN5Unity4TypeEiP17IAnimationBinding
hoc:__ZNSt3__26vectorIj13stl_allocatorIjL18MemLabelIdentifier1ELi16EEE6assignIPKtEENS_9enable_ifIXaasr21__is_forward_iteratorIT_EE5valuesr16is_constructibleIjNS_15iterator_traitsIS9_E9referenceEEE5valueEvE4typeES9_S9_
rDc:__ZL26Transfer_SimpleNativeClassI8JSONRead10RectOffsetLb0EEvRK29SerializationCommandArgumentsR31RuntimeSerializationCommandInfo
Ppc:__Z12Base64EncodePKhjRN4core12basic_stringIcNS1_20StringStorageDefaultIcEEEEiRKS5_
ife:__Z22updateIslandsToProcessRKN5physx2Cm10BitMapBaseINS_6shdfnd9AllocatorEEEPKjRKNS_11NodeManagerERS4_
VIb:__ZN12InputManager13InputEndFrameEv
AHg:_Object_get_name_m4211327027
YDl:__ZN6il2cpp2vm6Thread5SetupEP12Il2CppThread
M2d:__ZN5physx35PxcSweepEstimateAnyShapeHeightfieldERKNS_11PxsCCDShapeES2_PKNS_12PxsRigidBodyES5_RKNS_11PxTransformES8_f
Tvh:_Enumerator_System_Collections_IDictionaryEnumerator_get_Key_m2500634048_gshared
Ped:__ZN5physx3Cct13BoxControllerC2ERKNS_16PxControllerDescERNS_9PxPhysicsEPNS_7PxSceneE
ggl:_NativeNameAttribute__ctor_m3296876808
Y3l:___munmap
p3i:_RSAManaged_get_PublicOnly_m595121416
Fg:_localtime_r
iKb:__ZN22RenderingCommandBuffer13GetAndCheckRTE24BuiltinRenderTextureTypeRKN9ShaderLab16FastPropertyNameEPKcPP13RenderTexture
OO:__Z19free_alloc_internalPv10MemLabelId
Qhl:__ZNSt3__26vectorIjNS_9allocatorIjEEE6resizeEj
yu:__ZN9Scripting11UnityEngine10Animations18PositionConstraint9InitProxyEv
Ig:_strftime
Fua:__ZN7Texture33SetStoredColorSpaceNoDirtyNoApplyE17TextureColorSpace
bpf:_ResourceSet__ctor_m3618395942
aMi:_Decimal_System_IConvertible_ToDouble_m3125524987_AdjustorThunk
XX:__ZN12FileAccessorD2Ev
cqa:__ZN14VertexDataInfoC2Ev
lQl:__ZN6il2cpp2gc16GarbageCollector14CollectALittleEv
Umc:__ZNK9HPlayable15GetPlayableTypeEv
Jlb:__ZL17Transfer_GUIStyleI18StreamedBinaryReadILb1EELb1EEvRK29SerializationCommandArgumentsR31RuntimeSerializationCommandInfo
w8g:_RectMask2D_IsRaycastLocationValid_m1652308696
lR:__ZNSt3__26__treeINS_12__value_typeIPKciEENS_19__map_value_compareIS3_S4_15compare_tstringIS3_ELb1EEENS_9allocatorIS4_EEE21__emplace_unique_implIJNS_4pairIPciEEEEENSD_INS_15__tree_iteratorIS4_PNS_11__tree_nodeIS4_PvEEiEEbEEDpOT_
psl:__ZN6il2cpp6icalls8mscorlib6SystemL9IsPrivateEPK12PropertyInfo
mNk:_X501_ToString_m1148552872
S2d:__ZNK5physx18PxcConvexTriangles16getPolygonNormalEj
vNg:_RectTransform_add_reapplyDrivenProperties_m1374850920
wS:__ZN9shadertag10InitializeEv
Bte:__ZN5physx24NpPtrTableStorageManager8canReuseEjj
Xwe:__GLOBAL__sub_I_Modules_Terrain_Public_1_cpp
SEa:__ZN15QualitySettings14QualitySetting8TransferI24GenerateTypeTreeTransferEEvRT_
mJl:__ZN6il2cpp6icalls8mscorlib6System13Globalization11CultureInfo25construct_datetime_formatEP17Il2CppCultureInfo
aTd:__ZN5physx2Sc27ConstraintProjectionManager33processConstraintForGroupBuildingEPNS0_13ConstraintSimERNS0_20ScratchAllocatorListIS3_Lj64EEE
Ftc:__Z44Register_UnityEngine_Object_DestroyImmediatev
HHi:_Convert_ToSingle_m835189399
U6b:__ZN22BlockMemoryCacheWriter14LockCacheBlockEjPPhS1_
FNe:__ZN9Scripting11UnityEngine8Tilemaps8TileData12CleanupProxyEv
eRd:__ZN5physx2Cm29ConstraintImmediateVisualizer19visualizeDoubleConeERKNS_11PxTransformEfb
mYj:_UInt64_ToString_m2177233542
Ut:__ZN9Scripting11UnityEngine21StateMachineBehaviour9InitProxyEv
aEc:__Z22TransferField_NonArrayI8JSONRead27Converter_SimpleNativeClassI8GUIStyleEEvRK23StaticTransferFieldInfoR31RuntimeSerializationCommandInfoRT0_
c8c:__ZN5physx6shdfnd5ArrayINS_13PxExtendedBoxENS0_19ReflectionAllocatorIS2_EEE8recreateEj
v8d:__ZN5physx20ProcessBPResultsTask11runInternalEv
Kkd:__ZN5physx6shdfnd5ArrayIPvNS0_19ReflectionAllocatorINS_2Cm5BlockIS2_Lj16EEEEEE4copyINS0_15InlineAllocatorILj256ES7_EEEEvRKNS1_IS2_T_EE
nh:_llvm_eh_typeid_for
Vem:_glGetUniformLocation__wrapper
XUg:_RemotingServices_FindInterfaceMethod_m2125212568
ITd:__ZN5physx7NpScene19getActiveTransformsERjh
pBi:_StreamWriter__cctor_m1229272693
Agd:__ZN5physx2Sc10NPhaseCore39pool_deleteParticleElementRbElementPairEPNS0_35ParticleElementRbElementInteractionEjj
ePi:_Enum_System_IConvertible_ToSByte_m779472798
G1d:__ZN5physx6shdfnd8internal8HashBaseIjjNS0_4HashIjEENS1_11HashSetBaseIjS4_NS0_9AllocatorELb0EE6GetKeyES6_Lb0EE6createERKjRb
_nb:__Z18Transfer_BlittableI18StreamedBinaryReadILb0EELb1E8Vector4fEvRK29SerializationCommandArgumentsR31RuntimeSerializationCommandInfo
oye:__ZN14SafeBinaryRead21TransferSTLStyleArrayI13dynamic_arrayIN4core17string_with_labelILi35EEELj0EEEEvRT_17TransferMetaFlags
n6k:__ZL25UnresolvedVirtualCall_142P12Il2CppObject17Color_t2555686324faaaPK10MethodInfo
L7i:_Dictionary_2_U3CCopyToU3Em__0_m2023886030_gshared
fhm:_glBindVertexArray__wrapper
lqe:__ZN5physx6shdfnd5ArrayINS_11RTreeNodeNQENS0_19ReflectionAllocatorIS2_EEE19resizeUninitializedEj
vhd:__ZNK5physx2Sc16InteractionScene18getLLIslandManagerEv
SWg:_SerializationInfo__ctor_m2923079689
Axa:__ZN8Material8TransferI14SafeBinaryReadEEvRT_
p2d:__ZN5physx17PxcNpMemBlockPool34acquireExceptionalConstraintMemoryEj
MBa:__ZN12CubemapArray17UploadToGfxDeviceEv
zti:_Int32_JumpOverWhite_m208298144
B3d:__ZN5physxL23PxcSweepConvexTrianglesERKNS_11PxsCCDShapeES2_RKNS_11PxTransformES5_S5_S5_fRNS_6PxVec3ES7_RNS_10PxcNpCacheERNS_18PxcNpThreadContextERKNS_2Cm23FastVertex2ShapeScalingERNS_2Gu9TriangleVEf
aCd:__ZNK5physx7NpShape16getPlaneGeometryERNS_15PxPlaneGeometryE
CIj:__Z53RuntimeInvoker_Int32_t2950945753_UIVertex_t4057497605PFvvEPK10MethodInfoPvPS4_
Xfm:_emscripten_glGetUniformiv__wrapper
iVl:__ZN6il2cpp2vm13ManagedObject14QueryInterfaceERK10Il2CppGuidPPv
vqe:__ZN5physx27InternalTriangleMeshBuilder14fillRemapTableEv
rB:__ZN11AudioSource4StopEb
Xod:__ZN5physx6shdfnd8PoolBaseINS_13NpRigidStaticENS0_19ReflectionAllocatorIS2_EEE17releaseEmptySlabsEv
Mbi:_AppDomain_LoadAssembly_m1557889794
p9a:__ZN18GlslGpuProgramGLESD2Ev
jYb:__ZN13RenderTexture14SetVolumeDepthEi
Ajf:_EventInfo_get_EventHandlerType_m420690865
Kbe:__ZN5physx2Gu20pcmContactCapsuleBoxERKNS0_13GeometryUnionES3_RKNS_11PxTransformES6_RKfRNS0_5CacheERNS0_13ContactBufferE
pxj:__Z86RuntimeInvoker_Void_t1185182177_UInt16_t2177724958_SByte_t1669577662_SByte_t1669577662PFvvEPK10MethodInfoPvPS4_
k5b:__Z22LoadGpuProgramFromDataPKhS0_Rj
GEc:__ZN10Matrix4x4f8TransferI8JSONReadEEvRT_
ynb:__Z15Transfer_StringI18StreamedBinaryReadILb0EELb0EEvRK29SerializationCommandArgumentsR31RuntimeSerializationCommandInfo
g8g:_PositionAsUV1_ModifyMesh_m4231919476
cmi:_Hashtable__ctor_m1941859523
nPb:__Z26FindForwardLightsForObjectR13dynamic_arrayIhLj0EEPK11CulledLightjRK12ActiveLightsRK10RenderNodePK19ShaderPropertySheetbRK23FindForwardLightsParamsf
J7:__ZL44__ManagedRegistrationHelperFunction_GPUFencePv
abh:_ScrollRect_set_horizontalScrollbarSpacing_m2209919081
eEb:__ZN25TransformFeedbackSkinning31CleanupTransformFeedbackShadersEv
MUj:_Type_GetTypeCodeInternal_m1968182887
gla:__Z22scripting_object_unbox18ScriptingObjectPtr
tze:__ZNK20TextRenderingPrivate8FontImpl19GetCharacterAdvanceEjijfPj
AXi:_Array_InternalArray__ICollection_Add_TisUriScheme_t722425697_m3142345403_gshared
x2l:_fmt_u
UIa:__ZN10VertexData8TransferI18StreamedBinaryReadILb0EEEEvRT_
Lod:__ZN5physx2Sc5Scene9addStaticERNS0_10StaticCoreEPKPvjj
z1l:__ZN6il2cpp8metadata25Il2CppGenericClassCompare7CompareEPK18Il2CppGenericClassS4_
tog:_MonoType_get_Assembly_m4290914179
V5b:__ZN9ShaderLab7ProgramC2E10MemLabelIdi10ShaderType
uYb:__ZN14PreloadManager16UpdatePreloadingEv
ija:__ZN12BaseRendererD2Ev
bac:__ZNSt3__26vectorI4PPtrI10MonoScriptE13stl_allocatorIS3_L18MemLabelIdentifier79ELi16EEE6insertENS_11__wrap_iterIPKS3_EERS9_
o_d:__ZN5physx2Sc5Scene9addShapesEPKPvjjRNS0_8RigidSimEPNS_12PxsRigidBodyERPNS0_8ShapeSimEPNS_9PxBounds3E
Pkk:_Array_InternalArray__set_Item_TisUILineInfo_t4195266810_m2313892078_gshared
Aae:__ZN5physx23PxcPCMContactConvexMeshERKNS_2Gu13GeometryUnionES3_RKNS_11PxTransformES6_RKfRNS_10PxcNpCacheERNS0_13ContactBufferE
G$b:__ZNK21UnityDefaultAllocatorI17LowLevelAllocatorE8ContainsEPKv
EYg:_RuntimeTypeHandle_Equals_m2857439487
xi:_emscripten_get_main_loop_timing
yqf:_SafeHandle_Finalize_m3866180675
REa:__ZN24GenerateTypeTreeTransfer21TransferSTLStyleArrayINSt3__26vectorIN15QualitySettings14QualitySettingENS1_9allocatorIS4_EEEEEEvRT_17TransferMetaFlags
Yzi:_MemoryStream_ToArray_m3911744835
svh:_Enumerator_System_Collections_IDictionaryEnumerator_get_Entry_m859540448_AdjustorThunk
xXb:__ZN23ManagedAttributeManager52CallManagedGetParentTypeDisallowingMultipleInclusionE17ScriptingClassPtr
ZPa:__Z10AddGUIAxesR13dynamic_arrayI9InputAxisLj0EE
TUj:_Type_GetHashCode_m1947148725
ysj:__Z91RuntimeInvoker_Void_t1185182177_RuntimeObject_RuntimeObject_RuntimeObject_SByte_t1669577662PFvvEPK10MethodInfoPvPS4_
aYa:__ZNK2UI13RectTransform22GetTypeVirtualInternalEv
lq:getTempRet0
Kae:__ZN5physx2Gu33MultiplePersistentContactManifold24addManifoldContactPointsEPNS0_21MeshPersistentContactEjPPNS0_15PCMContactPatchEjRKNS_6shdfnd3aos6FloatVESB_h
K3e:_BaseRaycaster_OnEnable_m2678466030
BDg:_UnityEventBase__ctor_m1851535676
Umk:_Array_Sort_TisVector4_t3319028937_m2797285308_gshared
eWh:_HandshakeMessage_Update_m2417837686
Xel:_Physics_RaycastAll_m3796226007
UGl:__ZN6il2cpp6icalls8mscorlib6System9ThreadingL21lookup_cached_cultureEP12Il2CppThreadi
YCg:_NetFxCoreExtensions_CreateDelegate_m751211712
SSb:__ZN18DeferredRenderLoopD2Ev
wcl:_AnimationLayerMixerPlayable__cctor_m4086299972
gea:__ZNK16TypeTreeIterator4NameEv
vX:__ZN15FileSystemEntry3SetEPKc
Ehe:__ZN5physx6shdfnd5ArrayIPNS_13PxcNpMemBlockENS0_19ReflectionAllocatorIS3_EEE6resizeEjRKS3_
w2j:_ReadOnlyCollection_1_System_Collections_Generic_IListU3CTU3E_Insert_m568455025_gshared
rA:__ZN20SoundChannelInstance15ParameterBuffer5ApplyEPN4FMOD7ChannelE
BFh:_IPv6Address__ctor_m4117281080
bHi:_Convert_ToInt64_m2075293963
qze:__ZN20TextRenderingPrivate19NativeTextGenerator9InsertTabEv
M6l:_sbrk
mzg:_Bounds_GetHashCode_m1844059663
xy:__ZL49__ManagedRegistrationHelperFunction_AudioSettingsPv
rue:__ZN5physx7profile8ZoneImplINS_28PxProfileNameProviderForwardEE21setProfileZoneManagerEPNS_20PxProfileZoneManagerE
KXe:__ZN11UnityEngine15PlatformWrapper24GetRuntimePlatformStringEv
hj:_glIsEnabled
xcd:__ZN5physx3Cct17CapsuleController15setFootPositionERKNS_14PxExtendedVec3E
X5c:__ZN5physx2Gu33PCMCapsuleVsMeshContactGeneration13generateEEMTDERKNS_6shdfnd3aos5Vec3VES6_RKNS3_6FloatVES6_jS6_S6_PNS0_21MeshPersistentContactERj
Etg:_DerivedType__ctor_m1853298054
lcb:__Z25scripting_class_get_image17ScriptingClassPtr
GIa:__ZN10SpriteBone8TransferI24GenerateTypeTreeTransferEEvRT_
frk:_List_1_RemoveAt_m2730968292_gshared
HSa:__ZNSt3__26vectorIN4core12basic_stringIcNS1_20StringStorageDefaultIcEEEE13stl_allocatorIS5_L18MemLabelIdentifier13ELi16EEEC2INS_11__wrap_iterIPS5_EEEET_SE_RKS8_PNS_9enable_ifIXaasr21__is_forward_iteratorISE_EE5valuesr16is_constructibleIS5_NS_15iterator_traitsISE_E9referenceEEE5valueEvE4typeE
lj:_emscripten_glDrawElementsInstanced
KVf:__ZL48Mathf_t3464937446_CustomAttributesCacheGeneratorP21CustomAttributesCache
yUf:__ZL79Camera_t4157153871_CustomAttributesCacheGenerator_Camera_RaycastTry_m3913529496P21CustomAttributesCache
u5g:_LayoutGroup_get_preferredWidth_m3816902260
Ota:__ZN18JobBatchDispatcherD2Ev
XXa:__ZN9Transform17MainThreadCleanupEv
XXl:_GC_clear_hdr_marks
aim:_emscripten_glCreateShader__wrapper
XBe:_cff_fd_select_get
ieh:_Text_set_resizeTextForBestFit_m4095249125
KHh:_OidEnumerator_MoveNext_m3138911739
jHj:__Z53RuntimeInvoker_Boolean_t97287965_Keyframe_t4206410242PFvvEPK10MethodInfoPvPS4_
wj:_emscripten_glGetShaderiv
KB:__ZN4FMOD6System10getVersionEPj
zie:__ZN5physx2Sc7BodySim10sleepCheckEffb
HOe:__ZN2UI6Canvas23VirtualRedirectTransferER24GenerateTypeTreeTransfer
rch:_Selectable_set_animationTriggers_m2970345687
iCc:__ZN9JSONWrite8TransferIN4math12int2_storageEEEvRT_PKc17TransferMetaFlags
aye:__ZN13TextRendering4Font13AwakeFromLoadE17AwakeFromLoadMode
Poi:_CompareInfo_LastIndexOf_m2688553706
Bhm:_emscripten_glCullFace__wrapper
j4a:__ZN9GfxDevice21ReleaseSharedMeshDataEP14SharedMeshData
A6e:_MouseState__ctor_m1467839005
HUk:_Uri_IsDomainAddress_m2867513594
IRa:__ZNSt3__27__sort5IRNS_6__lessINS_4pairIPKN5Unity4TypeE7Hash128EES8_EEPS8_EEjT0_SC_SC_SC_SC_T_
Adf:_Dropdown_CreateItem_m2954407740
cXl:_GC_unreachable_finalize_mark_proc
EKg:_PlayerConnectionInternal_PollInternal_m3759016321
fJh:_X509Chain_ProcessCrlExtensions_m236234529
Dg:___syscall192
AYl:_maybe_finalize
$il:__ZN6il2cpp2vm5Class40GetInterfaceInvokeDataFromVTableSlowPathEPK12Il2CppObjectPK11Il2CppClassj
j8b:__Z43RectTransform_CUSTOM_INTERNAL_get_anchorMaxP12Il2CppObjectP13Vector2fIcall
fxd:__ZN5physx14NpShapeManagerC2Ev
EUg:_RemotingConfiguration_RegisterChannelTemplate_m3105688054
uFi:_Decimal_Parse_m942471224
Nna:__ZN8Material28UpdateHashesOnPropertyChangeEN9ShaderLab16FastPropertyNameE
cbc:__Z53Register_UnityEngine_SortingLayer_GetLayerValueFromIDv
rPh:_ASN1_GetBytes_m1968380955
ebb:__Z18Transfer_BlittableI14SafeBinaryReadLb1E8Vector4fEvRK29SerializationCommandArgumentsR31RuntimeSerializationCommandInfo
s1e:__ZN13RuntimeStaticINSt3__26vectorI23UnityVRDeviceDefinition13stl_allocatorIS2_L18MemLabelIdentifier90ELi16EEEELb0EE13StaticDestroyEPv
lLl:__ZN6il2cpp2vm5Image13ClassFromNameEPK11Il2CppImagePKcS6_
E7l:dynCall_vdddddd
s3b:__ZN24GenerateTypeTreeTransfer21TransferSTLStyleArrayINSt3__26vectorIN9ShaderLab14SerializedPassENS1_9allocatorIS4_EEEEEEvRT_17TransferMetaFlags
YS:__ZL32MarkLevelGameManagerDependenciesR27GarbageCollectorThreadState
jzb:__ZNK13GfxDeviceGLES26HasActiveRandomWriteTargetEv
IAf:__ZL54_MemberInfo_t3922476713_CustomAttributesCacheGeneratorP21CustomAttributesCache
Fcm:_glGetActiveUniformsiv__wrapper
Oxa:__ZN14SafeBinaryRead8TransferINSt3__24pairIN9ShaderLab16FastPropertyNameE10ColorRGBAfEEEEvRT_PKc17TransferMetaFlags
G7c:__ZNK5physx3Cct10Controller16getInternalStateERNS_17PxControllerStateE
FHg:_Mesh_GetIndices_m2873123901
rV:__ZN13MonoBehaviour19SetupScriptingCacheE17ScriptingClassPtrP10MonoScript
_jc:__ZZN8Renderer15InitializeClassEvEN28FunctorImpl_145kLayerChanged4CallEPviR11MessageData
o6e:_PointerEventData_get_dragging_m746831934
oZd:__ZN5physx10PxsContext15setScratchBlockEPvj
t8j:_ReadOnlyCollection_1_System_Collections_IEnumerable_GetEnumerator_m2781605075_gshared
Saa:__ZN9Scripting11UnityEngine12Experimental9Rendering15ShadowSplitData12CleanupProxyEv
N$:__ZZN15DirectorManager15InitializeClassEvEN52PreLateUpdateDirectorUpdateAnimationBeginRegistrator7ForwardEv
cQi:_Array_get_swapper_TisCustomAttributeNamedArgument_t287865710_m4254011335_gshared
Eff:_Graphic_RegisterDirtyMaterialCallback_m106898453
TWk:_GUILayoutEntry_get_margin_m3174861737
$fd:__ZN5physx2Cm27getDynamicGlobalPoseAlignedERKNS_11PxTransformES3_S3_RS1_
J2b:__ZNSt3__26vectorIN9ShaderLab14SerializedPassENS_9allocatorIS2_EEE8__appendEj
doe:__ZN5physx6shdfnd5ArrayIPvNS0_19ReflectionAllocatorIN17PxcPoolMallocData10PoolData32EEEE15growAndPushBackERKS2_
Y1b:__ZNSt3__26vectorIN9ShaderLab20SerializedSubProgram13BufferBindingENS_9allocatorIS3_EEEC2INS_11__wrap_iterIPS3_EEEET_SB_RKS5_PNS_9enable_ifIXaasr21__is_forward_iteratorISB_EE5valuesr16is_constructibleIS3_NS_15iterator_traitsISB_E9referenceEEE5valueEvE4typeE
f6h:_Encoding_get_ISOLatin1_m2107621369
hKc:__ZNK16PhysicsManager2D21GetAutoSyncTransformsEv
GOh:_BigInteger_op_Inequality_m2697143438
SIc:__ZN12b2WheelJoint24SolveVelocityConstraintsERK12b2SolverData
ysb:__ZNK25PathNamePersistentManager30PathIDToFileIdentifierInternalEi
XDa:__ZN9Texture2D23VirtualRedirectTransferER18StreamedBinaryReadILb0EE
uUc:__ZN10Collider2D8TransferI24GenerateTypeTreeTransferEEvRT_
uJi:_DateTime_System_IConvertible_ToDouble_m2116720007_AdjustorThunk
Rki:_BitArrayEnumerator__ctor_m2359341397
ugj:_Enumerator_MoveNext_m1177880931_gshared
o3f:__ZL73g_UnityEngine_TextRenderingModule_Assembly_CustomAttributesCacheGeneratorP21CustomAttributesCache
YV:__ZN16ScriptingManager27NativeTypeForScriptingClassE17ScriptingClassPtr
CXj:_UInt64_System_IConvertible_ToDateTime_m3434604642
yUj:_Type_get_IsSerializable_m1040556850
EGe:_get_sfnt_table
hRk:_Parser_ResolveReferences_m1518052352
nib:__Z29Transfer_Blittable_ArrayFieldI24GenerateTypeTreeTransferiEvRT_R9ArrayInfoRK23StaticTransferFieldInfo
HFa:__ZN8Renderer20RendererAddedToSceneEv
uUb:__ZL22ScheduleSceneNodesJobsP25ScheduleSceneNodesJobDataj
V5d:__ZN5physx22concludeContactCoulombERKNS_23PxcSolverConstraintDescERNS_16PxcSolverContextE
ol:_emscripten_set_canvas_size
Ief:_Graphic_SetVerticesDirty_m2124914069
mJd:__ZNK5physx15NpParticleFluid12getStiffnessEv
Soi:_CultureInfo__ctor_m3285927757
j7g:_MaskableGraphic_get_rootCanvasRect_m3492154629
qHc:__ZN9Scripting11UnityEngine9Physics2D9InitProxyEv
Llk:_Array_Resize_TisRaycastResult_t3360306849_m1811054291_gshared
sic:__ZN12MeshRenderer27PrepareSingleRendererUpdateER13RendererSceneRS_10MemLabelId
p2b:__ZNSt3__26vectorIN9ShaderLab20SerializedSubProgramENS_9allocatorIS2_EEE8__appendEj
$O:__ZN20DynamicHeapAllocatorI17LowLevelAllocatorE8AllocateEji
cUe:__ZN11UnityEngine9Analytics15UserCustomEvent12ToJsonStringER9JSONWrite
pYk:_Locale_GetText_m2427493201
xMb:__ZN20DynamicPropertySheet15SetVectorQueuedERKN9ShaderLab16FastPropertyNameERK8Vector4fN19ShaderPropertySheet8SetFlagsE
ymh:_InternalEnumerator_1_get_Current_m3191242573_AdjustorThunk
Fsa:__ZN14RenderSettings23VirtualRedirectTransferER19StreamedBinaryWriteILb0EE
GAc:__ZL26Transfer_SimpleNativeClassI9JSONWrite10RectOffsetLb0EEvRK29SerializationCommandArgumentsR31RuntimeSerializationCommandInfo
wXl:_GC_push_conditional
VTe:__ZN21UnityAnalyticsManager23VirtualRedirectTransferER24GenerateTypeTreeTransfer
yLa:__ZN17GenericDynamicVBO10AllocateVBEjR21DynamicVBOChunkHandle
_9d:__ZL27PxcTestFacesSepAxesBackfaceRKN5physx2Gu13PolygonalDataES3_RKNS_2Cm8Matrix34ES7_RKNS4_23FastVertex2ShapeScalingESA_S7_RKNS_6PxVec3ERfRSB_RjPjSG_fSD_
ELi:_DBNull_ToString_m3638608738
FMl:__ZN30dense_hashtable_const_iteratorI10KeyWrapperIP18Il2CppGenericClassES3_N6il2cpp8metadata22Il2CppGenericClassHashEN14dense_hash_setIS3_S6_NS3_14EqualsComparerINS5_25Il2CppGenericClassCompareEEENSt3__29allocatorIS3_EEE8IdentityESA_SD_EppEv
Oki:_BitArray_Clone_m3537018332
uWg:_ObjectRecord_UnchainFixup_m3191243952
kLk:_TlsStream_get_CanWrite_m16389328
WRe:__Z15GetUIModuleSpecv
Oxe:__ZN9Scripting11UnityEngine8UIVertex9InitProxyEv
Nl:_glMapBufferRange
PDa:__ZN9Texture2D8TransferI18StreamedBinaryReadILb0EEEEvRT_
Sdc:__Z31Input_CUSTOM_GetMouseButtonDowni
zEd:__ZNK5physx7NpCloth23getExternalAccelerationEv
IYa:__ZNK9Transform16GetLocalPositionEv
wog:_MonoType_get_BaseType_m1098640416
PTa:__ZN13LoadOperation19IntegrateTimeSlicedEi
DLk:_TlsStream_Read_m3392972801
t7d:__ZN5physx16PxsBroadPhaseMBP9updatePPUEPNS_10PxBaseTaskE
tzb:__ZN13GfxDeviceGLES22DispatchComputeProgramE12ObjectHandleI18ComputeProgram_TagPvE15ComputeBufferIDj
$Nj:_Latin1Encoding_GetString_m254210343
RVa:__Z17TransformAABBSlowRK4AABBRK10Matrix4x4fRS_
$di:_Array_combsort_m4052486289
yhi:_Char_System_IConvertible_ToUInt16_m2449138174
HC:__ZN24AudioScriptBufferManager27InitialCompleteDomainReloadEv
P0b:__ZN9ShaderLab21SerializedShaderState8TransferI14SafeBinaryReadEEvRT_
VPi:_Environment_GetWindowsFolderPath_m1738399646
bne:__ZN5physx2Gu13RTreeMidphaseC2Ev
XCe:_cf2_stack_pushInt
BBe:__ZNSt3__26__treeINS_12__value_typeIN20TextRenderingPrivate7FontRefEP11FT_FaceRec_EENS_19__map_value_compareIS3_S6_NS_4lessIS3_EELb1EEENS_9allocatorIS6_EEE7destroyEPNS_11__tree_nodeIS6_PvEE
vLd:__ZN5physx6shdfnd8PoolBaseINS_16NpParticleSystemENS0_19ReflectionAllocatorIS2_EEE12allocateSlabEv
Nkf:_Module_GetCustomAttributes_m76573271
_Zg:_CryptoConfig_EncodeOID_m2635914623
pya:__ZN15SerializeTraitsINSt3__24pairIN4core12basic_stringIcNS2_20StringStorageDefaultIcEEEES6_EEE8TransferI24GenerateTypeTreeTransferEEvRS7_RT_
oem:b89
nem:b88
dem:b81
cem:b80
GEb:__ZN7ApiGLES19CreateSparseTextureEjj14GraphicsFormatiiiiRiS1_S1_
MW:__ZN18ResourceImageGroup7CleanupEv
kem:b85
Oid:__ZN5physx2Gu36closestPtPointTetrahedronTesselationEPNS_6shdfnd3aos5Vec3VES4_S4_RjRS3_S6_
mem:b87
u6h:_String_CharCopy_m3838781968
nae:__ZN5physx25PxcPCMContactSphereConvexERKNS_2Gu13GeometryUnionES3_RKNS_11PxTransformES6_RKfRNS_10PxcNpCacheERNS0_13ContactBufferE
Bwf:_RemotingSurrogateSelector_GetSurrogate_m3900875713
mSh:_CertificateValidationCallback_Invoke_m1014111289
woa:__Z20RenderMultipleMeshesRK15RenderNodeQueueRK18RenderMultipleData16VertexInputMasks
Bm:_glDeleteShader
D3:__ZN6prcoreL17RemapGenericFloatI15TexFormatRGHalf16TexFormatRGFloatEEvPKNS_9InnerInfoE
Fmk:_Array_Sort_TisUICharInfo_t75501106_m128665067_gshared
iFe:_otv_GSUB_validate
PZh:_RSAPKCS1SignatureDeformatter_SetHashAlgorithm_m1602190713
YOi:_Enum_System_IConvertible_ToByte_m1219166845
wzd:__ZN5physx6shdfnd8PoolBaseINS_10NpMaterialENS0_19ReflectionAllocatorIS2_EEE15disposeElementsEv
L4i:_Dictionary_2_CopyToCheck_m45332585_gshared
a6b:__Z27scripting_add_internal_callPKcPKv
Nbi:_AppDomain_Load_m4174353770
LNl:__GLOBAL__sub_I_GarbageCollector_cpp
B2b:__ZNSt3__26vectorIN9ShaderLab20SerializedSubProgram16SamplerParameterENS_9allocatorIS3_EEE6assignIPS3_EENS_9enable_ifIXaasr21__is_forward_iteratorIT_EE5valuesr16is_constructibleIS3_NS_15iterator_traitsISA_E9referenceEEE5valueEvE4typeESA_SA_
_uc:__ZN9Scripting11UnityEngine3GUI9InitProxyEv
Avh:_Enumerator_MoveNext_m1556953412_AdjustorThunk
eQe:__Z44Register_UnityEngine_Canvas_get_pixelPerfectv
GTk:_Literal_GetAnchorInfo_m810577400
cTe:__ZN2UI14CanvasRenderer12SyncMaterialENS0_8SyncFlagE
ABi:_StreamWriter_Write_m1660535366
w$l:__ZN6il2cpp2vm9Parameter30GetDefaultParameterValueObjectEPK10MethodInfoPK13ParameterInfoPb
aQj:_UTF8Encoding_GetByteCount_m4152118078
A2i:_KeyPairPersistence__CanSecure_m3516574278
htj:__Z95RuntimeInvoker_Void_t1185182177_RuntimeObject_RuntimeObject_Int32_t2950945753_SByte_t1669577662PFvvEPK10MethodInfoPvPS4_
y0g:_MD5CryptoServiceProvider_Dispose_m3502499818
_Gk:_Collection_1_System_Collections_IList_get_Item_m2422562729_gshared
tta:__ZN12LightManager28IsLightTransformDataUpToDateEPK5Light
qHe:_UNITY_tt_face_done_kern
Xfh:_ArrayReadOnlyList_1_RemoveAt_m2104218585_gshared
KIa:__ZN12BoneWeights48TransferI24GenerateTypeTreeTransferEEvRT_
H6:__ZL49__ManagedRegistrationHelperFunction_PreLateUpdatePv
otb:__Z19scripting_gc_enablev
Bph:_InternalEnumerator_1_get_Current_m2907722321_gshared
NHb:__ZZ23InitPlayerLoopCallbacksvEN41InitializationPlayerUpdateTimeRegistrator7ForwardEv
Spc:__ZN11UTF16StringC2ERKS_10MemLabelId
Ave:__ZN5physx7profile11EventBufferINS_24PxDefaultContextProviderENS_6shdfnd6MutexTINS0_26WrapperReflectionAllocatorIhEEEENS0_14ScopedLockImplIS7_EENS_24PxProfileNullEventFilterEE9stopEventEty
Mqh:_InternalEnumerator_1_get_Current_m3792939945_AdjustorThunk
Bcf:_DefaultControls__cctor_m3473226132
Du:__ZN9Scripting11UnityEngine10Animations16ConstraintSource12CleanupProxyEv
KTj:_TimeSpan_Subtract_m1264203589_AdjustorThunk
yNc:__ZN19OverlapPointQuery2D14InitializeAABBER6b2AABB
Ojh:_InternalEnumerator_1_System_Collections_IEnumerator_get_Current_m888718134_gshared
cpj:__Z175RuntimeInvoker_Void_t1185182177_SByte_t1669577662_SByte_t1669577662_SByte_t1669577662_SByte_t1669577662_SByte_t1669577662_SByte_t1669577662_SByte_t1669577662_SByte_t1669577662PFvvEPK10MethodInfoPvPS4_
MUi:_Array_compare_TisRaycastResult_t3360306849_m822404090_gshared
sJg:_Object_Destroy_m3118546832
Y1j:_ReadOnlyCollection_1_System_Collections_Generic_IListU3CTU3E_set_Item_m519295790_gshared
SJi:_DateTime_FromTicks_m4059645178_AdjustorThunk
Kok:_Array_InternalArray__get_Item_TisClientCertificateType_t1004704908_m2297379651_gshared
osf:_ConfigHandler_ParseTime_m1787834288
c5b:__ZN9ShaderLab7Program27CreateFromSerializedProgramERKNS_17SerializedProgramE10ShaderTypeiP16PropertyNamesSetPK6Shader
bSi:_Array_InternalArray__ICollection_Remove_TisX509ChainStatus_t133602714_m3635989134_gshared
Xrg:_Assembly_Load_m3487507613
$x:__ZNSt3__27__sort4IRNS_6__lessIN4core12basic_stringIcNS2_20StringStorageDefaultIcEEEES6_EEPS6_EEjT0_SA_SA_SA_T_
d8l:dynCall_viiiifii
Cyl:__ZN6il2cpp2gc19AppendOnlyGCHashMapINSt3__24pairIPK11Il2CppImageP11Il2CppClassEEP22Il2CppReflectionModule17ReflectionMapHashIS9_ENS2_8equal_toIS9_EEEC2Ev
cU:__Z20GetPersistentManagerv
AKe:_UNITY_TT_Set_Var_Design
xQ:__ZN21SystemInfoStringCache16StaticInitializeEPv
KEk:_Collection_1__ctor_m3380123530_gshared
shd:__ZN5physx2Sc7BodySim18internalWakeUpBaseEf
x2j:_ReadOnlyCollection_1_System_Collections_Generic_ICollectionU3CTU3E_Remove_m1100818788_gshared
S1b:__ZNSt3__26vectorIN9ShaderLab20SerializedSubProgram15StructParameterENS_9allocatorIS3_EEE6assignIPS3_EENS_9enable_ifIXaasr21__is_forward_iteratorIT_EE5valuesr16is_constructibleIS3_NS_15iterator_traitsISA_E9referenceEEE5valueEvE4typeESA_SA_
b1j:_Collection_1_IsSynchronized_m2291009199_gshared
tVe:__ZN9Scripting11UnityEngine9Analytics21AnalyticsSessionState12CleanupProxyEv
Pqb:__ZNK13MonoBehaviour7GetNameEv
YWa:__ZN19ScriptingInvocation28AdjustArgumentsToMatchMethodEv
Thk:_IndexedSet_1_Contains_m1525966688_gshared
Tz:__Z15_CheckFMODError11FMOD_RESULTPKciS1_
LHl:__ZN6il2cpp6icalls8mscorlib6SystemL16ThrowInvalidCastEPK11Il2CppClassS5_
K$g:_HMAC_KeySetup_m661741544
PNj:_Latin1Encoding__ctor_m498920120
HBl:__ZN6il2cpp2vm4Type19GetGenericParameterEPK10Il2CppType
bBi:_StreamReader_Peek_m2272511193
CQe:__Z51Register_UnityEngine_CanvasGroup_get_blocksRaycastsv
Mpg:_NumberFormatter_get_IsFloatingSource_m3714711779
xle:__ZN5physx13BigConvexData5VLoadERNS_13PxInputStreamE
D9g:_Scrollbar_Set_m607000118
hVj:_Type_GetConstructor_m1195697116
Wd:_glBeginQuery
T6:__ZL48__ManagedRegistrationHelperFunction_VisibleLightPv
y$d:__ZN5physx11NodeManager6resizeEj
RXc:__ZN10Effector2D25CheckEffectorColliderMaskEP10Collider2DS1_
CJb:__ZN6Camera12RenderStereoENS_10RenderFlagE8CullFlagPNS_24PerformEyeRenderFunctionE
H_a:__ZN20LocalFileSystemPosix10ToAbsoluteEPKc
Zra:__ZN20TierGraphicsSettings8TransferI19StreamedBinaryWriteILb0EEEEvRT_
sgm:b111
XVa:__Z23CollectSceneGameObjectsR13dynamic_arrayIiLj0EE
uUl:__ZN6il2cpp2vm13ComObjectBase16DisconnectObjectEj
YUd:__ZNK5physx7NpScene28getSceneQueryStaticTimestampEv
gn:f0
v3l:_getcwd
bLc:__ZN16b2CapsuleContact6CreateEP9b2FixtureiS1_iP16b2BlockAllocator
zga:__ZN25ThreadsafeLinearAllocatorD2Ev
Bpc:__ZL50GetAndClearChangedTransformsForMultilpleSystemsJobP45GetChangedTransformsForMultipleSystemsJobDatajPK23TransformAccessReadOnlyPKyj
_0d:__ZN5physx2Sq10AABBPruner11preallocateEj
XUa:__Z21SendMessageToEveryoneRK17MessageIdentifier11MessageData
p_:__ZN21BillboardBatchManager16StaticInitializeEPv
ZEi:_DateTime_AbsoluteDays_m4235097773
UR:__ZN12_GLOBAL__N_138ArchiveRedirectFileSystemStaticDestroyEPv
nkj:__Z74RuntimeInvoker_RuntimeObject_RuntimeObject_RuntimeObject_SByte_t1669577662PFvvEPK10MethodInfoPvPS4_
Acf:_DefaultControls_CreateScrollView_m3842770629
kHc:__ZL55__ManagedRegistrationHelperFunction_PhysicsJobOptions2DPv
JBa:__ZN12CubemapArray34UpdateFileTextureUploadInstructionEP26FileAssetUploadInstructionj
xSd:__ZN5physx2Sc19ShapeInstancePairLLC2ERNS0_8ShapeSimES3_RNS0_9ActorPairENS_7PxFlagsINS_10PxPairFlag4EnumEtEE
FEb:__Z23CreateSparseTextureGLES9TextureIDii14GraphicsFormati
QFe:_otv_Anchor_validate
Ypa:__ZN14VertexDataInfo18UpdateImplicitDataEv
aOc:__Z18AddCollisionReportP11Collision2DR13dynamic_arrayINS_15CollisionReportELj0EE
Lni:_CCMath_mod_m3631663509
ITj:_TimeSpan_Negate_m1889505500_AdjustorThunk
d6j:_ReadOnlyCollection_1_System_Collections_ICollection_CopyTo_m2715087453_gshared
f2a:__ZN16MemoryFileSystemD0Ev
iHd:__ZN5physx2Sc9ClothCore16setStretchConfigENS_22PxClothFabricPhaseType4EnumERKNS_20PxClothStretchConfigE
DYe:__ZN11UnityEngine7Connect20RemoteConfigSettings7SetJSONER8JSONReadb
OZk:_AnalyticsEventTracker_Awake_m2780522130
BVd:__ZN5physx15PxsParticleData13onOriginShiftERKNS_6PxVec3E
bIc:__ZNK12b2MotorJoint16GetReactionForceEf
NCl:_il2cpp_class_get_assemblyname
Dhl:__ZN6il2cpp2vm5Class15GetEnumBaseTypeEP11Il2CppClass
zVh:_Context_set_WriteSequenceNumber_m942577065
Ae:_glVertexAttrib4fv
cKh:_X509CertificateEnumerator_Reset_m4026698923
QUl:__ZNK6il2cpp5utils13VmStringUtils23CaseInsensitiveComparerclERKNSt3__212basic_stringIcNS3_11char_traitsIcEENS3_9allocatorIcEEEEPKc
I9e:_CanvasScaler_SetScaleFactor_m3006968999
GMj:__Z78RuntimeInvoker_Boolean_t97287965_Navigation_t3049316579_Navigation_t3049316579PFvvEPK10MethodInfoPvPS4_
iCa:__ZNK9Texture2D16GetNpotTexelSizeEv
Apg:_NumberFormatter_Init_m3576155222
F$a:__ZL33FileEntryInfoListToFolderContentsRKN4core12basic_stringIcNS_20StringStorageDefaultIcEEEERK19dynamic_block_arrayI13FileEntryInfoLj32EERNSt3__23setIS3_NSB_4lessIS3_EENSB_9allocatorIS3_EEEE
u6g:_LayoutUtility_GetLayoutProperty_m714717302
Y3a:__ZN9GfxDevice22GetDefaultVertexBufferE26GfxDefaultVertexBufferTypej
HQi:_Array_InternalArray__ICollection_Contains_TisInt64_t3736567304_m2911357929_gshared
vub:__Z17BeginSplashScreenb
kHk:_Collection_1_Remove_m3022471627_gshared
M3l:___fseeko_unlocked
uba:__ZN9Scripting11UnityEngine12Experimental9Playables21TexturePlayableOutput12CleanupProxyEv
$qg:_Object_ToString_m1740002499
E3l:_sscanf
Ged:__ZN5physx3Cct17CapsuleControllerC2ERKNS_16PxControllerDescERNS_9PxPhysicsEPNS_7PxSceneE
p5e:_ExecuteEvents_GetEventChain_m2404658789
Plk:_Array_Resize_TisUILineInfo_t4195266810_m3763058392_gshared
uZg:_SByte_ToString_m3584531119_AdjustorThunk
f4b:__ZN9ShaderLab16SerializedShader8TransferI19StreamedBinaryWriteILb0EEEEvRT_
uv:__ZN7mecanim9animation18CreateAvatarMemoryEPKNS0_14AvatarConstantERNS_6memory9AllocatorE
eOh:_ModulusRing__ctor_m2420310199
cFi:_Convert_ToDateTime_m626620011
Vvh:_Enumerator_System_Collections_IDictionaryEnumerator_get_Key_m2500634048_AdjustorThunk
YEl:__ZN14dense_hash_mapI10KeyWrapperIP11Il2CppClassES2_N6il2cpp8metadata16SZArrayClassHashENS3_14EqualsComparerINS5_19SZArrayClassCompareEEENSt3__29allocatorINSA_4pairIKS3_S2_EEEEE15set_deleted_keyERSD_
gCb:__ZN18GfxFramebufferGLES18GetFramebufferNameERK20GfxRenderTargetSetup
l9:__ZN9Scripting11UnityEngine9Transform9InitProxyEv
QXl:_GC_print_block_list
qFh:_IPAddress__ctor_m921977496
I3g:_InputField_MoveDown_m1455948167
tvc:__Z30Event_Get_Custom_PropCharacterP12Il2CppObject
Z$:__ZN13PlayableGraph27SchedulePlayableDestructionERK9HPlayable
$Ee:_cff_get_mm_var
abd:__ZN5physx6shdfnd5ArrayINS_12PxDebugPointENS0_19ReflectionAllocatorIS2_EEE15growAndPushBackERKS2_
Hbm:_glGetFramebufferAttachmentParameteriv__wrapper
hrf:_ChannelServices_GetCurrentChannelInfo_m3041604116
icb:__Z22scripting_array_length17ScriptingArrayPtr
Mkg:_SynchronizedReader_Peek_m148942882
Ynj:__Z95RuntimeInvoker_Void_t1185182177_RuntimeObject_Int32_t2950945753_Int32_t2950945753_RuntimeObjectPFvvEPK10MethodInfoPvPS4_
Ick:_Predicate_1_Invoke_m2308795536_gshared
TAa:__ZN14SafeBinaryRead20TransferTypelessDataEjPvi
jMa:__ZN14SpriteRenderer18UpdateCachedSpriteEb
fQl:__ZN15dense_hashtableINSt3__24pairIK10KeyWrapperIPcES3_EES4_N6il2cpp5utils15PassThroughHashIS3_EEN14dense_hash_mapIS4_S3_SA_NS4_14EqualsComparerINS0_8equal_toIS3_EEEENS0_9allocatorIS6_EEE9SelectKeyESF_SH_E3endEv
Rna:__Z19GetActiveColorSpacev
tNl:__ZN6il2cpp2gc8GCHandle3NewEP12Il2CppObjectb
TGe:_UNITY_tt_face_load_kern
hlf:_MonoMethodInfo_GetDeclaringType_m2924452727
Rvb:__ZN13sorted_vectorINSt3__24pairIiN17InstancingBatcher12PropertyTypeEEEN10vector_mapIiS3_NS0_4lessIiEE13stl_allocatorIS4_L18MemLabelIdentifier1ELi16EEE13value_compareESA_E21sort_clear_duplicatesEv
jR:__Z6StrCmpPKcS0_
U5b:__Z21CheckGpuProgramUsable20ShaderGpuProgramType
Ehc:__ZN13ProduceHelperI14Texture2DArrayLb0EE7ProduceE10MemLabelId18ObjectCreationMode
eSl:__ZN6il2cpp2os9Directory20GetFileSystemEntriesERKNSt3__212basic_stringIcNS2_11char_traitsIcEENS2_9allocatorIcEEEESA_iiPi
Nci:_Array_System_Collections_IList_Add_m1063688101
Xvd:__ZN5physx6shdfnd5ArrayIPvNS0_19ReflectionAllocatorINS_2Cm5BlockIhLj128EEEEEE4copyINS0_15InlineAllocatorILj256ES7_EEEEvRKNS1_IS2_T_EE
hze:__ZN20TextRenderingPrivate19NativeTextGenerator5SetupEv
qRb:__ZNK15SharedLightData24GetFinalShadowResolutionEv
Czd:__ZN5physx6shdfnd8PoolBaseINS_16NpConnectorArrayENS0_19ReflectionAllocatorIS2_EEE15disposeElementsEv
XQa:__ZN12AspectRatios8TransferI18StreamedBinaryReadILb0EEEEvRT_
kse:__ZN14PhysicsManager19CreatePvdConnectionEv
m7b:__ZN10GameObject14CopyPropertiesERS_
Xwc:__Z44Register_UnityEngine_GUIStyle_get_fixedWidthv
GRi:_Array_InternalArray__ICollection_Remove_TisLink_t544317964_m1280781374_gshared
dfi:_BitConverter_DoubleWordsAreSwapped_m1474345095
QBj:__Z114RuntimeInvoker_Int32_t2950945753_Vector2_t2156229523_Vector2_t2156229523_ContactFilter2D_t3805203441_RuntimeObjectPFvvEPK10MethodInfoPvPS4_
Iji:_FixedSizeArrayListWrapper_set_Capacity_m4221053039
f4l:_rand
jcm:_emscripten_glFramebufferRenderbuffer__wrapper
uoc:__ZN13MeshScripting10CreateMeshE21ScriptingObjectOfTypeI4MeshE
Lyd:__ZNK5physx12NpConstraint9getActorsERPNS_12PxRigidActorES3_
hdb:__ZN14SafeBinaryRead21TransferSTLStyleArrayINSt3__26vectorI17AnimationCurveTplIfE13stl_allocatorIS4_L18MemLabelIdentifier1ELi16EEEEEEvRT_17TransferMetaFlags
lki:_SynchronizedArrayListWrapper_Contains_m3809499313
QWh:_HandshakeMessage_Compare_m2214647946
Zne:__ZN5physx6shdfnd8PoolBaseIN17PxcPoolMallocData10PoolData16ENS0_19ReflectionAllocatorIS3_EEE15disposeElementsEv
v_c:__ZN9Rigidbody23UpdateInterpolationNodeEv
Y$g:_HMACSHA256__ctor_m346174875
OAg:_Color_op_Multiply_m2887457390
PTb:__Z22PrepareOptimizedPlanesPK5PlaneiPKN4math7_float4E
KN:__ZN11UnityEngine15CloudWebService17WebFileDownloaderINS0_20WebRequestRestClientENS0_23WebRequestRestHeaderMapEE10InitializeERKN4core12basic_stringIcNS5_20StringStorageDefaultIcEEEE
n_:__ZN17UniqueIDGenerator15CreatePureIndexEv
sfc:__Z48InitializeRectTransformAnimationBindingInterfacev
$Ka:__ZN16BlitStereoHelper16PrepareEyeRenderEiRK19ShaderPropertySheetRS0_bRK8Vector2fS6_14VRTextureUsage
zTd:__ZN5physx7NpScene8addActorERNS_7PxActorE
uTa:__ZNSt3__26vectorIN15ResourceManager10DependencyE13stl_allocatorIS2_L18MemLabelIdentifier52ELi16EEE6assignINS_11__wrap_iterIPS2_EEEENS_9enable_ifIXaasr21__is_forward_iteratorIT_EE5valuesr16is_constructibleIS2_NS_15iterator_traitsISC_E9referenceEEE5valueEvE4typeESC_SC_
Sgl:__ZN15dense_hashtableINSt3__24pairIK10KeyWrapperIPK22Il2CppGenericParameterEP11Il2CppClassEES6_N6il2cpp5utils11PointerHashIS4_EEN14dense_hash_mapIS6_S9_SE_NS6_14EqualsComparerINS0_8equal_toIS5_EEEENS0_9allocatorISA_EEE9SelectKeyESJ_SL_E14squash_deletedEv
Dwa:__ZN9ShaderLabL27GetDesiredRenderTextureDescEPK6Camera
xJc:__ZNK12b2MouseJoint17GetReactionTorqueEf
pjk:_Array_InternalArray__Insert_TisMark_t3471605523_m2854535880_gshared
Ync:__ZN4Mesh24UpdateSubMeshVertexRangeEi
Vvc:__Z14GUIClipTextureP9Texture2DPhiiii
s4f:__ZL52HumanBone_t2465339518_CustomAttributesCacheGeneratorP21CustomAttributesCache
iwf:_MethodReturnDictionary__cctor_m278392388
mLb:__ZNK9Transform18TransformDirectionERK8Vector3f
Wje:__ZN5physx21PxsBodyTransformVault6updateEv
Eig:__ZL80CanvasScaler_t2767979955_CustomAttributesCacheGenerator_m_ReferencePixelsPerUnitP21CustomAttributesCache
BFe:_otv_MarkLigPos_validate
g0i:_PrimalityTests_RabinMillerTest_m1471415870
x8c:__ZL29GeomMTDCallback_CapsuleConvexRN5physx6PxVec3ERfRKNS_10PxGeometryERKNS_11PxTransformES5_S8_
swg:_GenericTypeParameterBuilder_GetCustomAttributes_m580748276
Hnl:__ZN15dense_hashtableINSt3__24pairIK10KeyWrapperIPK11Il2CppClassEPKcEES6_N6il2cpp5utils11PointerHashIS3_EEN14dense_hash_mapIS6_S9_SE_NS6_14EqualsComparerINS0_8equal_toIS5_EEEENS0_9allocatorISA_EEE9SelectKeyESJ_SL_E12resize_deltaEjj
P5l:__ZNK10__cxxabiv120__si_class_type_info27has_unambiguous_public_baseEPNS_19__dynamic_cast_infoEPvi
jOh:_Kernel_LeftShift_m4140742987
Krg:_Assembly_GetManifestResourceInternal_m1224391897
Eoa:__Z30AddDefaultStreamsToMeshBuffersR9GfxDeviceR11MeshBuffersj17ShaderChannelMaskS3_
vR:__ZL16GetInterfaceImpl18UnityInterfaceGUID
DUl:__ZN6il2cpp6icalls8mscorlib6System15MonoCustomAttrs27GetCustomAttributesInternalEP12Il2CppObjectP20Il2CppReflectionTypeb
oc:invoke_viifi
XKe:_UNITY_TT_Set_MM_Blend
Xca:__ZN9Scripting11UnityEngine11Application9InitProxyEv
Nub:__ZN14PreloadManager35WaitForAllAsyncOperationsToCompleteEv
fjl:__ZN13Il2CppHashMapIP9FieldInfoiN6il2cpp5utils11PointerHashIS0_EENSt3__28equal_toIS1_EENS6_9allocatorINS6_4pairIK10KeyWrapperIS1_EiEEEEEC2EjRKS5_RKS8_
tS:__ZNSt3__26__treeINS_12__value_typeIPKc11ShaderTagIDEENS_19__map_value_compareIS3_S5_27compare_tstring_insensitiveIS3_ELb1EEENS_9allocatorIS5_EEE7destroyEPNS_11__tree_nodeIS5_PvEE
r1c:__Z27sweepCCTBox_HeightFieldGeomRKN5physx10PxGeometryERKNS_11PxTransformERKNS_2Gu3BoxERKNS_6PxVec3EfRNS_10PxSweepHitENS_7PxFlagsINS_9PxHitFlag4EnumEtEEf
Pz:__ZL31InitializeAudioScriptingClassesv
HKb:__Z14SortGUIByDepthP10GUIElementS0_
DIg:_PlayerConnection_OnEnable_m4286555589
qVk:_UriParser__cctor_m3655686731
f8c:__ZN5physx3Cct9SweepTest18updateTouchedGeomsEPKNS0_30InternalCBData_FindTouchedGeomERKNS0_13UserObstaclesERKNS_17PxExtendedBounds3ERKNS_19PxControllerFiltersERKNS_6PxVec3E
k6g:_LayoutRebuilder_U3Cs_RebuildersU3Em__0_m589488547
awe:_PxCloseExtensions
h$a:__ZNK20LocalFileSystemPosix21GetAvailableDiskSpaceEPKcRy
Xx:__ZNSt3__26__treeIiNS_4lessIiEENS_9allocatorIiEEE7destroyEPNS_11__tree_nodeIiPvEE
J3a:__ZNK9GfxDevice14GetWorldMatrixEv
DQg:_Transform_set_parent_m786917804
X1k:_AudioSampleProvider_InternalSetScriptingPtr_m3742743270
kdh:_Slider_get_value_m739683640
FZa:__Z19scripting_array_new17ScriptingClassPtrjj
dAa:__ZN6prcoreL10inner_flipILj4EEEvPhS1_j
x2b:__ZNSt3__26vectorIN9ShaderLab20SerializedSubProgram16TextureParameterENS_9allocatorIS3_EEE6assignIPS3_EENS_9enable_ifIXaasr21__is_forward_iteratorIT_EE5valuesr16is_constructibleIS3_NS_15iterator_traitsISA_E9referenceEEE5valueEvE4typeESA_SA_
iml:__ZN13Il2CppHashMapIN6il2cpp5utils13dynamic_arrayIPK10Il2CppTypeLj4EEEPFvvENS0_8metadata19Il2CppSignatureHashENS9_22Il2CppSignatureCompareENSt3__29allocatorINSC_4pairIK10KeyWrapperIS6_ES8_EEEEEC2EjRKSA_RKSB_
_7f:__ZL104Physics2D_t1528932956_CustomAttributesCacheGenerator_Physics2D_GetRayIntersectionAll_Internal_m643548862P21CustomAttributesCache
izl:__ZN15dense_hashtableINSt3__24pairIK10KeyWrapperIPK22Il2CppGenericParameterEPK24MonoGenericParameterInfoEES6_N6il2cpp5utils11PointerHashIS4_EEN14dense_hash_mapIS6_SA_SF_NS6_14EqualsComparerINS0_8equal_toIS5_EEEENS0_9allocatorISB_EEE9SelectKeyESK_SM_E15set_deleted_keyERKSB_
sZg:_SByte_TryParse_m2431806379
dua:__ZN6prcoreL11inner_clearILj2EEEvPhjjj
Hda:__ZN9Scripting5Unity11Collections8LowLevel6Unsafe24NativeContainerAttribute9InitProxyEv
W_g:_DSACryptoServiceProvider_get_KeySize_m786836990
TIc:__ZN12b2WheelJoint24SolvePositionConstraintsERK12b2SolverData
WGd:__ZNK5physx2Sc9ClothCore20getNbCollisionPlanesEv
lh:_emscripten_exit_fullscreen
_le:__ZNK5physx13GuMeshFactory17getNbHeightFieldsEv
Vkk:_Array_qsort_TisBoolean_t97287965_TisBoolean_t97287965_m214793583_gshared
efj:_Enumerator_System_Collections_IEnumerator_Reset_m1564381721_gshared
use:__ZN14PhysicsManager19CreateDynamicsSceneEbb14BroadphaseType16ContactPairsModeRK4AABBi
yfc:__ZZL31RegisterRectTransformPropertiesR22GenericPropertyBindingEN39Wrapper_RectTransformAnchoredPositiony113GetFloatValueEPv
Vqg:_Object_MemberwiseClone_m1474068832
NQl:__ZN6il2cpp6icalls8mscorlib6System6String19InternalAllocateStrEi
gFc:__Z29Transfer_Blittable_ArrayFieldI8JSONRead11QuaternionfEvRT_R9ArrayInfoRK23StaticTransferFieldInfo
m1d:__ZNK5physx2Gu12OBBAABBTestsILb1EEclENS_6shdfnd3aos5Vec3VES5_
qbc:__Z45Register_UnityEngine_Camera_get_targetDisplayv
ykc:__ZNK24RendererAnimationBinding15GenerateBindingERKN4core12basic_stringIcNS0_20StringStorageDefaultIcEEEEbRN11UnityEngine9Animation14GenericBindingE
wja:__ZN33RendererCullingCallbackPropertiesC2ERK6CameraRK10Matrix4x4f
RFh:_IPv6Address__ctor_m3704187391
rta:__Z15GetFlareManagerv
Lnc:__ZN4Mesh15AppendTrianglesERNSt3__26vectorIj13stl_allocatorIjL18MemLabelIdentifier1ELi16EEEEjRK13dynamic_arrayI7SubMeshLj0EEPK14SharedMeshDatab
yv:__ZN8Animator13GetAvatarRootEv
i2l:___toread
Csb:__ZNSt3__26vectorI10vector_mapIiiNS_4lessIiEE13stl_allocatorINS_4pairIiiEEL18MemLabelIdentifier38ELi16EEES4_IS9_LS7_38ELi16EEE26__swap_out_circular_bufferERNS_14__split_bufferIS9_RSA_EE
HNh:_BigInteger_get_Rng_m3283260184
q6l:___cxa_is_pointer_type
Ow:__ZN8Animator22ScriptingStringToCRC32ERK11ICallString
n5d:__ZN5physx34solveContactCoulombPreBlock_StaticEPKNS_23PxcSolverConstraintDescEjRNS_16PxcSolverContextE
j7e:_RaycastResult_ToString_m2678663776_AdjustorThunk
Tok:_Array_InternalArray__get_Item_TisKeyValuePair_2_t2530217319_m2886833132_gshared
s6:__ZL50__ManagedRegistrationHelperFunction_UnityEventBasePv
Vcc:__Z34Transform_CUSTOM_SetAsFirstSiblingP12Il2CppObject
x3g:_InputField_Delete_m3471899192
qUg:_RemotingConfiguration_get_ProcessId_m2180277012
gK:__ZN11UnityEngine15CloudWebService17SessionEventQueue14ParseEventDataERKN4core12basic_stringIcNS2_20StringStorageDefaultIcEEEE
lyd:__ZN12GeomQueryAnyIN5physx10PxSweepHitEE7geomHitERKNS0_2Sq17SceneQueryManagerERKNS0_15MultiQueryInputERKNS3_9ShapeDataERKNS0_10PxGeometryERKNS0_11PxTransformENS0_7PxFlagsINS0_9PxHitFlag4EnumEtEEjPS1_fbPNS0_9PxBounds3E
$Ab:__ZN13TranslateGLES4InitERK12GraphicsCaps16GfxDeviceLevelGL
E9c:__ZN43CapsuleHeightfieldContactGenerationCallback7onEventEjPj
a0c:__ZThn4_N12MemoryStream4readEPvj
lvi:_Int64_System_IConvertible_ToUInt16_m848637338_AdjustorThunk
WUe:__Z32CustomEventData_CUSTOM_AddUInt32P12Il2CppObjectP12Il2CppStringj
FVi:_Array_InternalArray__IndexOf_TisLink_t544317964_m455584088_gshared
TBk:_Enumerator_get_Current_m2282646120_AdjustorThunk
T5j:_ReadOnlyCollection_1_IndexOf_m2539022912_gshared
Mhg:__ZL66Selectable_t3250028441_CustomAttributesCacheGenerator_m_TransitionP21CustomAttributesCache
a0l:__ZN6il2cpp2os6Memory12AlignedAllocEjj
kCc:__ZN9JSONWrite8TransferI13dynamic_arrayIN4math12int3_storageELj0EEEEvRT_PKc17TransferMetaFlags
qeh:_Text_set_alignByGeometry_m3828822280
BVl:__ZN6il2cpp8metadataL7CompareEPK10Il2CppTypeS3_
XCh:_HybridDictionary__ctor_m1681134385
Tja:__ZN21ScalableBufferManager11GetInstanceEv
Lnb:__Z18Transfer_BlittableI18StreamedBinaryReadILb0EELb1E10ColorRGBAfEvRK29SerializationCommandArgumentsR31RuntimeSerializationCommandInfo
STj:_TimeSpan_op_LessThan_m1594498345
o9b:__ZL27GetComponentsImplementationILb0ELi0EEbR10GameObjectbRK17CompareParametersRK39GetComponentsImplementation_ReturnValue
Brb:__ZN9Scripting36IsSystemCollectionsGenericDictionaryE17ScriptingClassPtr
Xgk:_UnityEvent_1_FindMethod_Impl_m322741469_gshared
Xwd:__ZN5physx12NpConstraint12actorDeletedEPNS_12PxRigidActorE
RQg:_Enumerator_get_Current_m2591725252
pX:__ZL16ReadTypeTreeImplILb0EEbR8TypeTreeRK16TypeTreeIteratorRPKhS6_i
hNh:_Interval_Contains_m110351300_AdjustorThunk
IGi:_Convert_ToInt32_m3048308591
aLi:_DateTimeOffset_Equals_m3030958070
Jfd:__ZN5physx2Sc8ShapeSim18reinsertBroadPhaseEv
Wsa:__ZNK22BuiltinResourceManager21GetResourceInstanceIDEPKN5Unity4TypeERKN4core12basic_stringIcNS4_20StringStorageDefaultIcEEEE
Sac:__Z42Register_UnityEngine_RectOffset_set_bottomv
nSc:__ZN10Effector2D5ResetEv
mvd:__ZN5physx2Sc5Scene11removeShapeERNS0_8ShapeSimEb
Ppi:_DateTimeFormatInfo_GetMonthName_m2034512315
MMb:__ZN28LightProbeProxyVolumeContext8CopyFromERKS_
E6j:_ReadOnlyCollection_1_System_Collections_Generic_IListU3CTU3E_Insert_m2489506856_gshared
_ia:__ZN23TransformChangeDispatch32QueueTransformChangeIfHasChangedER18TransformHierarchy
_Zi:_SimpleCollator_ToDashTypeValue_m6184468
ZBj:__Z105RuntimeInvoker_RuntimeObject_Vector3_t3722313464_Vector3_t3722313464_Single_t1397266774_Int32_t2950945753PFvvEPK10MethodInfoPvPS4_
HDb:__ZN7ApiGLES18DeleteRenderbufferERj
rjd:__ZN5physx6shdfnd5ArrayIPvNS0_15InlineAllocatorILj256ENS0_19ReflectionAllocatorINS_16NpConnectorArrayEEEEEE15growAndPushBackERKS2_
SCb:__ZL23ProgramUniformMatrix4fvPK7ApiGLESjiihPKv
Uwb:__ZN7ApiGLES13CreateTextureEjj14GraphicsFormatiiiii
eei:_Array_new_gap_m262136975
yMc:__Z10b2DistanceP16b2DistanceOutputP14b2SimplexCachePK15b2DistanceInput
_8d:__ZN5physx14SingleAABBTaskC2Ev
d2b:__ZN9ShaderLab20SerializedSubProgram15MatrixParameter8TransferI14SafeBinaryReadEEvRT_
FRd:__ZN5physx6shdfnd8PoolBaseINS_2Sc18TriggerInteractionENS0_19ReflectionAllocatorIS3_EEE12allocateSlabEv
mQe:__Z46Register_UnityEngine_Canvas_set_sortingLayerIDv
q9b:__ZL27GetComponentsImplementationILb0ELi1EEbR10GameObjectbRK17CompareParametersRK39GetComponentsImplementation_ReturnValue
kJh:_X509Store__ctor_m275383717
kQg:_Transform_INTERNAL_get_position_m1310184257
IJe:_Round_Down_To_Grid
bpl:__ZN6il2cpp2vm13MetadataCache40AddThreadLocalStaticOffsetForFieldLockedEP9FieldInfoiRKNS_2os12FastAutoLockE
rla:__ZN13RenderTexture7ReleaseEv
FCc:__Z18Transfer_BlittableI8JSONReadLb1EN4math12int3_storageEEvRK29SerializationCommandArgumentsR31RuntimeSerializationCommandInfo
LLa:__ZN10MeshFilter23VirtualRedirectTransferER14SafeBinaryRead
gPa:__ZN12MeshRenderer17MainThreadCleanupEv
Hhl:__ZN6il2cpp2vmL10InitLockedEP11Il2CppClassRKNS_2os12FastAutoLockE
s8a:__ZN22CreateGpuProgramOutput12CreateParamsEv
XA:__ZN10ObjectPoolIN4FMOD7ChannelENS0_8ChannelIEE7GetFreeEi
Lt:__ZL62__ManagedRegistrationHelperFunction_AnimatorOverrideControllerPv
Otd:__ZNK5physx18NpArticulationLink11getChildrenEPPNS_18PxArticulationLinkEj
qkh:_InternalEnumerator_1_System_Collections_IEnumerator_get_Current_m548105685_gshared
SAb:__ZNK14GfxContextGLES13GetDefaultFBOEv
fgi:_Byte_System_IConvertible_ToType_m2251112646
Rrc:__Z55Register_UnityEngine_MonoBehaviour_StopCoroutineManagedv
jEj:__Z81RuntimeInvoker_Char_t3634460470_RuntimeObject_Int32_t2950945753_Int16_t2552820387PFvvEPK10MethodInfoPvPS4_
iyc:__GLOBAL__sub_I_artifacts_WebGL_codegenerator_0_cpp_3254
the:__Z15atomIntegrationfPKPN5physx11PxsBodyCoreEPKPNS_12PxsRigidBodyEjPKNS_2Cm13SpatialVectorEPNS_13PxcSolverBodyEPNS_17PxcSolverBodyDataEPS9_RjSH_
WJi:_DateTime_get_Hour_m4153505178_AdjustorThunk
j1k:_AudioExtensionManager_WriteExtensionProperties_m3028464154
t1h:_Evidence_Equals_m1478353107
DPd:__ZN5physx13NpRigidStatic11createShapeERKNS_10PxGeometryEPKPNS_10PxMaterialEtNS_7PxFlagsINS_11PxShapeFlag4EnumEhEE
unc:__Z13GetImagePixelI10ColorRGBAfET_PKhii13TextureFormat15TextureWrapModeS5_ii
rvk:_List_1_System_Collections_IList_set_Item_m1842844683_gshared
Jfl:_ObjectPool_1__ctor_m2535233435_gshared
cEl:__ZN6il2cpp2vm6Thread49CheckCurrentThreadForInterruptAndThrowIfNecessaryEv
nEi:_Convert_ToChar_m3757390865
joa:__ZNSt3__23mapIN9ShaderLab16FastPropertyNameEN18UnityPropertySheet11UnityTexEnvENS_4lessIS2_EENS_9allocatorINS_4pairIKS2_S4_EEEEEixERS9_
Vwb:__ZNK13TranslateGLES25GetTextureTargetDimensionEj
tnd:__ZN5physx11NpAggregate22removeActorAndReinsertERNS_7PxActorEb
R3j:_ReadOnlyCollection_1_System_Collections_IList_Remove_m1842121503_gshared
Roe:__ZZL19ExtractHullPolygonsRjRN5physx2Gu9ContainerERKNS0_17ConvexHullBuilderEPS2_S3_EN5Local9FloodFillES3_PKNS0_11AdjTriangleEjPb
Uxi:_File_OpenRead_m2936789020
dT:__ZN9Scripting12LogExceptionE21ScriptingExceptionPtriPKcb
aAj:__Z94RuntimeInvoker_Void_t1185182177_RuntimeObject_PlayableGraph_t3515989261_RuntimeObject_IntPtr_tPFvvEPK10MethodInfoPvPS4_
mj:_emscripten_glVertexAttrib4f
feb:__ZN14SafeBinaryRead21TransferSTLStyleArrayI13dynamic_arrayIN4math12int3_storageELj0EEEEvRT_17TransferMetaFlags
r5b:__ZNSt3__26vectorIN20GpuProgramParameters14ConstantBufferENS_9allocatorIS2_EEE8__appendEj
UJh:_X509CertificateCollection_AddRange_m3683116910
Mo:FUNCTION_TABLE_vf
Jrf:_SinkProviderData__ctor_m1624738837
FDj:__Z88RuntimeInvoker_RuntimeObject_RuntimeObject_SByte_t1669577662_RuntimeObject_RuntimeObjectPFvvEPK10MethodInfoPvPS4_
bqd:__ZN5physx14NpArticulation26setMaxProjectionIterationsEj
Xdd:__ZN5physx3Cct15ObstacleContext14removeObstacleEj
gtg:_CustomAttributeTypedArgument_Equals_m2261980307
D5a:__ZN9GfxDevice18SetGlobalDepthBiasEff
orl:__ZN6il2cpp6icalls8mscorlib6System8MonoType12get_AssemblyEP20Il2CppReflectionType
Aj:_emscripten_glGetPointerv
Jnk:_Dictionary_2_Do_CopyTo_TisKeyValuePair_2_t3842366416_TisRuntimeObject_m1564656153_gshared
ydc:__Z14BezierExtractUfff
jub:__Z26ApplyMaterialPassWithCacheRK18SharedMaterialDataR17ShaderPassContextP6ShaderPN9ShaderLab4PassEibPKNS6_10GrabPassesEPNS6_11SubProgramsEPK22DeviceRenderStateBlock
mue:__ZN5physx7profile8ZoneImplINS_28PxProfileNameProviderForwardEE17handleBufferFlushEPKhj
zUf:__ZL81Camera_t4157153871_CustomAttributesCacheGenerator_Camera_RaycastTry2D_m2460696262P21CustomAttributesCache
qnd:__ZN5physx2Sc5ActorC2ERNS0_16InteractionSceneEhNS0_14IslandNodeInfo4TypeE
Sog:_MulticastDelegate_KPM_m22863605
Ynh:_InternalEnumerator_1_get_Current_m1897120917_AdjustorThunk
pog:_MonoType_ReorderParamArrayArguments_m2458683451
TVg:_FormatterConverter_ToInt16_m4282804414
msj:__Z81RuntimeInvoker_Void_t1185182177_Int64_t3736567304_RuntimeObject_Int64_t3736567304PFvvEPK10MethodInfoPvPS4_
P7e:_StandaloneInputModule_ProcessTouchPress_m4019232747
Qxi:_FileStream__ctor_m3151488352
dei:_Array_swap_m547389985
VHd:__ZN5physx15NpActorTemplateINS_7PxClothEED2Ev
tXj:_UInt32_ToString_m2420423038
ssk:_List_1_System_Collections_IList_Add_m634558835_gshared
syi:_FileStream_get_Length_m426703983
vmc:__Z13RegisterClassI10TagManagerEvPKc
yGd:__ZN5physx2Sc9ClothCore16setRestPositionsEPKNS_6PxVec4E
Mme:__ZN5physx2Gu12TriangleMesh4loadERNS_13PxInputStreamE
vz:__ZN12AudioManager5ResetEv
WTf:__ZL68DisallowMultipleComponent_t1422053217_CustomAttributesCacheGeneratorP21CustomAttributesCache
P3:__ZN6prcoreL17RemapGenericFloatI17TexFormatRGBAHalf15TexFormatRGHalfEEvPKNS_9InnerInfoE
s3k:_playerMovement_OnCollisionExit2D_m1837804821
qSl:__ZN6il2cpp6icalls8mscorlib6System11Environment20GetWindowsFolderPathEi
$De:_UNITY_FT_RoundFix
pHc:__ZN9Scripting11UnityEngine19PhysicsJobOptions2D12CleanupProxyEv
XYl:_GC_is_heap_ptr
dXh:_HandshakeMessage_EncodeMessage_m3919107786
B1c:__ZNK5physx2Gu15HeightFieldUtil12traceSegmentI24ConvexVsHeightfieldSweepLb0ELb0ELb1EEEvRKNS_6PxVec3ES6_PT_PS5_
U0i:_ASN1_DecodeTLV_m1200977460
IDg:_UnityEventBase_PrepareInvoke_m1785382128
Dle:__ZNK5physx12PxConvexMesh19getConcreteTypeNameEv
iPa:__ZNK12MeshRenderer22GetTypeVirtualInternalEv
Ahi:_Char_System_IConvertible_ToUInt32_m3901815580
K9g:_Scrollbar_set_onValueChanged_m346467699
aXc:__ZN13ProduceHelperI13BoxCollider2DLb0EE7ProduceE10MemLabelId18ObjectCreationMode
D2c:__ZN5physx2Gu19gjkLocalPenetrationINS0_9TriangleVENS0_17ShrunkConvexHullVEEEjRKT_RKT0_RKNS_6shdfnd3aos6FloatVERNSB_5Vec3VESG_SG_RSC_PhSI_Rhb
Muj:__Z157RuntimeInvoker_Int32_t2950945753_RuntimeObject_Int32_t2950945753_Int32_t2950945753_Int32_t2950945753_SByte_t1669577662_SByte_t1669577662_Int32U26_t1369213839PFvvEPK10MethodInfoPvPS4_
sC:__ZN4FMOD6System17setSoftwareFormatEi17FMOD_SOUND_FORMATii18FMOD_DSP_RESAMPLER
Q4c:__ZN5physx2Gu15GJKLocalRayCastERNS0_9TriangleVERNS0_4BoxVERKNS_6shdfnd3aos6FloatVERKNS6_5Vec3VESC_RS7_RSA_SE_fb
Hfd:__ZN5physx2Sc13ShapeIterator4initERKNS0_8ActorSimE
Bxa:__ZN14SafeBinaryRead19TransferSTLStyleMapINSt3__23mapIN4core12basic_stringIcNS3_20StringStorageDefaultIcEEEES7_NS1_4lessIS7_EE13stl_allocatorINS1_4pairIKS7_S7_EEL18MemLabelIdentifier1ELi16EEEEEEvRT_17TransferMetaFlags
tt:__ZL49__ManagedRegistrationHelperFunction_AimConstraintPv
gTe:__ZN2UI6Canvas27UpdateEventIndexesRecursiveERi
nK:__ZN11UnityEngine15CloudWebService16SessionContainer21PrepareDataErrorEventERN4core12basic_stringIcNS2_20StringStorageDefaultIcEEEE
d5e:_ExecuteEvents_get_pointerUpHandler_m3515704212
uii:_ArrayList_set_Item_m2003485935
qpf:_SatelliteContractVersionAttribute__ctor_m3630863995
Y6e:_MouseButtonEventData_PressedThisFrame_m1060658845
Mjb:__Z19TransferField_ArrayI19StreamedBinaryWriteILb0EE27Converter_SimpleNativeClassI8GUIStyleEEvRK23StaticTransferFieldInfoR31RuntimeSerializationCommandInfoRT0_
j4j:_ReadOnlyCollection_1_System_Collections_Generic_IListU3CTU3E_RemoveAt_m3969985996_gshared
zBd:__ZN5physx14NpArticulationC2Ev
xqa:__Z28BuildSingleStreamChannelInfoP11ChannelInfo17ShaderChannelMaskS1_
BIg:_PlayerConnection_get_isConnected_m911966057
Rff:_GraphicRegistry_GetGraphicsForCanvas_m4219276355
kpg:_NumberFormatter_FastToDecHex_m699829267
eQk:_PatternCompiler_MakeFlags_m1977119795
tCc:__Z35Transfer_Blittable_FixedBufferFieldI8JSONReadiEvRK29SerializationCommandArgumentsR31RuntimeSerializationCommandInfo
Eya:__ZN15SerializeTraitsIN9ShaderLab16FastPropertyNameEE8TransferI19StreamedBinaryWriteILb0EEEEvRS1_RT_
Mpl:__ZNSt3__213__vector_baseIN6il2cpp2os19SocketHandleWrapperENS_9allocatorIS3_EEED2Ev
KAf:__ZL48_Type_t3588564251_CustomAttributesCacheGeneratorP21CustomAttributesCache
gGa:__ZN28ReflectionProbeAnchorManager18RemoveCachedAnchorERK4PPtrI9TransformE
Cc:invoke_viiffi
QYb:__ZN13sorted_vectorINSt3__24pairIN4core12basic_stringIcNS2_20StringStorageDefaultIcEEEEPK17MessageIdentifierEEN10vector_mapIS6_S9_NS0_4lessIS6_EENS0_9allocatorISA_EEE13value_compareESF_E10insert_oneERKSA_
fRj:_Monitor_Monitor_wait_m3706677354
GFc:__ZN5Unity9rapidjson13GenericReaderINS0_4UTF8IcEES3_13JSONAllocatorE10ParseFalseILj0ENS0_19GenericStringStreamIS3_EENS0_15GenericDocumentIS3_S4_S4_EEEEvRT0_RT1_
Koa:__ZL13MeshExtractorPv16VertexInputMasksiR11MeshBuffersR16DrawBuffersRangeRiS5_
yBa:__ZNK12CubemapArray20GetRuntimeMemorySizeEv
DKd:__ZN5physx2Sc18ParticleSystemCore18setProjectionPlaneERKNS_7PxPlaneE
$2b:__Z14resize_trimmedINSt3__26vectorIN9ShaderLab18SerializedPropertyENS0_9allocatorIS3_EEEEEvRT_j
MSd:__ZN5physx6shdfnd8PoolBaseINS_2Sc9ActorPairENS0_19ReflectionAllocatorIS3_EEE12allocateSlabEv
onl:__ZN6il2cpp2vm13MetadataCache38GetMethodInfoFromMethodDefinitionIndexEi
Q3e:_EventSystem_set_current_m38955169
Erc:__Z39MonoBehaviour_CUSTOM_GetScriptClassNameP12Il2CppObject
Khg:__ZL53Selectable_t3250028441_CustomAttributesCacheGeneratorP21CustomAttributesCache
fPk:_CostDelegate_EndInvoke_m2797921932
IIa:__ZN10VertexData8TransferI24GenerateTypeTreeTransferEEvRT_
SDi:_Double_IsInfinity_m820013146
GSl:__ZN13Il2CppHashMapIPK19Il2CppGenericMethodP10MethodInfoN6il2cpp8metadata23Il2CppGenericMethodHashENS6_26Il2CppGenericMethodCompareENSt3__29allocatorINS9_4pairIK10KeyWrapperIS2_ES4_EEEEEC2EjRKS7_RKS8_
rOg:_Screen_get_dpi_m495672463
$Pj:_UTF8Encoding_InternalGetByteCount_m2120178851
nTb:__ZL10CullLightsRK22SceneCullingParametersR11CullResults
NIi:_Convert_ToUInt64_m3170916409
h2e:__ZN9Scripting11UnityEngine12Experimental2XR14ReferencePoint12CleanupProxyEv
PTd:__ZN5physx7NpScene21setDominanceGroupPairEhhRKNS_20PxDominanceGroupPairE
$ui:_Int64_System_IConvertible_ToInt16_m4062196970_AdjustorThunk
Mog:_MonoType_GetGenericTypeDefinition_m3201894896
Wbc:__Z40GetTemporaryCachePathApplicationSpecificv
e4a:__ZN9GfxDevice16EndAsyncJobFrameEv
YBj:__Z99RuntimeInvoker_Int32_t2950945753_Ray_t3785851493_RuntimeObject_Single_t1397266774_Int32_t2950945753PFvvEPK10MethodInfoPvPS4_
MGe:_UNITY_tt_face_load_hhea
GC:__ZN12AudioManager27InitialCompleteDomainReloadEv
yl:___syscall3
OBj:__Z135RuntimeInvoker_RaycastHit2D_t2279581989_Vector2_t2156229523_Vector2_t2156229523_Single_t1397266774_Int32_t2950945753_Single_t1397266774PFvvEPK10MethodInfoPvPS4_
Bl:___syscall6
Dl:___syscall4
mL:__ZN11UnityEngine15CloudWebService20WebRequestRestClient17GetResponseStatusEv
Dwf:_ReturnMessage__ctor_m2352989078
Wsl:__ZN6il2cpp2vm7Runtime9SetConfigEPKc
a3a:__ZNSt3__26__treeINS_12__value_typeIN4core12basic_stringIcNS2_20StringStorageDefaultIcEEEEPN16MemoryFileSystem4NodeEEENS_19__map_value_compareIS6_SA_NS_4lessIS6_EELb1EEE13stl_allocatorISA_L18MemLabelIdentifier55ELi16EEE7destroyEPNS_11__tree_nodeISA_PvEE
cBj:__Z67RuntimeInvoker_Boolean_t97287965_TextGenerationSettings_t1351628751PFvvEPK10MethodInfoPvPS4_
xOl:__ZN6il2cpp2vm3RCW14QueryInterfaceILb1EEEP14Il2CppIUnknownP15Il2CppComObjectRK10Il2CppGuid
LUh:_TlsServerCertificateRequest__ctor_m1334974076
iGc:__ZN27PerformanceReportingManager23VirtualRedirectTransferER14SafeBinaryRead
LGi:_Convert_ToInt32_m1613163543
W9:__ZN9Scripting11UnityEngine9Playables8Playable12CleanupProxyEv
J3j:_ReadOnlyCollection_1_System_Collections_ICollection_CopyTo_m3127175806_gshared
Sl:_emscripten_glShaderBinary
T1h:_String_op_Inequality_m215368492
AWj:_UInt16_ToString_m760649087
$_a:__ZNK20LocalFileSystemPosix6ExistsERK13FileEntryData
wld:__ZN5physx35NpArticulationJointGetBodiesFromScbERNS_3Scb17ArticulationJointERPNS0_4BodyES5_
Zke:__ZNK5physx2Sc15ClothFabricCore16getTetherLengthsEPfj
xAg:_Camera_GetAllCameras_m668492922
pQe:__Z58Register_UnityEngine_Canvas_GetETC1SupportedCanvasMaterialv
RTj:_TimeSpan_op_Inequality_m2467851530
pmb:__ZN17AnimationCurveTplIfE8TransferI18StreamedBinaryReadILb1EEEEvRT_
Kmk:_Array_Sort_TisUIVertex_t4057497605_m3996333845_gshared
l8f:__ZL73ContactFilter2D_t3805203441_CustomAttributesCacheGenerator_maxNormalAngleP21CustomAttributesCache
RYg:_SByte_System_IConvertible_ToDouble_m2381680501
xei:_Swapper_BeginInvoke_m1688449973
mCg:_Display_get_renderingWidth_m1970428952
EYd:__ZN5physx2Sc13ConstraintSim8getForceERNS_6PxVec3ES3_
qwj:__Z81RuntimeInvoker_Void_t1185182177_RuntimeObject_Int32_t2950945753_Int64_t3736567304PFvvEPK10MethodInfoPvPS4_
Mw:__ZNSt3__26vectorIN4core12basic_stringIcNS1_20StringStorageDefaultIcEEEE13stl_allocatorIS5_L18MemLabelIdentifier1ELi16EEE21__push_back_slow_pathIS5_EEvOT_
Qsj:__Z86RuntimeInvoker_Boolean_t97287965_Int16_t2552820387_Int16_t2552820387_Int32_t2950945753PFvvEPK10MethodInfoPvPS4_
h8c:__ZN5physx15PxGeometryQuery18computePenetrationERNS_6PxVec3ERfRKNS_10PxGeometryERKNS_11PxTransformES6_S9_
Xhk:_IndexedSet_1_IndexOf_m241693686_gshared
oXe:__ZN11UnityEngine15PlatformWrapper30GetGraphicsDriverLibraryStringEv
yYg:_RuntimeMethodHandle_Equals_m3301340296_AdjustorThunk
RXj:_UInt64_System_IConvertible_ToSingle_m925613075_AdjustorThunk
dwe:__ZN5Unity12PhysicsQueryC2Ev
Mnb:__Z18Transfer_BlittableI18StreamedBinaryReadILb0EELb0E4AABBEvRK29SerializationCommandArgumentsR31RuntimeSerializationCommandInfo
BTa:__ZN24GenerateTypeTreeTransfer19TransferSTLStyleMapINSt3__28multimapIN4core12basic_stringIcNS3_20StringStorageDefaultIcEEEE4PPtrI6ObjectENS1_4lessIS7_EE13stl_allocatorINS1_4pairIKS7_SA_EEL18MemLabelIdentifier52ELi16EEEEEEvRT_17TransferMetaFlags
_u:__ZN16MecanimAnimation24DeleteAnimatedPropertiesERP26IAnimatedPropertyEvaluator
Ebl:_CanvasRenderer_SetMaterial_m824577244
iJb:__Z14DrawGUITextureRK5RectTIfEP7Texture11ColorRGBA32P8Materiali
f4j:_ReadOnlyCollection_1_System_Collections_Generic_ICollectionU3CTU3E_Add_m2686599243_gshared
NQg:_Transform_IsChildOf_m224006092
eMc:__ZNK11b2EdgeShape7RayCastEP15b2RayCastOutputRK14b2RayCastInputRK11b2Transformi
cCc:__ZN9JSONWrite8TransferI4AABBEEvRT_PKc17TransferMetaFlags
_4g:_LayoutElement_set_preferredHeight_m1999633022
c1b:__ZN15dense_hashtableINSt3__24pairIKiN4core17string_with_labelILi1EEEEEi18SInt32HashFunctionN14dense_hash_mapIiS5_S7_NS0_8equal_toIiEE13stl_allocatorIS6_L18MemLabelIdentifier1ELi16EEE9SelectKeyESA_SD_E12expand_arrayEjN21dense_hash_map_traits17integral_constantIbLb0EEE
dJj:__Z58RuntimeInvoker_Void_t1185182177_ContactPoint2D_t3390240644PFvvEPK10MethodInfoPvPS4_
Bec:__Z13RegisterClassI15QualitySettingsEvPKc
eie:__ZNK18ScBeforeSolverTask7getNameEv
Ks:__ZN13ConstraintJob17ConstraintJobDataD2Ev
BSc:__ZN10Collider2D13AwakeFromLoadE17AwakeFromLoadMode
VYk:_Aes__ctor_m178909601
_Ba:__ZNK9Texture2D20GetRuntimeMemorySizeEv
Yw:__ZN11Marshalling39CreateNullExceptionForUnityEngineObjectE18ScriptingObjectPtr
o5d:__ZN5physx14solve1D4_BlockEPKNS_23PxcSolverConstraintDescEjRNS_16PxcSolverContextE
FFc:__ZN5Unity9rapidjson13GenericReaderINS0_4UTF8IcEES3_13JSONAllocatorE9ParseTrueILj0ENS0_19GenericStringStreamIS3_EENS0_15GenericDocumentIS3_S4_S4_EEEEvRT0_RT1_
$m:_emscripten_glUniform2iv
G8c:__ZL33GeomMTDCallback_ConvexHeightFieldRN5physx6PxVec3ERfRKNS_10PxGeometryERKNS_11PxTransformES5_S8_
f6:__ZL46__ManagedRegistrationHelperFunction_ColorGamutPv
TOj:_UnicodeEncoding_CopyChars_m785272451
Vze:_UNITY_FT_Outline_Transform
a8b:__Z60Register_UnityEngine_Sprites_DataUtility_Internal_GetMinSizev
iil:__ZN6il2cpp2vm5Class10GetMethodsEP11Il2CppClassPPv
UOb:__Z30AddDefaultStreamsToMeshBuffersR9GfxDeviceR11MeshBuffersRK16DrawBuffersRange17ShaderChannelMaskS6_
iDb:__ZN7ApiGLES17DeleteFramebufferERN2gl6HandleILNS0_10ObjectTypeE9EEES3_
BFb:__ZN15UniformTFMethod13MapBoneBufferEj
fOe:__ZN2UI14CanvasRendererD2Ev
kpk:_Array_InternalArray__get_Item_TisParameterModifier_t1461694466_m29553316_gshared
rvi:_Int64_CompareTo_m1928360444_AdjustorThunk
uae:__ZN5physx26PxcPCMContactCapsuleConvexERKNS_2Gu13GeometryUnionES3_RKNS_11PxTransformES6_RKfRNS_10PxcNpCacheERNS0_13ContactBufferE
rCd:__ZNK5physx7NpShape16getContactOffsetEv
$sb:__Z9SetupArgviPPKc
eHi:_Convert_ToInt64_m2075031821
UZk:_AnalyticsEventTracker_OnDisable_m1553012800
ufm:_glTexParameteri__wrapper
uod:__ZN5physx10PxsContext17addParticleSystemEPNS_15PxsParticleDataERKNS_26PxvParticleSystemParameterEb
qmd:__ZN5physx3Scb5Scene13addRigidNoSimINS0_4BodyELb1ELb1EEEvRT_RNS0_13ObjectTrackerE
CBa:__ZN12CubemapArray23VirtualRedirectTransferER24GenerateTypeTreeTransfer
VX:__ZN12FileAccessor4OpenER15FileSystemEntry14FilePermission16FileAutoBehavior
dSl:__ZN6il2cpp2os9Directory6CreateERKNSt3__212basic_stringIcNS2_11char_traitsIcEENS2_9allocatorIcEEEEPi
Y3c:__ZL19sweepBoxVsTrianglesjPKN5physx10PxTriangleERKNS_2Gu3BoxERKNS_6PxVec3EfRNS_10PxSweepHitENS_7PxFlagsINS_9PxHitFlag4EnumEtEEbPKj
Xia:__ZN23TransformChangeDispatch32QueueTransformChangeIfHasChangedERK15TransformAccess
tse:_PxCreateCooking
w6c:__ZN9Rigidbody18AddForceAtPositionERK8Vector3fS2_i
Grg:_Assembly_get_FullName_m293988418
XXc:__ZN22WorldContactListener2D8PreSolveEP9b2ContactPK10b2Manifold
$zg:_Camera_get_pixelRect_Injected_m2326986893
hdk:__ZN28GenericInterfaceFuncInvoker1Ib19Color32_t2600501292E6InvokeEPK10MethodInfoP12Il2CppObjectS0_
B:tempValue
M0l:__ZN6il2cpp8metadata24Il2CppGenericContextHash4HashEPK20Il2CppGenericContext
emh:_InternalEnumerator_1_get_Current_m356936020_AdjustorThunk
SJb:__ZN6Camera21RenderODSWorldTextureERK11CullResultsRK19SharedRendererSceneR17ShaderPassContextNS_10RenderFlagE
Gui:_Int32_ToString_m141394615_AdjustorThunk
GT:__Z29scripting_class_from_fullnamePKcS0_S0_
nxi:_Directory_GetCurrentDirectory_m219218555
Tai:_SmallXmlParser_UnexpectedEndError_m1914362401
M8c:__ZN5physx2Gu29ConvexVsMeshContactGeneration20generateLastContactsEv
oCj:__Z85RuntimeInvoker_Boolean_t97287965_Ray_t3785851493_Single_t1397266774_Int32_t2950945753PFvvEPK10MethodInfoPvPS4_
U7a:__ZN14DelayedDeletorI15dense_hashtableINSt3__24pairIK9TextureIDiEES3_14GfxGenericHashIS3_EN14GfxDoubleCacheIS3_iS7_NS1_8equal_toIS3_EEN31GfxDoubleCacheConcurrencyPolicy11LocklessGetE42GfxDoubleCacheDefaultEmptyDeletedGeneratorIS3_EE9SelectKeyESA_13stl_allocatorIS5_L18MemLabelIdentifier24ELi16EEEEclEv
GGe:_UNITY_FT_Stream_ReadAt
zJd:__ZN5physx2Sc17ParticleSystemSim16getParticleStateEv
W1k:_AudioSampleProvider_Dispose_m1993565764
Qel:_Physics_Raycast_m3336206959
khe:__ZN5physx6shdfnd5ArrayINS_25PxsCompoundContactManagerENS0_19ReflectionAllocatorIS2_EEE8recreateEj
QSj:_TimeSpan__ctor_m1896986612_AdjustorThunk
V8h:_ArgumentException__ctor_m1216717135
DLg:_Ray_ToString_m1732834890_AdjustorThunk
SBc:__ZN9JSONWrite8TransferI13dynamic_arrayI5RectTIfELj0EEEEvRT_PKc17TransferMetaFlags
hvk:_List_1_System_Collections_IList_Contains_m3860993176_gshared
g8d:__ZN5physx14PxsAABBManagerC2ERNS_2Cm13EventProfilerERNS_19PxcScratchAllocatorE
kH:__ZN11AudioModule22CreateAudioClipFromWWWEP10IWWWStreamPKcbbi
Hhc:__ZN9Texture2DC2E10MemLabelId18ObjectCreationMode
twb:__Z17DebugStringToFileIA59_cEvRKT_iPKci15LogMessageFlagsiiPFvRK11CppLogEntryE
lXg:_ObjectRecord_get_IsUnsolvedObjectReference_m1163921033
EWj:_UInt32_System_IConvertible_ToBoolean_m1763673183_AdjustorThunk
CDg:_UnityEvent_AddListener_m2276267359
fua:__ZN6prcoreL11inner_clearILj4EEEvPhjjj
ogl:_NativeTypeAttribute__ctor_m1677513894
wO:__GLOBAL__sub_I_Runtime_SceneManager_0_cpp
pYl:_GC_initialize_offsets
Y$:__ZNK8Playable6HandleEv
W1g:_SetPropertyUtility_SetColor_m2229203028
VV:__ZN14MessageHandler28MessageIDToMessageIdentifierEi
lJa:__ZNK11SpriteAtlas20GetRuntimeRenderDataEPK6Sprite
dxi:_FileSystemInfo__ctor_m3035148496
Zti:_Int32_System_IConvertible_ToDecimal_m2190376994_AdjustorThunk
d8:__ZL43__ManagedRegistrationHelperFunction_Vector4Pv
cx:__Z51Register_UnityEngine_Animator_get_hasBoundPlayablesv
he:emscriptenWebGLGetUniform
tp:FUNCTION_TABLE_iiiiiiiiiii
fWk:_GUI_CallWindowDelegate_m3309453386
ZEe:_cff_set_mm_blend
o6c:__ZN5physx2Gu19sweepCapsuleCapsuleERKNS0_7CapsuleES3_RKNS_6PxVec3EfRfRS4_S8_jRt
fVb:__ZL10CleanUpJobP20CullingGroupsJobData
$wi:_DirectoryInfo_get_Exists_m3142069876
KLa:__ZN10MeshFilter23VirtualRedirectTransferER24GenerateTypeTreeTransfer
Cec:__Z13RegisterClassI16LightmapSettingsEvPKc
$Ib:__ZN13RenderManager15BatchModeUpdateEv
hJh:_X509Chain_get_CertificateAuthorities_m804805415
c8f:__ZL71ContactFilter2D_t3805203441_CustomAttributesCacheGenerator_useLayerMaskP21CustomAttributesCache
INg:_Vector2_get_one_m738793577
dUc:__ZN10ClipperLib7Clipper15SetWindingCountERNS_5TEdgeE
ync:__ZNK4Mesh14GetIndexFormatEv
sVe:__ZN9Scripting11UnityEngine9Analytics21AnalyticsSessionState9InitProxyEv
FRg:_Vector2_get_magnitude_m2752892833_AdjustorThunk
zvd:__ZN5physx2Sc8ActorSim24postDominanceGroupChangeEv
PNl:__ZN14dense_hash_mapI10KeyWrapperIP12Il2CppObjectEN6il2cpp2gc9CachedCCWENS4_5utils11PointerHashIS1_EENS3_14EqualsComparerINSt3__28equal_toIS2_EEEENSB_9allocatorINSB_4pairIKS3_S6_EEEEE13set_empty_keyERSH_
ze:_glVertexAttribIPointer
pOj:_StringBuilder_ToString_m3317489284
R7b:__ZNK6Sprite10GetPaddingE20SpriteRenderDataMode
rwd:__ZN5physx2Cm8PtrTable5clearERNS0_22PtrTableStorageManagerE
gSi:_Array_InternalArray__ICollection_Remove_TisUInt32_t2560061978_m733727733_gshared
NZg:_CryptographicException__ctor_m503735289
Udd:__ZN5physx3Cct15ObstacleContext7releaseEv
U4d:__ZN5physx27solveFrictionBlockWriteBackEPKNS_23PxcSolverConstraintDescEjRNS_16PxcSolverContextEPNS_25PxcThresholdStreamElementEjPi
Myi:_Stream_EndRead_m1896469262
Gkj:__Z93RuntimeInvoker_Boolean_t97287965_Int32_t2950945753_SByte_t1669577662_ExceptionU26_t3600731591PFvvEPK10MethodInfoPvPS4_
BMb:__ZN14qsort_internal5QSortIP15RODataDepthPassi17ROSorterDepthPassEEvT_S4_T0_T1_
pHe:_UNITY_ft_glyphslot_alloc_bitmap
Lwe:__ZN13PhysicsModule21SetAutoSyncTransformsEbb
a2j:_ReadOnlyCollection_1_System_Collections_IList_Add_m3642938800_gshared
jYh:_RSASslSignatureDeformatter_SetHashAlgorithm_m895570787
dS:__ZL36TransformAccessArray_InitializeClassPv
vOk:_X509CrlEntry__ctor_m4013514048
zyj:__Z87RuntimeInvoker_Color_t2555686324_Color_t2555686324_Color_t2555686324_Single_t1397266774PFvvEPK10MethodInfoPvPS4_
dMe:_ft_raster1_render
Xsc:__Z47Register_UnityEngine_Mesh_RecalculateBoundsImplv
r4a:__ZN9GfxDevice27UpdateComputeSkinPoseBufferEP9GfxBufferP12SkinMeshInfo
j5h:_String_LastIndexOf_m3451222878
Z4l:__ZNKSt3__221__basic_string_commonILb1EE20__throw_length_errorEv
Xaj:_EqualityComparer_1_System_Collections_IEqualityComparer_Equals_m245992594_gshared
Mj:_JS_SystemInfo_GetMemory
XVi:_Array_InternalArray__IndexOf_TisParameterModifier_t1461694466_m1227120810_gshared
TDb:__ZN18GfxFramebufferGLES13ReadbackImageER14ImageReferenceiiiiii
Iyc:__ZN5Unity9rapidjson6WriterI16TempBufferWriterNS0_4UTF8IcEES4_13JSONAllocatorE11WriteStringEPKcj
o4:__ZN6prcoreL12RemapGenericI17TexFormatARGB888815TexFormatRGB565EEvPKNS_9InnerInfoE
GA:__ZN4FMOD7Channel19setReverbPropertiesEPK29FMOD_REVERB_CHANNELPROPERTIES
R_k:_StandardEventPayload_GetParameters_m2672427676
_Ai:_StreamReader_Dispose_m156389394
uV:__ZN13MonoBehaviour22GetScriptFullClassNameEv
Jxc:__ZNSt3__26vectorIN10GUIManager16GUIObjectWrapperENS_9allocatorIS2_EEE21__push_back_slow_pathIS2_EEvOT_
QIk:_RIPEMD160Managed_JJ_m112143231
rhe:__ZN5physx6shdfnd4sortIPNS_15PxsContactPatchENS_27SortBoundsPredicateManifoldENS0_19ReflectionAllocatorIS3_EEEEvPT_jRKT0_RKT1_j
NLb:__ZN13BatchRendererC2ER15RenderLoopStatsRK15RenderNodeQueuebb
Q2a:__ZNK16MemoryFileSystem9EnumerateEPKcP19dynamic_block_arrayI13FileEntryInfoLj32EEbPPv19FileEnumerationFlag
jrb:__ZN13MonoBehaviour9CallAwakeEv
Vta:__ZN20SphericalHarmonicsL211AddWeightedERKS_f
Jnj:__Z82RuntimeInvoker_RuntimeObject_Int64_t3736567304_Int64_t3736567304_Int64_t3736567304PFvvEPK10MethodInfoPvPS4_
z9g:__Z14bankers_roundff
Qfb:__Z19TransferField_ArrayI17RemapPPtrTransfer27Converter_SimpleNativeClassI8GUIStyleEEvRK23StaticTransferFieldInfoR31RuntimeSerializationCommandInfoRT0_
wzc:__ZN9JSONWrite8TransferI10ColorRGBAfEEvRT_PKc17TransferMetaFlags
ndd:__ZN5physx3Cct26CharacterControllerManager16createControllerERKNS_16PxControllerDescE
K_e:__ZN11UnityEngine9Analytics22EventLimitResumedEventC2EjRKN4core12basic_stringIcNS2_20StringStorageDefaultIcEEEEb
PV:__Z25scripting_method_get_name18ScriptingMethodPtr
uYh:_SslCipherSuite_ComputeKeys_m661027754
heb:__Z19TransferField_ArrayI14SafeBinaryRead16Converter_StringEvRK23StaticTransferFieldInfoR31RuntimeSerializationCommandInfoRT0_
qJg:_Object_set_name_m291480324
OMi:_Decimal_Equals_m2486655999
rYl:_GC_exit_check
Eak:__ZN16VirtFuncInvoker2Ii19Color32_t2600501292S0_E6InvokeEjP12Il2CppObjectS0_S0_
Tlf:_MonoField_ToString_m2518484388
P1i:_DSAManaged_get_Random_m923751780
hS:__ZL29TransformAccessChangeCallbackPK15TransformAccessj
XRg:_Vector3_set_Item_m1772472431_AdjustorThunk
aMh:_Interpreter_PopulateGroup_m4042796257
u$e:__ZN9Scripting11UnityEngine10Networking18CertificateHandler9InitProxyEv
c2e:__ZN9Scripting11UnityEngine12Experimental2XR13TrackableType9InitProxyEv
ZUj:_Type_GetProperty_m3414567179
RIl:__ZN6il2cpp2vm13LivenessState25FieldCanContainReferencesEP9FieldInfo
iZb:__ZNSt3__26vectorINS_4pairIN4core12basic_stringIcNS2_20StringStorageDefaultIcEEEES6_EE13stl_allocatorIS7_L18MemLabelIdentifier38ELi16EEE6insertENS_11__wrap_iterIPKS7_EERSD_
oEg:_RenderPipelineManager_DoRenderLoop_Internal_m3799666479
c$l:__ZN6il2cpp2os12Cryptography23GetCryptographyProviderEv
ylc:__Z13RegisterClassI14PlayerSettingsEvPKc
Kf:_emscripten_glStencilOpSeparate
CHk:_Collection_1_System_Collections_IList_IndexOf_m3894953546_gshared
AZh:_RSACryptoServiceProvider_OnKeyGenerated_m863837376
HMk:_PKCS12_get_Certificates_m26161562
KDh:_NameObjectCollectionBase_Init_m2525481323
TOb:__ZN15SkyboxGenerator28GetCubemapSkyboxVertexFormatEv
c7a:__ZN19ShaderPropertySheet24SetTextureWithExplicitIDERK23FastTexturePropertyNameP7Texture9TextureID
Uij:_List_1_Insert_m1582252370_gshared
cUl:__ZN6il2cpp2vm6String8NewUtf16EPKDsi
KYg:_SByte_System_IConvertible_ToByte_m2268214252_AdjustorThunk
ARl:__ZN6il2cpp2os10ThreadImpl12QueueUserAPCEPFvPvES2_
LTk:_RegularExpression__ctor_m119502265
Z_e:__ZN22BaseUnityConnectClient10QueueEventERN11UnityEngine15CloudWebService17CloudServiceEventEPKcjb
g4j:_ReadOnlyCollection_1_System_Collections_Generic_ICollectionU3CTU3E_Clear_m522482168_gshared
TWc:__ZN13ProduceHelperI17PhysicsMaterial2DLb0EE7ProduceE10MemLabelId18ObjectCreationMode
Suf:_ConstructionCall_InitMethodProperty_m2021094586
Yqc:__Z27Texture_CUSTOM_GetDataWidthP12Il2CppObject
R5c:__ZNK5physx2Gu15HeightFieldUtil12traceSegmentI25CapsuleTraceSegmentReportLb0ELb0ELb1EEEvRKNS_6PxVec3ES6_PT_PS5_
gOc:__ZN7b2World19ContactsCollideTaskEv
bKe:_UNITY_FT_Hypot
t9d:__ZN5physx10PxsContext23prepareCMDiscreteUpdateEPNS_10PxBaseTaskE
Lig:__ZL74CanvasScaler_t2767979955_CustomAttributesCacheGenerator_m_DefaultSpriteDPIP21CustomAttributesCache
Uvd:__ZN5physx6shdfnd5ArrayIPvNS0_19ReflectionAllocatorINS_2Cm5BlockIhLj256EEEEEE4copyINS0_15InlineAllocatorILj256ES7_EEEEvRKNS1_IS2_T_EE
bg:_emscripten_glGetError
Nyl:__ZN15dense_hashtableINSt3__24pairIK10KeyWrapperIPK14Il2CppAssemblyEPK22Il2CppMonoAssemblyNameEES6_N6il2cpp5utils11PointerHashIS4_EEN14dense_hash_mapIS6_SA_SF_NS6_14EqualsComparerINS0_8equal_toIS5_EEEENS0_9allocatorISB_EEE9SelectKeyESK_SM_E14squash_deletedEv
yai:_SmallXmlParser__ctor_m202236734
IB:__Z14FMOD_FILE_SeekPvjS_
yzd:__ZN5physx6shdfnd8PoolBaseINS_11NpAggregateENS0_19ReflectionAllocatorIS2_EEE15disposeElementsEv
Oua:__ZN7TextureC2E10MemLabelId18ObjectCreationMode
k5g:_LayoutGroup__ctor_m2162961217
bVe:__Z56Register_UnityEngine_Analytics_CustomEventData_AddStringv
lSe:__ZZN2UI6Canvas15InitializeClassEvEN39FunctorImpl_1449kCanvasHierarchyChanged4CallEPviR11MessageData
qWb:__ZNK13RenderTexture32CalculateNeedsInvertedProjectionEv
Idd:__ZN5physx2Gu17RadixSortBuffered4SortEPKfj
jg:emscriptenWebGLGet
iY:__Z19CanReplaceComponentRN5Unity9ComponentEPKNS_4TypeEPN4core12basic_stringIcNS5_20StringStorageDefaultIcEEEE
_lg:_UnmanagedMemoryStream_Flush_m1540584491
Xri:_GuidParser_ParseGuid2_m1914838819
tjc:__ZN12CubemapArray11InitTextureEiii13TextureFormatb
EAa:__ZN6prcoreL18BlitIntegerToFloatERK14ImageReferenceRS0_
b8b:__Z17GetSceneBuildInfoRKN4core12basic_stringIcNS_20StringStorageDefaultIcEEEEiR14SceneBuildInfo
ZFf:__ZL70ReliabilityContractAttribute_t502331440_CustomAttributesCacheGeneratorP21CustomAttributesCache
Qgh:_InternalEnumerator_1_System_Collections_IEnumerator_get_Current_m55999184_gshared
Tef:_Graphic_get_depth_m815589653
Cid:__ZN27ConvexVsMeshOverlapCallbackC2ERKN5physx2Gu10ConvexMeshERKNS0_11PxMeshScaleERKNS0_2Cm23FastVertex2ShapeScalingERKNS0_11PxTransformESE_bRKNS1_3BoxE
J5g:_LayoutGroup_SetLayoutInputForAxis_m2458344630
HPb:__ZL24AssignProjectorQueuesJobP30AssignProjectorQueuesJobHeader
Lnf:_ParameterModifier_t1461694466_marshal_pinvoke
I5b:__ZNSt3__26vectorIN9ShaderLab20SerializedSubProgram15StructParameterENS_9allocatorIS3_EEE21__push_back_slow_pathIS3_EEvOT_
gti:_Int16_System_IConvertible_ToUInt32_m3410279543
v5b:__ZN9ShaderLab20SerializedSubProgram14SetConstBufferEPKci
Etl:__ZN6il2cpp2os4File5CloseEPNS0_10FileHandleEPi
dml:__ZNSt3__27__sort5IRN6il2cpp5utils11collections13ArrayValueMapIPK10Il2CppType17Il2CppInteropData26InteropDataToTypeConverterNS1_8metadata14Il2CppTypeLessENSA_26Il2CppTypeEqualityComparerEE12SortComparerEPS8_EEjT0_SH_SH_SH_SH_T_
rwe:__ZN13PhysicsModule17SetRigidBodyStateER9RigidbodyRKN8IPhysics14RigidBodyStateE
nCe:_cf2_getStdVW
iWj:_UInt16_CompareTo_m2664746316_AdjustorThunk
v0d:__ZN5physx2Sq12BucketPruner11shiftOriginERKNS_6PxVec3E
iEc:__Z29Transfer_Blittable_ArrayFieldI8JSONReadjEvRT_R9ArrayInfoRK23StaticTransferFieldInfo
Tld:__ZN5physx6shdfnd5ArrayIPNS_2Sc16ArticulationCoreENS0_19ReflectionAllocatorIS4_EEE15growAndPushBackERKS4_
xYl:_GC_check_finalizer_nested
Rg:__setLetterbox
Abh:_ScrollRect_OnScroll_m3861066534
Sfe:__ZN5physx19normalizePartitionsERNS_6shdfnd5ArrayIjNS0_19ReflectionAllocatorIjEEEEPNS_23PxcSolverConstraintDescEPKNS_13PxcSolverBodyEjjS5_
SQi:_Array_InternalArray__ICollection_Contains_TisResourceCacheItem_t51292791_m2991582559_gshared
u0f:__ZL72FormerlySerializedAsAttribute_t2859083114_CustomAttributesCacheGeneratorP21CustomAttributesCache
j1g:_OnValidateInput_Invoke_m1009124904
F9c:__ZN18ContactCapsuleMesh20processTriangleCacheILj16EEEbRN5physx2Gu13TriangleCacheIXT_EEE
AQk:_PatternCompiler_EmitFastRepeat_m3012952683
_Na:__ZNSt3__26vectorI17BlendShapeChannelNS_9allocatorIS1_EEE6assignINS_11__wrap_iterIPS1_EEEENS_9enable_ifIXaasr21__is_forward_iteratorIT_EE5valuesr16is_constructibleIS1_NS_15iterator_traitsISA_E9referenceEEE5valueEvE4typeESA_SA_
uwb:__Z12SetGfxDeviceP9GfxDevice
o$b:__ZN11TimeManager11GetRealtimeEv
zhd:__ZN5physx2Sc16InteractionScene25removeFromActiveActorListERNS0_5ActorE
cC:__ZN29AudioEffectInternalDefinitionC2EP26UnityAudioEffectDefinitionb
b9j:_ReadOnlyCollection_1_System_Collections_IList_Remove_m2434650390_gshared
BWj:_UInt16_ToString_m3056878594_AdjustorThunk
N_c:__ZN5physx3Ext21InertiaTensorComputer6rotateERKNS_7PxMat33E
ZMh:_Interval_get_IsSingleton_m3386290029
_Bl:__ZNSt3__2plIcNS_11char_traitsIcEENS_9allocatorIcEEEENS_12basic_stringIT_T0_T1_EERKS9_PKS6_
HYe:__ZN18UnityConnectClient27OnPlayerSessionStateChangedEjyy
iAa:_stbir_resize
jVi:_Array_IndexOf_TisCustomAttributeTypedArgument_t2723150157_m3158556463_gshared
RPi:_Environment_GetOSVersionString_m407782784
f7h:_DecoderExceptionFallback_Equals_m1082173956
DEf:__ZL69Assembly_t_CustomAttributesCacheGenerator_Assembly_GetName_m981771927P21CustomAttributesCache
K6:__ZL59__ManagedRegistrationHelperFunction_AsyncGPUReadbackRequestPv
VVf:__ZL93Mesh_t3648964284_CustomAttributesCacheGenerator_Mesh_GetAllocArrayFromChannelImpl_m3084065604P21CustomAttributesCache
jLc:__ZN24b2ChainAndCapsuleContact6CreateEP9b2FixtureiS1_iP16b2BlockAllocator
d1a:__Z37ReadDirectoryInfo_UnityWebAndUnityRawR12FileAccessorRKN20ArchiveStorageHeader6HeaderERNS1_13DirectoryInfoE
uS:__ZNSt3__26__treeINS_12__value_typeIPKciEENS_19__map_value_compareIS3_S4_15compare_tstringIS3_ELb1EEENS_9allocatorIS4_EEE7destroyEPNS_11__tree_nodeIS4_PvEE
$ik:_Array_InternalArray__Insert_TisIntPtr_t_m189626842_gshared
mIh:_X509Certificate2_get_IssuerName_m1277209535
pIk:_RijndaelManaged_CreateEncryptor_m263736311
yMb:__ZN20DynamicPropertySheet14SetValueQueuedEN9ShaderLab16FastPropertyNameEN19ShaderPropertySheet12PropertyTypeEjNS2_8SetFlagsE
hDg:_InvokableCallList_ClearPersistent_m1904264973
tsb:__ZN25PathNamePersistentManagerD2Ev
WTa:__ZN17PersistentManager48IntegrateObjectAndUnlockIntegrationMutexInternalEi
L2:__ZZ29InitializeSortingGroupManagerPvEN44PostLateUpdateSortingGroupsUpdateRegistrator7ForwardEv
tcg:__ZL55EventTrigger_t1076084509_CustomAttributesCacheGeneratorP21CustomAttributesCache
k2h:_SecurityElement_SearchForChildByTag_m900466299
Iq:__ZN6Object12SetHideFlagsENS_9HideFlagsE
rKc:__ZN9b2Fixture11SynchronizeEP12b2BroadPhaseRK11b2TransformS4_
o0c:__ZN9Rigidbody23VirtualRedirectTransferER14SafeBinaryRead
GHi:_Convert_ToSingle_m3227075028
kcm:_emscripten_glGetFramebufferAttachmentParameteriv__wrapper
GVb:__ZN13RendererScene15InitializeUmbraEv
gsa:__Z28CalculateGlobalMatrixInverse23TransformAccessReadOnly
Cdj:_GenericEqualityComparer_1_Equals_m3457564127_gshared
$Nh:_BigInteger_ModInverse_m2426215562
b7h:_DecoderExceptionFallback__ctor_m4044614564
NJd:__ZNK5physx15PxsParticleData15getWorldBoundsVEv
dmg:_LocalDataStoreSlot__cctor_m644942532
Yad:__ZN12_GLOBAL__N_124HfTrianglesEntityReport27onEventEjPj
K0l:__ZN6il2cpp6icalls8mscorlib6System6Object7GetTypeEP12Il2CppObject
Imf:_MonoProperty_CachePropertyInfo_m2968057423
C$e:__ZNK25UnityWebRequestJavaScript18GetDownloadedBytesEv
BLg:_Ray_GetPoint_m1852405345_AdjustorThunk
Tud:__ZN5physx17PxsContactManager16resetCachedStateEv
O$e:__ZN12HeaderHelper14SetUnvalidatedERKN4core12basic_stringIcNS0_20StringStorageDefaultIcEEEES6_b
kA:__ZN4FMOD6SoundI7releaseEv
KOd:__ZN5physx20NpRigidActorTemplateINS_14PxRigidDynamicEE15setActorSimFlagEb
YLa:__ZN14SpriteRenderer13AwakeFromLoadE17AwakeFromLoadMode
QDe:_cff_parse_num
H1a:__ZN10MemoryFile9SetLengthEy
DEc:__ZN8JSONRead21TransferSTLStyleArrayI13dynamic_arrayI11ColorRGBA32Lj0EEEEvRT_17TransferMetaFlags
Whb:__ZN5RectTIiE8TransferI24GenerateTypeTreeTransferEEvRT_
Orb:__Z28scripting_class_is_interface17ScriptingClassPtr
gi:_glTexStorage2D
Voi:_CultureInfo_ConstructInternalLocaleFromName_m4012802696
cxa:__ZNK9ShaderLab10SubProgram14EnsureCompiledEv
rxg:_MethodBuilder_GetGenericArguments_m1765425737
lKi:_DateTime_CompareTo_m3687348273
mXl:_GC_push_marked
KKi:_DateTime_ToUniversalTime_m1945318289_AdjustorThunk
Eve:__ZN5physx7profile10DataBufferINS_6shdfnd6MutexTINS0_26WrapperReflectionAllocatorIhEEEENS0_14ScopedLockImplIS6_EEE17handleBufferFlushEPKhj
uGi:_Convert_ToInt16_m1336719169
FV:__Z18BuildScriptClassId17ScriptingClassPtr
i9k:_TextGenerator_Init_m1168488231
p$a:__ZL31DeleteLastPathNameComponentImplRKN4core12basic_stringIcNS_20StringStorageDefaultIcEEEEPKc
DLi:_DBNull_System_IConvertible_ToUInt64_m4072736670
KVe:__ZN18UnityConnectClient15GetCloudServiceEv
Adb:__Z29Transfer_Blittable_ArrayFieldI14SafeBinaryRead5RectTIiEEvRT_R9ArrayInfoRK23StaticTransferFieldInfo
Die:__ZN5physx20PxsConstraintProjectEPKNS_13PxsConstraintEbf
uCd:__ZN5physx7NpShape7setFlagENS_11PxShapeFlag4EnumEb
dlh:_InternalEnumerator_1_get_Current_m2698009637_gshared
Gpl:__ZN6il2cpp2os19SocketHandleWrapperD2Ev
PKc:__ZN15b2CircleContact6CreateEP9b2FixtureiS1_iP16b2BlockAllocator
Irb:__ZL28SerializationCommandGroupForRK31TransferFunctionScriptingTraits17ScriptingClassPtr17ScriptingFieldPtrRK20CoreScriptingClasses
dha:__ZN10TagManager32RegisterDefaultTagsAndLayerMasksEv
KSj:_WaitHandle_Dispose_m738127030
Mtj:__Z50RuntimeInvoker_Double_t594665363_Int32_t2950945753PFvvEPK10MethodInfoPvPS4_
Aee:__ZN5physx2Sc35ParticleElementRbElementInteraction12onDeactivateEj
KDj:__Z104RuntimeInvoker_Void_t1185182177_Color_t2555686324_Single_t1397266774_SByte_t1669577662_SByte_t1669577662PFvvEPK10MethodInfoPvPS4_
Ihj:_Enumerator_System_Collections_IEnumerator_get_Current_m1540440674_gshared
g3h:_Single_System_IConvertible_ToInt16_m809233024_AdjustorThunk
tTf:__ZL64FreeFunctionAttribute_t2020741617_CustomAttributesCacheGeneratorP21CustomAttributesCache
dVe:__Z56Register_UnityEngine_Analytics_CustomEventData_AddUInt32v
n3l:_fmodf
SYc:__Z75Register_UnityEngine_Physics2D_GetRayIntersectionNonAlloc_Internal_Injectedv
_Ab:__ZN4gles8InitCapsEP7ApiGLESP12GraphicsCapsR16GfxDeviceLevelGL
AAa:__ZN6prcore14BlitImageFloatERK14ImageReferenceRS0_NS0_8BlitModeE
Bta:__Z24CalculateVertexLightDataRK15SharedLightDataR14GfxVertexLight
Qi:_glEnable
$wl:__ZN15dense_hashtableINSt3__24pairIK10KeyWrapperINS1_IPK12PropertyInfoP11Il2CppClassEEEjEES9_17ReflectionMapHashIS8_EN14dense_hash_mapIS9_jSD_NS9_14EqualsComparerINS0_8equal_toIS8_EEEENS0_9allocatorISB_EEE9SelectKeyESI_SK_E15insert_noresizeERKSB_
Kba:__ZN9Scripting11UnityEngine33ExcludeFromObjectFactoryAttribute12CleanupProxyEv
_wa:__ZNK9ShaderLab7Program28BeginReadUnsupportedVariantsEv
Q0d:__ZN5physx2Sq10AABBPrunerC2Eb
Qea:__ZN12CachedWriter11Align4WriteEv
zSa:__ZNSt3__26vectorIN30RuntimeInitializeOnLoadManager9ClassInfoE13stl_allocatorIS2_L18MemLabelIdentifier13ELi16EEE7reserveEj
eYd:__ZN5physx2Sq8AABBTreeC2Ev
fQk:_PatternCompiler_EmitCategory_m851169746
Izc:__Z35Transfer_Blittable_FixedBufferFieldI9JSONWriteiEvRK29SerializationCommandArgumentsR31RuntimeSerializationCommandInfo
Sdj:_Enumerator__ctor_m1590062855_AdjustorThunk
U$i:_BigInteger_op_Subtraction_m1575155386
BRh:_RSAManaged_ImportParameters_m1117427048
Clg:_UnexceptionalStreamReader_Peek_m1842169584
OWe:__ZN11UnityEngine7Connect15DeviceInfoEvent16CollectExtraInfoEv
Ele:__ZN5physx2Gu10ConvexMeshD2Ev
Ygg:__ZL66Navigation_t3049316579_CustomAttributesCacheGenerator_m_SelectOnUpP21CustomAttributesCache
Eyl:__ZN6il2cpp2gc19AppendOnlyGCHashMapIPK10Il2CppTypeP20Il2CppReflectionTypeNS_8metadata14Il2CppTypeHashENS7_26Il2CppTypeEqualityComparerEEC2Ev
uSg:_Vector4_Equals_m1779210055_AdjustorThunk
PIi:_Convert_ChangeType_m739676612
dHb:__ZN20ArchiveStorageReader10InitializeER15FileSystemEntryyb
rVl:__ZThn8_N6il2cpp2vm13CachedCCWBaseINS0_13ManagedObjectEE6AddRefEv
Mif:_TypeBuilder_CreateType_m3375483507
V$i:_ModulusRing_BarrettReduction_m167376748
cUg:_RemotingServices_GetRealProxy_m2081098851
w1i:_BlockProcessor_Core_m189015002
scm:_emscripten_glScissor__wrapper
xp:FUNCTION_TABLE_viifi
Ap:FUNCTION_TABLE_viiff
Nfd:__ZNK5physx2Sc8ShapeSim10getBodySimEv
X9h:_X501__cctor_m1166912714
zAf:__ZL37Type_t_CustomAttributesCacheGeneratorP21CustomAttributesCache
su:__ZN9Scripting11UnityEngine14AnimationState9InitProxyEv
oNc:__ZNSt3__26__sortIRN18Overlap2DQueryBase29ColliderHitsByDepthComparitorEPP10Collider2DEEvT0_S7_T_
Rzg:_Bounds_ToString_m4208690781
upj:__Z88RuntimeInvoker_RuntimeObject_RuntimeObject_RuntimeObject_Int32_t2950945753_RuntimeObjectPFvvEPK10MethodInfoPvPS4_
KAl:__ZN6il2cpp2vm14TypeNameParser5ParseEb
w1f:__ZL100GameObject_t1113636619_CustomAttributesCacheGenerator_GameObject_SendMessage_m3720186693____options2P21CustomAttributesCache
oBi:_StreamWriter_Initialize_m3490883444
kVj:_Type_GetGenericArguments_m3500465462
epl:__ZN15dense_hashtableINSt3__24pairIK10KeyWrapperIP9FieldInfoEiEES5_N6il2cpp5utils11PointerHashIS3_EEN14dense_hash_mapIS5_iSB_NS5_14EqualsComparerINS0_8equal_toIS4_EEEENS0_9allocatorIS7_EEE9SelectKeyESG_SI_E12resize_deltaEjj
Yvd:__ZN5physx6shdfnd5ArrayIPvNS0_19ReflectionAllocatorINS_2Cm5BlockIhLj128EEEEEE15growAndPushBackERKS2_
p_e:__ZN23UnityPurchasingSettingsC2Ev
ZOa:__ZNK9Transform13GetWorldScaleEv
Qkf:_Module_IsDefined_m2423524910
nug:_DerivedType_create_unmanaged_type_m747846525
N5f:__ZL60EventType_t3528516131_CustomAttributesCacheGenerator_repaintP21CustomAttributesCache
Ula:__ZN17GPUFenceInternals7ReleaseEv
Lhg:__ZL66Selectable_t3250028441_CustomAttributesCacheGenerator_m_NavigationP21CustomAttributesCache
Dnc:__ZN17MaterialScripting18CreateWithMaterialE21ScriptingObjectOfTypeI8MaterialEPS1_
aDd:__ZN5physx14NpShapeManager15setupSceneQueryERNS_2Sq17SceneQueryManagerERKNS_12PxRigidActorERKNS_7NpShapeE
rWb:__ZL10RenderFaceR9GfxDeviceR18MaterialStateCacheP13RenderTextureiif
iVi:_Array_IndexOf_TisCustomAttributeNamedArgument_t287865710_m2817957199_gshared
m3j:_ReadOnlyCollection_1_System_Collections_IList_RemoveAt_m1980090087_gshared
WLk:_ExtendedKeyUsageExtension_ToString_m2116504780
bXa:__ZNK5Unity9Component38MarkGameObjectAndComponentDependenciesER27GarbageCollectorThreadState
yie:__ZN22ScAfterIntegrationTask11runInternalEv
Ewi:_BinaryReader_Read_m3708759962
Jnd:__ZNK5physx2Sc9ClothCore23getExternalAccelerationEv
eW:__ZNK11TypeManager15ClassNameToRTTIEPKcb
u4c:__ZN5physx2Gu13coarseCullingERKNS_6PxVec3ES3_ffRKNS_10PxTriangleE
o6:__ZL57__ManagedRegistrationHelperFunction_DefaultExecutionOrderPv
FAb:__ZN9GfxDevice26CreateDefaultVertexBuffersEv
Mdm:_emscripten_glVertexAttrib2fv__wrapper
Okg:_SynchronizedReader_ReadToEnd_m2160105378
afe:__ZN5physx2Sc5Scene29processNarrowPhaseTouchEventsEv
kDa:__ZN4crnd12symbol_codec32decode_receive_static_data_modelERNS_25static_huffman_data_modelE
fic:__ZN18ScriptingArguments8AddFloatEf
Ygf:_Image_set_fillOrigin_m469806249
CWe:__ZN11UnityEngine15PlatformWrapper16GetVRRenderScaleEv
Mpd:__ZN5physx6shdfnd5ArrayIPvNS0_15InlineAllocatorILj256ENS0_19ReflectionAllocatorINS_18NpArticulationLinkEEEEEE15growAndPushBackERKS2_
IAc:__Z18Transfer_BlittableI9JSONWriteLb0EaEvRK29SerializationCommandArgumentsR31RuntimeSerializationCommandInfo
IJ:__ZN11UnityEngine15CloudWebService14DataDispatcher34OnSessionContainerArchivedAndReadyERNS0_16SessionContainerE
wIg:_ConnectionChangeEvent__ctor_m764126802
UHc:__ZN7b2World11CreateJointEPK10b2JointDef
_dd:__ZNK5physx3Cct15ObstacleContext11getObstacleEj
iof:_ResolveEventHandler_Invoke_m1337322179
Agj:_Enumerator_VerifyState_m2621680056_gshared
FUk:_UriParser_InternalRegister_m3643767086
N0b:__ZN14SafeBinaryRead19TransferSTLStyleMapINSt3__23mapIN4core12basic_stringIcNS3_20StringStorageDefaultIcEEEEiNS1_4lessIS7_EENS1_9allocatorINS1_4pairIKS7_iEEEEEEEEvRT_17TransferMetaFlags
FIe:_gray_move_to
zLi:_DBNull_System_IConvertible_ToSingle_m13713620
Yhi:_Char_ToLowerInvariant_m1926695830
i3j:_ReadOnlyCollection_1_System_Collections_IList_Contains_m1327645028_gshared
jhf:_Image_GetDrawingDimensions_m3060965396
I3f:__ZL69FontTextureRebuildCallback_t2467502454_CustomAttributesCacheGeneratorP21CustomAttributesCache
DVj:_TypeLoadException__ctor_m1154572625
Mya:__ZNSt3__27__sort4IRPFbRKNS_4pairIN9ShaderLab16FastPropertyNameE10ColorRGBAfEES7_EPS5_EEjT0_SC_SC_SC_T_
yVh:_Context_get_WriteSequenceNumber_m1115956887
Unk:_Dictionary_2_Do_ICollectionCopyTo_TisKeyValuePair_2_t2401056908_m1169495264_gshared
Wxg:_OpCodes__cctor_m3821715395
Xaf:_ContentSizeFitter__ctor_m2349275633
E$d:__ZN5physx13IslandManager6resizeEj
VHe:_tt_cmap_init
$Ec:__ZN8JSONRead8TransferI9BoundsIntEEvRT_PKc17TransferMetaFlagsb
Cb:invoke_viidi
tmk:_Array_Sort_TisOrderBlock_t1585977831_m2922111197_gshared
Ekd:__ZN5physx6shdfnd8PoolBaseINS_2Cm5BlockIPvLj16EEENS0_19ReflectionAllocatorIS5_EEE17releaseEmptySlabsEv
Kef:_Graphic_OnRectTransformDimensionsChange_m3695755375
MYg:_SByte_System_IConvertible_ToChar_m1489191771_AdjustorThunk
aA:__ZN9AudioClip7CleanupEv
tlc:__Z13RegisterClassI18DelayedCallManagerEvPKc
RFl:__ZNK15dense_hashtableINSt3__24pairIK10KeyWrapperIP11Il2CppClassES4_EES5_N6il2cpp8metadata16SZArrayClassHashEN14dense_hash_mapIS5_S4_SA_NS5_14EqualsComparerINS9_19SZArrayClassCompareEEENS0_9allocatorIS7_EEE9SelectKeyESE_SG_E12test_deletedEj
EGi:_Convert_ToInt16_m1223489986
Ked:__ZL20updateMassAndInertiabRN5physx11PxRigidBodyEPKfjPKNS_6PxVec3Eb
CDc:__Z18Transfer_BlittableI8JSONReadLb0EdEvRK29SerializationCommandArgumentsR31RuntimeSerializationCommandInfo
yte:__ZN5physx24NpPtrTableStorageManagerC2Ev
_tf:_SynchronizationAttribute_EnterContext_m1660729920
jQe:__Z44Register_UnityEngine_Canvas_set_sortingOrderv
Tal:_Canvas_get_referencePixelsPerUnit_m3420541976
FVk:_Event_get_current_m2393892120
Y$k:_VertexHelper_Clear_m627349662
K3a:__ZNK9GfxDevice13GetViewMatrixEv
$lg:_UnmanagedMemoryStream_Dispose_m2681886347
vUd:__ZN5physx7NpScene15flushSimulationEb
Chh:_InternalEnumerator_1_System_Collections_IEnumerator_get_Current_m1295084274_gshared
sBd:__ZN5physx6shdfnd8PoolBaseINS_10NpMaterialENS0_19ReflectionAllocatorIS2_EEE12allocateSlabEv
hX:__ZN8TypeTree8BlobReadERPKhS1_ib
Xdi:_Array_Reverse_m3714848183
edf:_Dropdown_ClearOptions_m4085591601
iaf:_CanvasUpdateRegistry_InternalRegisterCanvasElementForGraphicRebuild_m3522560454
epe:__ZN5physx18ReducedVertexCloudC2EPKNS_6PxVec3Ej
hUa:__ZN18LoadSceneOperation23GetAllowSceneActivationEv
Zja:__ZN6CameraD0Ev
z1:__ZN31CanvasBatchIntermediateRenderer16StaticInitializeEPv
nSa:__ZN14SafeBinaryRead21TransferSTLStyleArrayINSt3__26vectorIi13stl_allocatorIiL18MemLabelIdentifier13ELi16EEEEEEvRT_17TransferMetaFlags
N7h:_EncoderFallback__cctor_m3806755293
GAe:_raccess_guess_apple_double
yCb:__ZL18ProgramUniform1uivPK7ApiGLESjiihPKv
Cjc:__ZN14Texture2DArray13RebuildMipMapEv
djl:__ZN13Il2CppHashSetIPK17Il2CppGenericInstN6il2cpp8metadata21Il2CppGenericInstHashENS4_24Il2CppGenericInstCompareENSt3__29allocatorI10KeyWrapperIS2_EEEEC2EjRKS5_RKS6_
ybb:__Z18Transfer_BlittableI14SafeBinaryReadLb1EaEvRK29SerializationCommandArgumentsR31RuntimeSerializationCommandInfo
sQl:__ZN6il2cpp2gc16GarbageCollector14RemoveWeakLinkEPPv
w5b:__ZN9ShaderLab20SerializedSubProgram14AddVectorParamEPKcii15ShaderParamTypei
$Re:__ZN2UI14CanvasRenderer12CleanupClassEv
XCi:_Enumerator__ctor_m3362421874
eNl:__ZN6il2cpp2vm6Object3BoxEP11Il2CppClassPv
pEl:__ZN6il2cpp2vm6Thread7SetNameEP12Il2CppThreadP12Il2CppString
bL:__ZN11UnityEngine15CloudWebService10RestClientINS0_23WebRequestRestHeaderMapEE16SetRequestHeaderERKN4core12basic_stringIcNS4_20StringStorageDefaultIcEEEESA_
sSa:__ZN30RuntimeInitializeOnLoadManager15ClassMethodInfo8TransferI14SafeBinaryReadEEvRT_
Kuf:_ConstructionCall_InitDictionary_m2824447813
cI:__ZL22InitializeModule_Audiov
i0d:__ZN5physx2Sq11PruningPoolD0Ev
C2a:__ZN16MemoryFileSystem8IsLockedERK13FileEntryData
b8d:__ZN3MBP15removeBoxPrunerEj
uHl:__ZN6il2cpp6icalls8mscorlib6System2IO6MonoIO5WriteEiP11Il2CppArrayiiPi
KGg:_Mathf_InverseLerp_m4155825980
Zqj:__Z92RuntimeInvoker_RuntimeObject_RuntimeObject_RuntimeObject_SByte_t1669577662_SByte_t1669577662PFvvEPK10MethodInfoPvPS4_
El:_emscripten_glBindRenderbuffer
mYl:_GC_dirty_init
NLl:__ZN6il2cpp2vm5Image33GetCachedMemoryMappedResourceFileEP24Il2CppReflectionAssembly
aMl:__ZN6il2cpp2vm5Field14GetValueObjectEP9FieldInfoP12Il2CppObject
NPe:__ZNK2UI6Canvas16GetTargetDisplayEv
aVe:__Z63Register_UnityEngine_Analytics_CustomEventData_Internal_Destroyv
uad:__ZL15SweepBoxCapsulePKN5physx3Cct9SweepTestEPKNS0_11SweptVolumeEPKNS0_11TouchedGeomERKNS_14PxExtendedVec3ERKNS_6PxVec3ERNS0_12SweptContactE
drb:__ZN13MonoBehaviour17RemoveFromManagerEv
VRg:_Vector3_get_Item_m668685504_AdjustorThunk
Hje:__ZN5physx2Sc19ParticlePacketShapeD2Ev
qlf:_MonoEventInfo_GetEventInfo_m873645389
Wsf:_Context_NotifyDynamicSinks_m1841702879
nWk:_GUIUtility_get_pixelsPerPoint_m2369948084
Y1h:_WindowsIdentity_System_Runtime_Serialization_IDeserializationCallback_OnDeserialization_m3428853631
PO:__ZN13MemoryManagerC2Ev
XOa:__ZN12SkinMeshInfo10DeallocateEPS_
bbh:_ScrollRect_SetDirty_m214267968
$Lj:__Z74RuntimeInvoker_Int32_t2950945753_UIVertex_t4057497605_UIVertex_t4057497605PFvvEPK10MethodInfoPvPS4_
W1a:__ZN20ArchiveStorageReader28AcquireAndPrefillUnusedBlockEjPNS_11CacheResultE
ufi:_Boolean_System_IConvertible_ToDateTime_m603510836
xjc:__Z12NHxRoughnessIA4_tEvP9Texture2DPT_iiii
Z0i:_ASN1_get_Value_m1857007406
KI:__Z6simd4iiiii
PYa:__ZN9Transform5ResetEv
JGi:_Decimal_op_Explicit_m1842265407
kib:__Z22TransferField_NonArrayI24GenerateTypeTreeTransfer16Converter_StringEvRK23StaticTransferFieldInfoR31RuntimeSerializationCommandInfoRT0_
E6:__ZL47__ManagedRegistrationHelperFunction_FixedUpdatePv
Jbl:_CanvasRenderer_SetAlphaTexture_m2009567627
tEe:_UNITY_FT_CMap_New
aih:_InternalEnumerator_1_get_Current_m4241643334_AdjustorThunk
Atb:__Z17MainLoopKeepalivePv
vnd:__ZN5physx7NpScene16addActorInternalERNS_7PxActorE
fuh:_Comparer_1__cctor_m2282308543_gshared
goh:_InternalEnumerator_1_get_Current_m1588647567_AdjustorThunk
t2l:_printf_core
jGf:__ZL51GCHandle_t3351438187_CustomAttributesCacheGeneratorP21CustomAttributesCache
L1g:_InputField_get_caretBlinkRate_m3620074524
tMb:__Z19SetupLODFadeKeywordR17ShaderPassContexti
DEe:_UNITY_FT_Stream_ReadFields
TZh:_RSAPKCS1SignatureFormatter_CreateSignature_m3191980616
Twa:__ZN10builtintex16GetDefaultTexEnvE16TextureDimensionb
HEb:__ZL25CheckCopyTextureArgumentsRK7ApiGLESP11GLESTextureS3_
Tgm:_glDeleteShader__wrapper
L0:__ZNK15PlayableMethods18InvokeOnGraphStartER18ScriptingObjectPtrRK9HPlayable
Ihb:__Z29Transfer_Blittable_ArrayFieldI24GenerateTypeTreeTransferyEvRT_R9ArrayInfoRK23StaticTransferFieldInfo
WA:__ZN4FMOD7SystemI9playSoundE17FMOD_CHANNELINDEXPNS_5SoundEbPPNS_7ChannelE
uvi:_Int64_GetHashCode_m703091690
L7:__ZL60__ManagedRegistrationHelperFunction_ReflectionProbeBlendInfoPv
NEd:__ZNK5physx7NpCloth16getStretchConfigENS_22PxClothFabricPhaseType4EnumE
eVc:__ZN17PhysicsMaterial2D5ResetEv
SVk:_Event_get_commandName_m4275147343
SFi:_Decimal_op_Implicit_m4256234411
acb:__Z24TransferPPtrToMonoObjecti17ScriptingClassPtrP23DataToCreateNullWrapper24TransferInstructionFlags
yz:__ZN12AudioManager23VirtualRedirectTransferER18StreamedBinaryReadILb0EE
Bnj:__Z60RuntimeInvoker_RuntimeObject_RuntimeObject_Int16_t2552820387PFvvEPK10MethodInfoPvPS4_
JNa:__ZN10VertexData13SwapEndianessEv
WAi:_StreamReader__ctor_m3941437302
edc:__Z57Register_UnityEngine_Transform_INTERNAL_get_localRotationv
V8l:dynCall_viif
Aec:__Z13RegisterClassIN5Unity9ComponentEEvPKc
Ikg:_StringReader_ReadLine_m2337102945
Aie:__ZN5physx2Sc24ConstraintProjectionTree11projectPoseERNS0_19ConstraintGroupNodeE
ofb:__ZL26Transfer_SimpleNativeClassI17RemapPPtrTransfer8GradientLb0EEvRK29SerializationCommandArgumentsR31RuntimeSerializationCommandInfo
rVf:__ZL49Shader_t4151988712_CustomAttributesCacheGeneratorP21CustomAttributesCache
Kxd:__ZNK5physx12NpBatchQuery14getOwnerClientEv
Tyk:_List_1_System_Collections_IList_Contains_m2131605266_gshared
ssd:__ZN5physx2Sc21ArticulationJointCore28setSwingLimitContactDistanceEf
YL:__ZN13UploadHandlerD2Ev
zx:__GLOBAL__sub_I_Modules_AssetBundle_Public_1_cpp
c7l:dynCall_viiiiiffi
$c:_emscripten_glBlendFuncSeparate
LHk:_Collection_1_Add_m809543251_gshared
nT:__Z20scripting_string_newPKc
QTk:_Parser_IsSingleline_m326238187
uli:_CollectionBase_get_Count_m1708965601
z$g:_HMAC__ctor_m97939284
SYj:_ValueType_DefaultEquals_m2927252100
nzc:__ZN9JSONWrite12AppendToNodeEPN5Unity9rapidjson12GenericValueINS1_4UTF8IcEE13JSONAllocatorEEPKcRS6_
e1i:_ASN1_ToString_m1340204511
dKc:__ZN16PhysicsManager2D20GetRigidBodyVelocityERK11Rigidbody2D
nJh:_X509Store_get_Certificates_m2149701265
SUj:_Type_GetField_m2961003358
b6j:_ReadOnlyCollection_1_System_Collections_Generic_IListU3CTU3E_set_Item_m711370667_gshared
ieg:__ZL144StandaloneInputModule_t2760469101_CustomAttributesCacheGenerator_StandaloneInputModule_t2760469101____allowActivationOnMobileDevice_PropertyInfoP21CustomAttributesCache
kca:__ZN9Scripting11UnityEngine13ComputeBuffer12CleanupProxyEv
zme:__ZThn8_N5physx2Gu11HeightFieldD1Ev
oOj:_StringBuilder_set_Chars_m3548656617
wtl:__ZN6il2cpp2os4File17GetFileAttributesERKNSt3__212basic_stringIcNS2_11char_traitsIcEENS2_9allocatorIcEEEEPi
Ard:__ZNK5physx19PxArticulationJoint19getConcreteTypeNameEv
uF:__ZN17AudioCustomFilterD2Ev
dsc:__Z33Camera_Get_Custom_PropCullingMaskP12Il2CppObject
VIj:__Z56RuntimeInvoker_Void_t1185182177_MonoResource_t4103430009PFvvEPK10MethodInfoPvPS4_
fWl:_GC_unpromote_black_lists
ux:__ZN9Scripting11UnityEngine2XR5Tango9GridIndex9InitProxyEv
DDb:__ZN18GfxFramebufferGLES18ReleaseFramebufferEP17RenderSurfaceBaseP14GfxContextGLES
sCc:__Z18Transfer_BlittableI8JSONReadLb1EiEvRK29SerializationCommandArgumentsR31RuntimeSerializationCommandInfo
AM:__ZN19CloudServiceHandler34HandleSaveFileWebRequestPlayerLoopEv
z1e:__ZL47__ManagedRegistrationHelperFunction_XRNodeStatePv
NE:__Z31GetParentSampleClipFromInstancePN11SoundHandle8InstanceE
ffc:__ZNK28RectTransformPropertyBinding13GetFloatValueERKN11UnityEngine9Animation10BoundCurveE
OWb:__ZN6Camera22StandaloneCustomRenderENS_10RenderFlagEP6ShaderRKN4core12basic_stringIcNS3_20StringStorageDefaultIcEEEEPNS_21PerformRenderFunctionE
DVi:_Array_InternalArray__IndexOf_TisKeyValuePair_2_t2401056908_m4118889689_gshared
rTa:__ZNSt3__26vectorI4PPtrI6ObjectE13stl_allocatorIS3_L18MemLabelIdentifier52ELi16EEE6assignINS_11__wrap_iterIPS3_EEEENS_9enable_ifIXaasr21__is_forward_iteratorIT_EE5valuesr16is_constructibleIS3_NS_15iterator_traitsISD_E9referenceEEE5valueEvE4typeESD_SD_
cQd:__ZL22addOrRemoveRigidObjectILb0ELb0ELb0ELb1EN5physx3Scb11RigidStaticEEvRNS0_2Sc5SceneERT3_b
d1l:__ZN6il2cpp2os16ThreadLocalValue8GetValueEPPv
qIh:_X509Certificate2_get_PublicKey_m370665820
Wnl:__ZN6il2cpp2vm13MetadataCache14GetGenericInstEPKPK10Il2CppTypej
bG:__ZN13AudioListener17ReadExtensionNameEi
Cd:_glUniform1uiv
xYe:__ZN11UnityEngine7Connect20RemoteConfigSettings35CallConfigUpdatedOnMainThreadStaticEPS1_
Qid:__ZNK5physx2Gu19SupportMapLocalImplINS0_11ConvexHullVEE18doWarmStartSupportEiRNS_6shdfnd3aos5Vec3VE
Qkd:__ZN5physx6shdfnd4sortIPvNS0_4LessIS2_EENS0_19ReflectionAllocatorINS_2Cm5BlockIS2_Lj8EEEEEEEvPT_jRKT0_RKT1_j
$Ad:__ZNK5physx9NpPhysics11getNbShapesEv
jq:setThrew
YYh:_SslClientStream_OnLocalPrivateKeySelection_m1934775249
pjc:__ZL21BuildEmptyCubeTexturePKci11ColorRGBA3217TextureColorSpace
Ugi:_Byte_ToString_m721125428
Q0b:__ZN14SafeBinaryRead21TransferSTLStyleArrayINSt3__26vectorIN9ShaderLab20SerializedSubProgramENS1_9allocatorIS4_EEEEEEvRT_17TransferMetaFlags
aWi:_Array_InternalArray__IndexOf_TisX509ChainStatus_t133602714_m48896230_gshared
r$a:__ZN19dynamic_block_arrayI13FileEntryInfoLj32EE4growEj
BCc:__Z15Transfer_StringI8JSONReadLb1EEvRK29SerializationCommandArgumentsR31RuntimeSerializationCommandInfo
EUa:__ZN16LightmapSettings15AppendLightmapsEiRK13dynamic_arrayI12LightmapDataLj0EE
f3:__ZN6prcoreL17RemapGenericFloatI17TexFormatRGBFloat15TexFormatRGHalfEEvPKNS_9InnerInfoE
JGe:_sfnt_load_face
Rze:_UNITY_FT_Render_Glyph_Internal
eIl:__ZNSt3__212basic_stringIDsNS_11char_traitsIDsEENS_9allocatorIDsEEE21__grow_by_and_replaceEjjjjjjPKDs
JEe:_UNITY_ft_service_list_lookup
fwc:__ZN5IMGUI21SelectReceivingWindowER8GUIStateb
P$g:_HMAC_Initialize_m3157696427
d6c:__ZN5physx2Gu20intersectTriangleBoxERKNS_6PxVec3ES3_S3_S3_S3_
Wkg:_SynchronizedWriter_Write_m2529550287
Wzd:__ZN5physx10NpMaterial8setFlagsENS_7PxFlagsINS_14PxMaterialFlag4EnumEtEE
YP:__ZN13BaseAllocator13TryDeallocateEPv
jHh:_X509SubjectKeyIdentifierExtension__ctor_m2055934916
kyc:__ZN9Scripting19UnityEngineInternal5Input17NativeInputSystem9InitProxyEv
p2l:_sprintf
c6b:__ZN9Scripting25CreateNullExceptionObjectE18ScriptingObjectPtr
g3i:_PrivateKeyInfo_DecodeRSA_m2889346634
hF:__ZN13AudioListener17RemoveFromManagerEv
Xd:_glAttachShader
gbf:_ContentSizeFitter_SetLayoutHorizontal_m2833273874
g2j:_ReadOnlyCollection_1_System_Collections_IList_RemoveAt_m134366701_gshared
gue:__ZN5physx6shdfnd8internal8HashBaseINS0_4PairIKtPKcEEtNS0_4HashItEENS1_11HashMapBaseItS6_S9_NS_7profile26WrapperReflectionAllocatorIS6_EEE6GetKeyESD_Lb1EE6createERS4_Rb
Kja:__ZNK6Camera19GetProjectionMatrixEv
oVd:__ZNK5physx7NpScene24getWakeCounterResetValueEv
ugg:__ZL70InputField_t3762917431_CustomAttributesCacheGenerator_m_SelectionColorP21CustomAttributesCache
l2g:_InputField_SetToCustomIfContentTypeIsNot_m2813459946
BRc:__ZN21b2FindNewContactsTask15AddContactPairsERK16b2ContactManagerP14b2FixtureProxyS4_R13dynamic_arrayINS_17b2DeferredContactELj0EE
lUf:__ZL70RuntimePlatform_t4159857903_CustomAttributesCacheGenerator_FlashPlayerP21CustomAttributesCache
qsi:_Guid_GetHashCode_m3042133858_AdjustorThunk
Hae:__ZN5physx2Gu32PCMConvexVsMeshContactGeneration20generateLastContactsEv
eea:__Z38PreallocateObjectFromPersistentManagerib
eAd:__ZThn12_N5physx10NpMaterialD0Ev
iMh:_Interpreter_Backtrack_m2828876822
fCa:__ZNK9Texture2D20GetUnscaledTextureIDEv
aZg:_SByte_System_IConvertible_ToType_m4075253447
h4i:_StrongName_get_PublicKey_m1841537984
eqe:__ZN5physx6shdfnd4sortIjNS_19SortBoundsPredicateENS0_19ReflectionAllocatorIjEEEEvPT_jRKT0_RKT1_j
Yem:_glFenceSync__wrapper
ACd:__ZN5physx7NpShape14onRefCountZeroEv
IQg:_Transform_INTERNAL_get_worldToLocalMatrix_m2730237241
v3h:_Single_System_IConvertible_ToUInt64_m3299129161
Epe:__ZL15TestContainmentRKN5physx6PxVec3EPKfjPKNS_2Gu15HullPolygonDataE
kCa:__ZNK9Texture2D26CanReuploadDataToGfxDeviceEv
MKf:__ZL63CodeAccessPermission_t2681295399_CustomAttributesCacheGeneratorP21CustomAttributesCache
bVa:__Z29ClearRepeatingLogMessageStatev
tmh:_InternalEnumerator_1_get_Current_m3191242573_gshared
Lgi:_Byte_Equals_m1161982810_AdjustorThunk
Hme:__ZN5physx2Gu11HeightField12loadFromDescERKNS_17PxHeightFieldDescEb
D_:__ZN21EnlightenSceneMappingaSERKS_
hha:__ZN14SafeBinaryRead21TransferSTLStyleArrayI13dynamic_arrayI17SortingLayerEntryLj0EEEEvRT_17TransferMetaFlags
MZc:__ZL48__ManagedRegistrationHelperFunction_MeshColliderPv
vGb:__ZN7ApiGLESD2Ev
Gia:__ZN9Transform47ClearTransformHierarchyAndApplyToSerializedDataEv
uSd:__ZN5physx6shdfnd8PoolBaseINS_2Gu30LargePersistentContactManifoldENS0_19ReflectionAllocatorIS3_EEE12allocateSlabEv
QDc:__ZN8JSONRead21TransferSTLStyleArrayINSt3__26vectorI8MonoPPtr13stl_allocatorIS3_L18MemLabelIdentifier1ELi16EEEEEEvRT_17TransferMetaFlags
nR:__ZNSt3__26__treeI19RepeatingLogMessageNS_4lessIS1_EE13stl_allocatorIS1_L18MemLabelIdentifier74ELi16EEE25__emplace_unique_key_argsIS1_JRKS1_EEENS_4pairINS_15__tree_iteratorIS1_PNS_11__tree_nodeIS1_PvEEiEEbEERKT_DpOT0_
P3g:_InputField_IsSelectionVisible_m3622592134
Cei:_AssemblyLoadEventHandler_Invoke_m1462077361
dka:__ZN6Camera23VirtualRedirectTransferER19StreamedBinaryWriteILb0EE
p9l:dynCall_fidi
zul:__ZN15dense_hashtableINSt3__24pairIK10KeyWrapperINS1_IPK9FieldInfoP11Il2CppClassEEEjEES9_17ReflectionMapHashIS8_EN14dense_hash_mapIS9_jSD_NS9_14EqualsComparerINS0_8equal_toIS8_EEEENS0_9allocatorISB_EEE9SelectKeyESI_SK_E12resize_deltaEjj
AXd:__ZN5physx6shdfnd5ArrayIPNS_2Sc8BodyCoreENS0_19ReflectionAllocatorIS4_EEE6resizeEjRKS4_
odd:__ZN5physx3Cct26CharacterControllerManager16createControllerERNS_9PxPhysicsEPNS_7PxSceneERKNS_16PxControllerDescE
yWk:_GUILayoutEntry__ctor_m2229197035
jna:__ZN15dense_hashtableINSt3__24pairIKN9ShaderLab7Program23ShaderKeywordSetAndHashEPKNS2_10SubProgramEEES4_NS3_24ShaderKeywordHashFunctorEN14dense_hash_mapIS4_S8_SA_NS0_8equal_toIS4_EE13stl_allocatorIS9_L18MemLabelIdentifier67ELi16EEE9SelectKeyESD_SG_E15insert_noresizeERKS9_
Mua:__ZN13RenderTexture12SetDimensionE16TextureDimension
KYh:_SslClientStream_set_ClientCertSelectionDelegate_m1261530976
Baa:__ZN9Scripting11UnityEngine16GradientColorKey9InitProxyEv
Oe:_SDL_FreeRW
H_d:__ZN5physx6shdfnd8PoolBaseINS_2Cm5BlockIhLj128EEENS0_19ReflectionAllocatorIS4_EEE15disposeElementsEv
gRe:__Z34CanvasRenderer_Get_Custom_PropCullP12Il2CppObject
LKd:__ZN5physx3Scb14ParticleSystem14setRestOffsetsEjRKNS_16PxStrideIteratorIKjEERKNS2_IKfEE
_D:__ZN20SoundChannelInstance8getDelayE14FMOD_DELAYTYPEPjS1_
Ana:__ZNSt3__26vectorIN20GpuProgramParameters15StructParameterENS_9allocatorIS2_EEEC2ERKS5_
fgh:_ArrayReadOnlyList_1_Contains_m232667507_gshared
ptj:__Z77RuntimeInvoker_Boolean_t97287965_IntPtr_t_Int32_t2950945753_SByte_t1669577662PFvvEPK10MethodInfoPvPS4_
oKg:_PlayableHandle_GetPlayableType_m432385838_AdjustorThunk
Fye:__ZNSt3__26vectorIN20TextRenderingPrivate8FontImpl13CharacterInfoE13stl_allocatorIS3_L18MemLabelIdentifier1ELi16EEE8__appendEj
v:tempBigInt
Bjk:_Array_InternalArray__Insert_TisKeyframe_t4206410242_m1558638568_gshared
We:_emscripten_glVertexAttrib1fv
w1b:__ZNSt3__26vectorIN9ShaderLab20SerializedSubProgram12UAVParameterENS_9allocatorIS3_EEE7reserveEj
CNh:_BigInteger__ctor_m2644482640
U5l:__ZSt11__terminatePFvvE
oWd:__ZN5physx13NpVolumeCacheC2EPNS_2Sq17SceneQueryManagerEjj
Mld:__ZThn24_N5physx2Sc20ArticulationJointSimD1Ev
MB:__ZN12AudioManager14systemCallbackEP11FMOD_SYSTEM24FMOD_SYSTEM_CALLBACKTYPEPvS3_
wck:_Nullable_1_Equals_m4046255732_gshared
f7j:_ReadOnlyCollection_1_System_Collections_Generic_ICollectionU3CTU3E_Clear_m3451551308_gshared
T8e:_BaseMeshEffect_OnEnable_m3291426649
MKd:__ZN5physx2Sc18ParticleSystemCore14setRestOffsetsEjRKNS_16PxStrideIteratorIKjEERKNS2_IKfEE
R9c:__ZN5physx2Gu16testPolyDataAxisERKNS0_8CapsuleVERKNS0_13PolygonalDataEPNS0_12SupportLocalERKNS_6shdfnd3aos6FloatVERSB_RNSA_5Vec3VE
jta:__ZN16ReflectionProbes16UpdateSampleDataEv
Dod:__ZN5physx2Sc17ParticleSystemSimD0Ev
LTg:_TrackingServices_NotifyUnmarshaledObject_m2784831802
Vji:_ReadOnlyArrayListWrapper_Sort_m2577012511
t6:__ZL46__ManagedRegistrationHelperFunction_UnityEventPv
Dpi:_CultureInfo_GetCultureInfo_m56098747
BTb:__Z20AddActiveLocalLightsR11CullResultsR27LocalLightCullingParametersPPK15SharedLightDataPK8Vector4fRK9IndexListPfRSA_R12ActiveLightsSG_P5RectTIfEP13TargetEyeMask
cCf:__ZL80Hashtable_t1853889766_CustomAttributesCacheGenerator_Hashtable__ctor_m1763145853P21CustomAttributesCache
DFi:_Convert_ToDecimal_m1284148187
U_j:_Collection_1__ctor_m3489157029_gshared
N5:__ZL52__ManagedRegistrationHelperFunction_AndroidJNIHelperPv
jCe:_cf2_getNormalizedVector
sf:_JS_Sound_Play
RGf:__ZL56_MethodBuilder_t600455149_CustomAttributesCacheGeneratorP21CustomAttributesCache
c8j:_ReadOnlyCollection_1_System_Collections_IList_set_Item_m1538987737_gshared
ysh:_DefaultComparer_Compare_m1920986590_gshared
n0b:__ZN9ShaderLab16SerializedShader8TransferI14SafeBinaryReadEEvRT_
hgf:_GridLayoutGroup_set_constraint_m3308895167
bvf:_ConstructionCallDictionary_SetMethodProperty_m3145285304
lwj:__Z243RuntimeInvoker_Void_t1185182177_Int16_t2552820387_RuntimeObject_Int32_t2950945753_Int32_t2950945753_Int32_t2950945753_SByte_t1669577662_SByte_t1669577662_SByte_t1669577662_SByte_t1669577662_Int16_t2552820387_SByte_t1669577662_SByte_t1669577662PFvvEPK10MethodInfoPvPS4_
_gh:_InternalEnumerator_1_System_Collections_IEnumerator_get_Current_m1503522504_gshared
rkc:__ZN19ShaderPropertySheet16SetVectorIndexedEN9ShaderLab16FastPropertyNameEifRK8Vector4fNS_8SetFlagsE
kUj:_Type_get_IsAbstract_m1120089130
$Rg:_Vector3_get_normalized_m2454957984_AdjustorThunk
nVk:_UriFormatException__ctor_m1115096473
EEl:__ZN15dense_hashtableINSt3__24pairIK10KeyWrapperINS1_IP11Il2CppClassjEEES4_EES6_N6il2cpp8metadata14ArrayClassHashEN14dense_hash_mapIS6_S4_SB_NS6_14EqualsComparerINSA_17ArrayClassCompareEEENS0_9allocatorIS8_EEE9SelectKeyESF_SH_E9copy_fromERKSK_j
gYk:_GUIUtility_IsExitGUIException_m3644066650
sN:__ZN11UnityEngine15CloudWebService14DataDispatcher4StopEv
iti:_Int16_System_IConvertible_ToUInt64_m134975563
y1b:__ZNSt3__26vectorIN9ShaderLab20SerializedSubProgram12UAVParameterENS_9allocatorIS3_EEE8__appendEj
gwc:__ZN5IMGUI9GUIWindow5OnGUIER8GUIState
eYl:_GC_maybe_gc
c3h:_Single_System_IConvertible_ToDecimal_m325860800_AdjustorThunk
BYi:_Array_InternalArray__ICollection_CopyTo_TisSingle_t1397266774_m455540885_gshared
t5:__ZN17ScriptingGCHandle7AcquireE18ScriptingObjectPtr25ScriptingGCHandleWeakness
Evj:__Z74RuntimeInvoker_RuntimeObject_RuntimeObject_Int64_t3736567304_RuntimeObjectPFvvEPK10MethodInfoPvPS4_
W7l:dynCall_iifiii
_za:__Z21HasAlphaTextureFormat13TextureFormat
UH:__ZN12AudioManager6UpdateEv
Uza:__ZN14ImageReference9BlitImageERKS_NS_8BlitModeE
eKh:_X509Chain__ctor_m2674663382
fO:__GLOBAL__sub_I_Runtime_Core_Callbacks_0_cpp
e2c:__ZNK5physx2Gu16SupportLocalImplINS0_11ConvexHullVEE9doSupportERKNS_6shdfnd3aos5Vec3VERNS5_6FloatVESA_
Zrb:__ZN23CachedSerializationDataD2Ev
NVb:__ZNK25CameraStackRenderingState31CalculateStereoCameraTargetTypeEv
Jsa:__ZN14RenderSettings23VirtualRedirectTransferER14SafeBinaryRead
Vph:_InternalEnumerator_1_get_Current_m114240259_gshared
GMc:__ZNK13b2CircleShape5CloneEP16b2BlockAllocator
IRl:__ZN6il2cpp2os10ThreadImpl15CurrentThreadIdEv
s$h:_SymmetricAlgorithm_get_Key_m3241860519
G4g:_U3CMouseDragOutsideRectU3Ec__Iterator1_Reset_m2233410497
$N:__GLOBAL__sub_I_Runtime_Camera_5_cpp
ZWc:__ZN10Collider2DC2E10MemLabelId18ObjectCreationMode
wKe:_UNITY_tt_face_load_fpgm
zia:__Z17IsObjectAvailablei
OPa:__ZN12InputManagerD0Ev
Zji:_SimpleEnumerator_MoveNext_m3113120129
z3k:_playerMovement3d_flipPlayer_m4045085708
hvd:__ZN5physx2Sc9RigidCore20removeShapeFromSceneERNS0_9ShapeCoreEb
cue:__ZN5physx6shdfnd8internal8HashBaseINS0_4PairIKPKcjEES5_NS0_4HashIS5_EENS1_11HashMapBaseIS5_jS9_NS_7profile26WrapperReflectionAllocatorIjEEE6GetKeyESD_Lb1EE15reserveInternalEj
gih:_InternalEnumerator_1_System_Collections_IEnumerator_get_Current_m2889979481_AdjustorThunk
P4l:_posix_memalign
aqe:__ZN5physx11RTreeCooker18buildFromTrianglesERNS_2Gu5RTreeEPKNS_6PxVec3EjPKtPKjjRNS_6shdfnd5ArrayIjNSB_19ReflectionAllocatorIjEEEEPNS0_13RemapCallbackEfNS_17PxMeshCookingHint4EnumE
spd:__ZN5physx6shdfnd5ArrayIPvNS0_15InlineAllocatorILj256ENS0_19ReflectionAllocatorINS_14NpArticulationEEEEEE15growAndPushBackERKS2_
b1i:_ASN1_GetBytes_m3305539297
qV:__ZNK15MonoScriptCache7ReleaseEv
Uhl:__ZN6il2cpp2vm5Class13HasReferencesEP11Il2CppClass
mce:__ZN5physx9PxTaskMgrC2EPNS_15PxCpuDispatcherEPNS_15PxGpuDispatcherEPNS_15PxSpuDispatcherE
Gg:_glBindTexture
g3l:_snprintf
EDj:__Z50RuntimeInvoker_RuntimeObject_Resources_t1597885468PFvvEPK10MethodInfoPvPS4_
Ldm:_emscripten_glVertexAttrib1fv__wrapper
gDg:_InvokableCallList_RemoveListener_m1769379719
Sjc:__ZN16LevelGameManagerC2E10MemLabelId18ObjectCreationMode
v1k:_AudioExtensionManager_RemoveExtensionFromManager_m442924172
PHg:_MonoBehaviour_Internal_IsInvokingAll_m2820042090
icm:_emscripten_glGetProgramInfoLog__wrapper
dv:__ZN25AnimatedPropertyEvaluator29BindCurveToScriptingObjectPtrERKN13AnimationClip10FloatCurveEj18ScriptingObjectPtrb
yub:__Z19SplashScreenFadeEndv
c1h:_String_Equals_m1744302937
kCg:_Display__ctor_m501911701
D3j:_ReadOnlyCollection_1_System_Collections_Generic_IListU3CTU3E_Insert_m1020890112_gshared
fmi:_Hashtable__cctor_m4112166779
ecf:_DefaultControls_SetDefaultTextValues_m1943359795
hOb:__Z19SetupMotionMatricesR6CameraR18RPDataMotionVector
zdl:__ZL7log2_64y
cgf:_GridLayoutGroup_get_cellSize_m2967185053
t2d:__ZN5physx19PxsMaterialCombiner24combineIsotropicFrictionERKNS_15PxsMaterialDataES3_
wMk:_PKCS12_Decrypt_m1280162536
pih:_InternalEnumerator_1_get_Current_m3081223448_gshared
LVk:_Event_get_isMouse_m1058251071
Vpa:__ZN10VertexDataC2ERKS_17ShaderChannelMask10MemLabelId
$Ac:__ZL22Transfer_ManagedObjectI9JSONWriteLb1EEvRK29SerializationCommandArgumentsR31RuntimeSerializationCommandInfo
kFe:_otv_JSTF_validate
Dna:__ZN22CreateGpuProgramOutputC2Ev
vDg:_PersistentCallGroup_Initialize_m4253175514
tfi:_Boolean_System_IConvertible_ToChar_m4279513009_AdjustorThunk
_li:_Hashtable__ctor_m1763145853
rpg:_NumberFormatter_ScaleOrder_m3813786990
h3i:_PrivateKeyInfo_DecodeDSA_m771724585
joe:__ZN5physx7Cooking16cookTriangleMeshERKNS_18PxTriangleMeshDescERNS_14PxOutputStreamE
cNh:_Interval_get_Size_m4163671410_AdjustorThunk
nre:__ZN14CompletionTask4InitEPN5physx7PxSceneE
Emd:__ZN5physx2Sc7ElementD0Ev
VWj:_UInt32_System_IConvertible_ToSByte_m1061556466
Hqe:__ZN5physx6shdfnd10Foundation7releaseEv
uVg:_WellKnownClientTypeEntry__ctor_m2471908952
Thl:__ZN6il2cpp2vm5Class4InitEP11Il2CppClass
Vc:invoke_vidi
Hqg:_NumberFormatter_FormatRoundtrip_m19342689
_Ug:_RemotingServices_CreateClientProxyForContextBound_m783705199
Aoc:__ZNK15GUIEventManager15GetEventAtIndexEi
YSe:__ZN2UI14CanvasRenderer17SyncDirtyElementsER8JobFence
Muh:_Enumerator_System_Collections_IEnumerator_get_Current_m3816090481_gshared
OTl:__ZN6il2cpp5utils11StringUtils15StringDuplicateEPKc
I9i:_DefaultComparer_Equals_m2480133610_gshared
Vma:__ZNK9ShaderLab21ShaderRasterStateDesc16ToGfxRasterStateEPK19ShaderPropertySheetS3_R14GfxRasterState
Qmk:_Array_Sort_TisVector3_t3722313464_m1915176437_gshared
n1l:__ZN6il2cpp2os9EventImplC2Ebb
Dbh:_ScrollRect_OnInitializePotentialDrag_m3139711961
Wvk:_List_1_get_Item_m2113769949_gshared
w7g:_MaskableGraphic_OnTransformParentChanged_m329502413
eIa:__ZNSt3__26vectorI13dynamic_arrayI8Vector2fLj0EENS_9allocatorIS3_EEE6assignINS_11__wrap_iterIPS3_EEEENS_9enable_ifIXaasr21__is_forward_iteratorIT_EE5valuesr16is_constructibleIS3_NS_15iterator_traitsISC_E9referenceEEE5valueEvE4typeESC_SC_
IR:__Z20IsMatrixBuiltinParamPKcPi
M0h:_String_memcpy4_m979367827
SOj:_UnicodeEncoding_GetBytesInternal_m1902824297
Vjc:__ZN8Renderer19PostInitializeClassEv
_Ui:_Array_FindIndex_TisRuntimeObject_m2504082708_gshared
USe:__ZNSt3__26__treeINS_12__value_typeINS_4pairIKiS3_EEN2UI14DepthSortLayerEEENS_19__map_value_compareIS4_S7_NS_4lessIS4_EELb1EEE13stl_allocatorIS7_L18MemLabelIdentifier1ELi16EEE25__emplace_unique_key_argsIS4_JRKNS_21piecewise_construct_tENS_5tupleIJOS4_EEENSK_IJEEEEEENS2_INS_15__tree_iteratorIS7_PNS_11__tree_nodeIS7_PvEEiEEbEERKT_DpOT0_
nOk:_X509Chain_FindCertificateRoot_m1937726457
TAi:_StreamAsyncResult_get_AsyncWaitHandle_m3390046559
IWe:__ZN11UnityEngine15PlatformWrapper21GetVRPlayAreaGeometryER13dynamic_arrayI8Vector3fLj0EE
BZl:__ZN6il2cpp6icalls8mscorlib6System8Delegate23CreateDelegate_internalEP20Il2CppReflectionTypeP12Il2CppObjectP22Il2CppReflectionMethodb
Nvh:_Enumerator_System_Collections_IEnumerator_get_Current_m921113401_AdjustorThunk
qrb:__ZN18DelayedCallManager18CancelCallDelayed2E4PPtrI6ObjectEPF15CallObjectStatePS1_PvES7_
Cga:__ZN25ThreadsafeLinearAllocator10ReallocateEPvji
Pab:__Z18Transfer_BlittableI14SafeBinaryReadLb1E11QuaternionfEvRK29SerializationCommandArgumentsR31RuntimeSerializationCommandInfo
Osd:__ZNK5physx18PxArticulationLink8isKindOfEPKc
H2:__ZN18SpriteAtlasManagerD0Ev
qIa:__ZN10Matrix4x4f8TransferI14SafeBinaryReadEEvRT_
nn:FUNCTION_TABLE_vifiiiiiiiiiiiiiiiiii
$Zg:_CryptographicUnexpectedOperationException__ctor_m2381988196
gzl:__ZN14dense_hash_mapI10KeyWrapperIPK22Il2CppGenericParameterEPK24MonoGenericParameterInfoN6il2cpp5utils11PointerHashIS2_EENS4_14EqualsComparerINSt3__28equal_toIS3_EEEENSD_9allocatorINSD_4pairIKS4_S7_EEEEE15set_deleted_keyERSJ_
Ukh:_InternalEnumerator_1_System_Collections_IEnumerator_get_Current_m4213507601_gshared
VY:__Z6AppendRKN4core12basic_stringIcNS_20StringStorageDefaultIcEEEEPKc
rNl:__ZN6il2cpp2vm6Object12NullableInitEPhP12Il2CppObjectP11Il2CppClass
G8:__ZN9Scripting11UnityEngine16TrackedReference12CleanupProxyEv
rBe:__ZN20TextRenderingPrivate19NativeTextGeneratorC2ERK11UTF16StringPNS_8FontImplE11ColorRGBA32ifRK8Vector2fbifiibffbbP13dynamic_arrayIN2UI8UIVertexELj0EE
_Xk:_GUIUtility_RemoveCapture_m1294193818
qAb:__ZN7ApiGLES18ClearBufferSubDataEjN2gl12BufferTargetEll
nbc:__Z37Camera_Get_Custom_PropAllCamerasCountv
bBa:__ZN14Texture2DArray8TransferI18StreamedBinaryReadILb0EEEEvRT_
iwd:__ZN5physx15NpActorTemplateINS_18PxArticulationLinkEED2Ev
Vwc:__Z38Register_UnityEngine_GUIStyle_get_namev
_Le:_Split_Cubic
mb:invoke_fiiii
d4g:_InputField_OnSubmit_m3583210804
P1d:__ZN5physx2Sc32DefaultClothInterCollisionFilterEPvS1_
zUk:_Uri_CheckHostName_m2213216182
Idm:_emscripten_glBindRenderbuffer__wrapper
wok:_Mesh_SetUvsImpl_TisVector2_t2156229523_m3009194955_gshared
XPh:_HMAC_set_Key_m3535779141
nji:_ArrayListWrapper_Contains_m2641184447
LLe:_ft_black_render
Msj:__Z177RuntimeInvoker_Int32_t2950945753_RuntimeObject_Int32_t2950945753_Int32_t2950945753_RuntimeObject_Int32_t2950945753_EncoderFallbackBufferU26_t2343550713_CharU5BU5DU26_t3299466565PFvvEPK10MethodInfoPvPS4_
x9l:dynCall_viiifi
dDb:__ZN18GfxFramebufferGLES20ActiveContextChangedEPP17RenderSurfaceBaseS2_
y7a:__Z19PluginsRenderMarkeri
F1b:__ZNSt3__26vectorIN9ShaderLab20SerializedSubProgram15StructParameterENS_9allocatorIS3_EEE6assignINS_11__wrap_iterIPS3_EEEENS_9enable_ifIXaasr21__is_forward_iteratorIT_EE5valuesr16is_constructibleIS3_NS_15iterator_traitsISC_E9referenceEEE5valueEvE4typeESC_SC_
SLl:__ZNSt3__214__split_bufferIN6il2cpp2vm5Image20EmbeddedResourceDataERNS_9allocatorIS4_EEEC2EjjS7_
n4f:__ZL66SkeletonBone_t4134054672_CustomAttributesCacheGenerator_parentNameP21CustomAttributesCache
wFd:__ZNK5physx7NpCloth25getNbSelfCollisionIndicesEv
Q$i:_Kernel_multiByteDivide_m4249920547
PUe:__Z69Register_UnityEngine_Analytics_UnityAnalyticsHandler_Internal_Destroyv
oJh:_X509Certificate2Collection_Add_m3151757943
Yxe:__ZN9Scripting11UnityEngine13CharacterInfo9InitProxyEv
dNc:__ZNSt3__227__insertion_sort_incompleteIR15DepthComparitorP8DepthHitEEbT0_S5_T_
KEi:_DateTime_AddMilliseconds_m3713972790
gli:_CaseInsensitiveHashCodeProvider_get_DefaultInvariant_m4264275163
ctj:__Z195RuntimeInvoker_Int32_t2950945753_RuntimeObject_Int32_t2950945753_Int32_t2950945753_Int32_t2950945753_RuntimeObject_DecoderFallbackBufferU26_t3866396827_ByteU5BU5DU26_t4057885439_SByte_t1669577662PFvvEPK10MethodInfoPvPS4_
MVd:__ZN5physx2Sc5Scene22setNbContactDataBlocksEj
RI:__ZN5physx14PxLightCpuTask12addReferenceEv
opa:__ZNK15InstancingProps35FillInstanceBufferDispatchConstantsIN10Instancing14RenderLoopArgsEEEvPPvjjRK19ShaderPropertySheetRKT_
xHj:__Z86RuntimeInvoker_Int32_t2950945753_Color32_t2600501292_Color32_t2600501292_RuntimeObjectPFvvEPK10MethodInfoPvPS4_
EHa:__ZN21EnlightenSceneMapping8TransferI19StreamedBinaryWriteILb0EEEEvRT_
kOl:__ZN6il2cpp2gc16GarbageCollector19InitializeFinalizerEv
Fxc:__ZN10GUIManager10DoGUIEventER10InputEventb
Igb:__Z35Transfer_Blittable_FixedBufferFieldI24GenerateTypeTreeTransferxEvRK29SerializationCommandArgumentsR31RuntimeSerializationCommandInfo
_Fe:_otv_LangSys_validate
SMg:_RectOffset_get_right_m2294081512
z6k:__ZL25UnresolvedVirtualCall_154P12Il2CppObjectfPK10MethodInfo
Zjk:_Array_InternalArray__set_Item_TisLink_t544317964_m1234244240_gshared
CKe:_UNITY_TT_Init_Glyph_Loading
onc:__Z20CalculateSqrDistanceRK8Vector3fRK4AABB
rre:__ZN14PhysicsManager15ProcessContactsEv
VXg:_SerializationInfo_GetBoolean_m1756153320
P4c:__ZN21BoxTraceSegmentReport7onEventEjPj
vsd:__ZN5physx2Sc21ArticulationJointCore13setSwingLimitEff
BD:__Z32AudioMixerDuckingProcessCallbackP21UnityAudioEffectStatePfS1_jii
s9c:__ZL20HullProjectionCB_BoxRKN5physx2Gu13PolygonalDataERKNS_6PxVec3ERKNS_2Cm8Matrix34ERKNS7_23FastVertex2ShapeScalingERfSE_
qHg:_Mesh_get_uv2_m3615020997
JXd:__ZN5physx17PxcNpMemBlockPool19releaseUnusedBlocksEv
Daj:_EqualityComparer_1_System_Collections_IEqualityComparer_Equals_m4172006498_gshared
m8d:__ZN5physx14PxsAABBManager21selfCollideAggregatesEPKNS_19AggregateSortedDataE
Dz:__ZN12AudioManager8TransferI24GenerateTypeTreeTransferEEvRT_
zGg:_Mathf_Round_m4098141538
hua:__Z25GetBytesFromTextureFormat13TextureFormat
RGl:__ZN6il2cpp6icalls8mscorlib6System9Threading6Thread20Thread_free_internalEP12Il2CppThreadi
bvb:__ZNK11PreloadData18GetInstanceIDArrayER13dynamic_arrayIiLj0EE
Aag:__ZL64UnityAnalyticsHandler_t3011359618_CustomAttributesCacheGeneratorP21CustomAttributesCache
bEh:__KeysEnumerator_get_Current_m2996478063
V7l:dynCall_iifff
nW:__Z32scripting_class_get_assemblyname17ScriptingClassPtr
CMc:__ZN9b2Simplex9ReadCacheEPK14b2SimplexCachePK15b2DistanceProxyRK11b2TransformS5_S8_
rDj:__Z99RuntimeInvoker_Boolean_t97287965_Int32_t2950945753_PointerEventDataU26_t867828220_SByte_t1669577662PFvvEPK10MethodInfoPvPS4_
XYc:__Z50Register_UnityEngine_Rigidbody2D_AddForce_Injectedv
A4d:__ZN5physx26PxcFrictionPatchStreamPairC2ERNS_17PxcNpMemBlockPoolE
Ajh:_InternalEnumerator_1_get_Current_m2128158355_AdjustorThunk
T4a:__ZN9GfxDevice21RegisterNativeTextureE9TextureIDi16TextureDimension
Pef:_GraphicRegistry__ctor_m1851575309
fJj:__Z52RuntimeInvoker_Void_t1185182177_Keyframe_t4206410242PFvvEPK10MethodInfoPvPS4_
D_l:__ZN6il2cpp6icalls8mscorlib6System10Reflection4Emit11TypeBuilder20create_generic_classEP27Il2CppReflectionTypeBuilder
oDb:__ZNK16UniformCacheGLES6SubmitEjRK13dynamic_arrayIN20GpuProgramParameters14ValueParameterELj0EERKS0_IiLj0EE
KSi:_PlayableHandle_IsPlayableOfType_TisAnimationLayerMixerPlayable_t3631223897_m201603007_gshared
BG:__Z60Register_UnityEngine_AudioListener_GetNumExtensionPropertiesv
zj:_emscripten_glUniformMatrix4fv
TEl:__ZN15dense_hashtableINSt3__24pairIK10KeyWrapperINS1_IP11Il2CppClassjEEES4_EES6_N6il2cpp8metadata14ArrayClassHashEN14dense_hash_mapIS6_S4_SB_NS6_14EqualsComparerINSA_17ArrayClassCompareEEENS0_9allocatorIS8_EEE9SelectKeyESF_SH_E13set_empty_keyERKS8_
AXa:__ZN12ScriptMapperD2Ev
g0c:__ZN9Rigidbody13AwakeFromLoadE17AwakeFromLoadMode
tHg:_Mesh_get_colors32_m1253190811
PWl:_GC_stopped_mark
S1e:__ZL59__ManagedRegistrationHelperFunction_SubsystemDescriptorBasePv
fyg:_AnimationCurve_Finalize_m2397002729
ayd:__ZNK5physx14NpSceneQueries10multiQueryINS_12PxOverlapHitEEEbRKNS_15MultiQueryInputERNS_13PxHitCallbackIT_EENS_7PxFlagsINS_9PxHitFlag4EnumEtEEPKNS_12PxQueryCacheERKNS_17PxQueryFilterDataEPNS_21PxQueryFilterCallbackEPNS_20BatchQueryFilterDataE
KNj:__Z50RuntimeInvoker_RuntimeObject_ColorTween_t809614380PFvvEPK10MethodInfoPvPS4_
T3g:_InputField_OnFillVBO_m3649106646
AXg:_SerializationCallbacks__cctor_m1674315180
xnl:__ZNK15dense_hashtableI10KeyWrapperIPK19Il2CppGenericMethodES4_N6il2cpp8metadata23Il2CppGenericMethodHashEN14dense_hash_setIS4_S7_NS4_14EqualsComparerINS6_26Il2CppGenericMethodCompareEEENSt3__29allocatorIS4_EEE8IdentityESB_SE_E23find_position_with_hashERKS4_j
nma:__ZNSt3__26vectorIN12FlareManager10FlareEntryENS_9allocatorIS2_EEE21__push_back_slow_pathIS2_EEvOT_
t4b:__ZN9ShaderLab20SerializedSubProgram16TextureParameter8TransferI19StreamedBinaryWriteILb0EEEEvRT_
Fb:invoke_fiiiiiiiifiiiif
Efa:__ZNK7Hash12812PackToUInt32Ev
oki:_SynchronizedArrayListWrapper_IndexOf_m3642674350
fY:__ZNSt3__227__insertion_sort_incompleteIRNS_6__lessI14ObjectLoadDataS2_EEPS2_EEbT0_S6_T_
AN:__ZN11UnityEngine15CloudWebService16SessionContainer8AddEventEPNS0_14CloudEventInfoE
Z8a:__Z4TrimRKN4core12basic_stringIcNS_20StringStorageDefaultIcEEEES5_
sGh:_SPKey_Equals_m4205549017
Mnk:_Dictionary_2_Do_ICollectionCopyTo_TisKeyValuePair_2_t3842366416_m1399105608_gshared
AIh:_X509Certificate2_Import_m4026562329
Qwh:_Enumerator_System_Collections_IEnumerator_get_Current_m2763095718_AdjustorThunk
Wem:_glGetStringi__wrapper
mIa:__ZN10VertexData8TransferI14SafeBinaryReadEEvRT_
Crd:__ZN5physx19NpArticulationJointD0Ev
c2:__ZN13RuntimeStaticI12AdsIdHandlerLb0EE16StaticInitializeEPv
DYl:_GC_malloc_atomic
rte:__ZN5physx9NpPhysics14createInstanceEjRNS_12PxFoundationERKNS_17PxTolerancesScaleEbPNS_20PxProfileZoneManagerE
Gqf:_ActivatedClientTypeEntry_ToString_m2494181680
Cej:_HashSet_1_GetEnumerator_m3346268098_gshared
q$l:__ZN6il2cpp5utils6Memory13AlignedMallocEjj
j4g:_Selectable_get_animator_m2899312855
qU:__ZL20SortItemByInstanceIDRKN18AwakeFromLoadQueue4ItemES2_
xRg:_Vector2_op_Multiply_m2347887432
Wte:__ZN5physx6shdfnd5ArrayIPvNS0_15InlineAllocatorILj256ENS0_19ReflectionAllocatorINS_24NpPtrTableStorageManager8PtrBlockILi16EEEEEEEE15growAndPushBackERKS2_
tEh:_TypeConverterAttribute__ctor_m1774069684
rZe:__ZN20UnityConnectSettings8TransferI24GenerateTypeTreeTransferEEvRT_
mic:__ZZN12MeshRenderer15InitializeClassEvEN29FunctorImpl_205kDidDeleteMesh4CallEPviR11MessageData
tai:_Byte_ToString_m4063101981
Wng:_MonoType_GetConstructors_m2574682189
$ol:__ZN6il2cpp2vm13MetadataCache31GetParameterDefinitionFromIndexEi
qPc:__ZN25b2SynchronizeFixturesTask7TaskJobEPS_j
qyg:_SceneManager_LoadSceneAsyncNameIndexInternal_m4031498323
sCd:__ZN5physx7NpShape13setRestOffsetEf
nLd:__ZN5physx3Scb14ParticleSystemC2ERKNS_11PxActorType4EnumEjb
m$:__ZL31InitializeRendererUpdateManagerPv
unf:_ParameterInfo__ctor_m2779026345
c2g:_InputField_set_onValueChange_m1251390545
m8:__ZN9Scripting11UnityEngine18WaitForFixedUpdate12CleanupProxyEv
UCd:__ZN5physxL11getTriangleERKNS_2Gu12TriangleMeshEjPNS_6PxVec3EPKS4_PKvRKNS_2Cm8Matrix34Eb
F7:__ZL46__ManagedRegistrationHelperFunction_RectOffsetPv
Opg:_NumberFormatter_get_IsZeroInteger_m2263284741
z$c:__ZN14SafeBinaryRead21TransferSTLStyleArrayINSt3__26vectorIjNS1_9allocatorIjEEEEEEvRT_17TransferMetaFlags
nza:__ZNSt3__26__treeINS_12__value_typeIiNS_4pairIP4ListI8ListNodeI9BehaviourEES8_EEEENS_19__map_value_compareIiSA_NS_4lessIiEELb1EEENS_9allocatorISA_EEE7destroyEPNS_11__tree_nodeISA_PvEE
ZDd:__ZNK5physx7NpCloth16lockParticleDataEv
MKk:_X509Certificate_PEM_m2020851166
lZg:_SByte_Equals_m865896384_AdjustorThunk
Vik:_Array_InternalArray__Insert_TisDateTime_t3738529785_m2308632330_gshared
MPa:__ZN11TimeManager8TransferI19StreamedBinaryWriteILb0EEEEvRT_
MWh:_TlsServerCertificateRequest_ProcessAsTls1_m3214041063
uGe:_compare_uni_maps
tXe:__ZN11UnityEngine15PlatformWrapper27GetGraphicsCapsSupportFlagsEv
Nnk:_Dictionary_2_Do_ICollectionCopyTo_TisRuntimeObject_m3695543300_gshared
xZd:__ZN5physx13NpRigidStatic9visualizeERNS_2Cm12RenderOutputEPNS_7NpSceneE
okb:__ZN12NativeBufferI16Converter_StringE15SetupForWritingER9ArrayInfo
F0i:_SequentialSearchPrimeGeneratorBase_GenerateSearchBase_m3595783982
Ax:__ZN13RuntimeStaticI18AssetBundleManagerLb1EE16StaticInitializeEPv
xgm:___cxa_end_catch__wrapper
Tj:_emscripten_glVertexAttrib3fv
U$d:__ZN5physx6shdfnd8PoolBaseINS_2Sc35ParticleElementRbElementInteractionENS0_19ReflectionAllocatorIS3_EEE15disposeElementsEv
a_h:_SHA1CryptoServiceProvider_Dispose_m1653611664
dii:_Char_ToString_m278452217
Ukj:__Z32RuntimeInvoker_Boolean_t97287965PFvvEPK10MethodInfoPvPS4_
V1e:__ZL50__ManagedRegistrationHelperFunction_ReferencePointPv
FOh:_BigInteger_op_RightShift_m460065452
bsb:__ZN13MonoBehaviour22DoScriptRebuildWarningEv
AHl:__ZN6il2cpp6icalls8mscorlib6System5Array13ClearInternalEP11Il2CppArrayii
zMe:__Z38TextGenerator_Get_Custom_PropLineCountP12Il2CppObject
B6l:_llvm_cttz_i32
Z5h:_Encoding_GetEncoding_m2801244948
dyc:__ZN11IMGUIModule25GetGUIStyleScriptingClassEv
UIe:_tt_get_interface
$Jk:_SslStreamBase_EndRead_m495357226
CGl:__ZN6il2cpp5utils9PathUtils7CombineIcEENSt3__212basic_stringIT_NS3_11char_traitsIS5_EENS3_9allocatorIS5_EEEERKSA_SC_
w8d:__ZN5physx14PxsAABBManager16processBPResultsERKNS_20PxsComputeAABBParamsE
D6d:__ZN5physx23PxsBroadPhaseContextSapD2Ev
wvj:__Z64RuntimeInvoker_RuntimeObject_SByte_t1669577662_SByte_t1669577662PFvvEPK10MethodInfoPvPS4_
AXk:_GUIScrollGroup_CalcHeight_m3173593443
gqe:__ZN5physx12SubSortQuickC2EPjPKNS_10PxBounds3VEjf
gvg:_EnumBuilder_GetConstructorImpl_m3068576149
qT:__Z18ConvertUTF16toUTF8PPKtS0_PPhS2_15ConversionFlags
ySl:__ZN6il2cpp2os20PathErrnoToErrorCodeERKNSt3__212basic_stringIcNS1_11char_traitsIcEENS1_9allocatorIcEEEEi
kgg:__ZL68InputField_t3762917431_CustomAttributesCacheGenerator_m_KeyboardTypeP21CustomAttributesCache
upc:__Z24GetActualTargetFrameRatev
mdl:__ZL16my_g_bit_nth_msfj
c$h:_SHA512Managed_Sigma1_m922902398
IBk:_Enumerator_MoveNext_m3662315381_AdjustorThunk
uWh:_TlsClientFinished_ProcessAsTls1_m2429863130
kLb:__Z23SetupStereoFlareElementP11FlareVertexRK8Vector2fS3_S3_RK11ColorRGBA32RK10Matrix4x4fRK8Vector3fb
fil:__ZN6il2cpp2vm5Class15GetInstanceSizeEPK11Il2CppClass
_a:invoke_iiiifiiii
Xuh:_Enumerator_System_Collections_IDictionaryEnumerator_get_Key_m2502357460_AdjustorThunk
Tpb:__ZNSt3__224__buffered_inplace_mergeIRN10vector_mapI17ScriptingClassPtrPKN5Unity4TypeENS_4lessIS2_EENS_9allocatorINS_4pairIS2_S6_EEEEE13value_compareENS_11__wrap_iterIPSB_EEEEvT0_SJ_SJ_T_NS_15iterator_traitsISJ_E15difference_typeESN_PNSM_10value_typeE
xGd:__ZNK5physx2Sc9ClothCore16getRestPositionsEPNS_6PxVec4E
j3d:__ZN5physx20PxcSweepConvexConvexERKNS_11PxsCCDShapeES2_PKNS_12PxsRigidBodyES5_RKNS_11PxTransformES8_S8_S8_fRNS_6PxVec3ESA_RNS_10PxcNpCacheERNS_18PxcNpThreadContextEf
DRg:_Vector2_Equals_m832062989_AdjustorThunk
EJd:__ZN5physx15PxsParticleDataD0Ev
JDb:__ZL19BlitFramebufferImplRN4gles23BlitFramebufferDrawQuadER9GfxDevice9TextureIDRK8Vector4f
$ne:__ZN5physx6shdfnd5ArrayIPvNS0_19ReflectionAllocatorIN17PxcPoolMallocData9PoolData8EEEE15growAndPushBackERKS2_
avl:__ZN15dense_hashtableINSt3__24pairIK10KeyWrapperIPK10Il2CppTypeEjEES6_N6il2cpp8metadata14Il2CppTypeHashEN14dense_hash_mapIS6_jSB_NS6_14EqualsComparerINSA_26Il2CppTypeEqualityComparerEEENS0_9allocatorIS8_EEE9SelectKeyESF_SH_E4findERS7_
T7l:dynCall_viiiiiiiiiiiiii
vAe:_UNITY_FT_List_Add
rjc:__ZN14Texture2DArray11InitTextureEiii13TextureFormatb
ILk:_X509Extension__ctor_m1474351312
Xek:_InvokableCall_1_Invoke_m1524307439_gshared
P$c:__ZN5physx15PxGeometryQuery14getWorldBoundsERKNS_10PxGeometryERKNS_11PxTransformEf
MHd:__ZN5physx2Sc9ClothCore18setSolverFrequencyEf
Ywi:_Directory_CreateDirectoriesInternal_m3735342319
isc:__Z41Camera_CUSTOM_WorldToScreenPoint_InjectedP12Il2CppObjectRK8Vector3fRS1_
t6g:_LayoutUtility_GetLayoutProperty_m3731360667
Xzl:__ZN15dense_hashtableINSt3__24pairIK10KeyWrapperINS1_IPK11Il2CppImageP11Il2CppClassEEEjEES9_17ReflectionMapHashIS8_EN14dense_hash_mapIS9_jSD_NS9_14EqualsComparerINS0_8equal_toIS8_EEEENS0_9allocatorISB_EEE9SelectKeyESI_SK_E14squash_deletedEv
h$h:_SHAConstants__cctor_m1699027474
zPc:__ZN39b2PrepareDiscreteIslandContactIndexTask7TaskJobEPS_j
FPb:__ZNK6Camera26GetStereoSingleCullEnabledEv
o9c:__ZN5physx2Gu16buildPartialHullERKNS0_13PolygonalDataEPNS0_12SupportLocalERNS0_14SeparatingAxesERKNS_6shdfnd3aos5Vec3VESC_
DSa:__Z14resize_trimmedINSt3__26vectorIN4core12basic_stringIcNS2_20StringStorageDefaultIcEEEE13stl_allocatorIS6_L18MemLabelIdentifier13ELi16EEEEEvRT_j
xbb:__Z18Transfer_BlittableI14SafeBinaryReadLb0EaEvRK29SerializationCommandArgumentsR31RuntimeSerializationCommandInfo
hii:_CharEnumerator_System_Collections_IEnumerator_get_Current_m1328529384
nLi:_DBNull__ctor_m3431698857
bGa:__ZN4core8hash_setINS_4pairIKiiLb0EEENS_9hash_pairINS_4hashIiEES2_iEENS_10equal_pairINSt3__28equal_toIiEES2_iEEE6insertERKS3_
Qqd:__ZNK5physx2Sc16ArticulationCore17releaseDriveCacheERNS_9PxcFsDataE
M8g:_GetRayIntersectionAllCallback_Invoke_m1316694896
MKe:_UNITY_FT_List_Iterate
cfd:__ZN5physx11NpAggregate7releaseEv
Chi:_Char_System_IConvertible_ToUInt64_m3536560782
Z9i:_EqualityComparer_1__cctor_m3452395357_gshared
KJb:__Z20SyncFenceCullResultsR11CullResults
pFb:__ZN15TextureTFMethod20IsBoneCountSupportedEi
MOi:_Double_ToString_m3828879243_AdjustorThunk
Tfb:__Z22TransferField_NonArrayI17RemapPPtrTransfer27Converter_SimpleNativeClassI8GUIStyleEEvRK23StaticTransferFieldInfoR31RuntimeSerializationCommandInfoRT0_
mCd:__ZN5physx7NpShape12setMaterialsEPKPNS_10PxMaterialEt
q0e:__ZNK20UnityWebRequestProtoI24UnityWebRequestTransport16AtomicRefCounter14RedirectHelper14ResponseHelper15DownloadHandler13UploadHandler18CertificateHandler12HeaderHelper14AsyncOperationE16GetUploadedBytesEv
wdc:__ZNK17AnimationCurveTplIfE20EvaluateWithoutCacheEfRf
yzj:__Z67RuntimeInvoker_Boolean_t97287965_Rect_t2360479859_SByte_t1669577662PFvvEPK10MethodInfoPvPS4_
Mna:__ZN19ShaderPropertySheet10SetTextureERK23FastTexturePropertyNameP7Texture
Usg:_CustomAttributeData__ctor_m2966233049
X9e:_CanvasUpdateRegistry_PerformUpdate_m1793997159
$nc:__ZN4Mesh10SetNormalsEPK8Vector3fj
ZYk:_AesManaged_CreateDecryptor_m692040246
FTl:__ZNSt3__212basic_stringIDsNS_11char_traitsIDsEENS_9allocatorIDsEEE9__grow_byEjjjjjj
dw:__ZN17AnimationCurveTplIfE8TransferI14SafeBinaryReadEEvRT_
dkk:_Array_InternalArray__set_Item_TisInt16_t2552820387_m2544074754_gshared
Fci:_ArithmeticException__ctor_m3551809662
Xjc:__Z40CleanupRendererAnimationBindingInterfacev
yZb:__Z29StdTemplateConversionFunctionIybEbPvR14SafeBinaryRead
KEa:__ZNSt3__26vectorIN15QualitySettings14QualitySettingENS_9allocatorIS2_EEE6assignIPS2_EENS_9enable_ifIXaasr21__is_forward_iteratorIT_EE5valuesr16is_constructibleIS2_NS_15iterator_traitsIS9_E9referenceEEE5valueEvE4typeES9_S9_
Mbd:__Z15raycast_capsuleRKN5physx10PxGeometryERKNS_11PxTransformERKNS_6PxVec3ES8_fNS_7PxFlagsINS_9PxHitFlag4EnumEtEEjPNS_12PxRaycastHitEbPFbRSD_PvESG_
Rjj:_List_1_CheckCollection_m1671972112_gshared
twh:_Enumerator_System_Collections_IEnumerator_get_Current_m1747693366_gshared
cPj:_UnicodeEncoding_GetPreamble_m3002287178
nhe:__ZNK5physx34PxsSolverConstraintPostProcessTask7getNameEv
sig:__ZL56Toggle_t2735377061_CustomAttributesCacheGenerator_m_IsOnP21CustomAttributesCache
F8a:__ZN20GpuProgramParameters14AddVectorParamEPKcii15ShaderParamTypeiiiP16PropertyNamesSet
p$e:__ZN9Scripting19UnityEngineInternal15WebRequestUtils12CleanupProxyEv
o4c:__ZN5physx2Gu23distancePointBoxSquaredERKNS_6PxVec3ES3_S3_RKNS_7PxMat33EPS1_
Ive:__ZN5physx9NpPhysics20MeshDeletionListener28onGuMeshFactoryBufferReleaseEPKNS_6PxBaseEtb
M$e:__ZNK12HeaderHelper3GetERKN4core12basic_stringIcNS0_20StringStorageDefaultIcEEEE
dQa:__ZN9InputAxis8TransferI14SafeBinaryReadEEvRT_
FU:__ZNK21ExecutionOrderManager30GetCustomAwakeFromLoadQueueForEPKN5Unity4TypeE
HTd:__ZNK5physx7NpScene9getActorsENS_7PxFlagsINS_15PxActorTypeFlag4EnumEtEEPPNS_7PxActorEjj
L_e:__Z27RegisterModule_UnityConnectv
Ifc:__ZZL31RegisterRectTransformPropertiesR22GenericPropertyBindingEN32Wrapper_RectTransformSizeDeltax013GetFloatValueEPv
Wzi:_MemoryStream_Expand_m3554752073
fqi:_DateTimeFormatInfo_get_RoundtripPattern_m796050488
x$d:__ZN5physx11NodeManagerD0Ev
vOg:_ScriptableObject_CreateInstance_m2611081756
wVf:__ZL115TouchScreenKeyboard_t731888065_CustomAttributesCacheGenerator_TouchScreenKeyboard_Open_m3609399077____keyboardType1P21CustomAttributesCache
Uph:_InternalEnumerator_1_System_Collections_IEnumerator_get_Current_m1635397542_gshared
BAi:_Path__cctor_m3273994011
zZk:_AnalyticsEventTracker__ctor_m3064238498
_5l:__ZNSt11logic_errorD2Ev
IJi:_DateTimeUtils_CountRepeat_m3396693018
OUc:__ZNK17Physics2DSettings22GetTypeVirtualInternalEv
Xcm:_glBindRenderbuffer__wrapper
CC:__ZN10ObjectPoolIN4FMOD12ChannelGroupENS0_13ChannelGroupIEE7SetSizeEi
KYk:_SymmetricTransform_FinalDecrypt_m764004682
tJc:__ZN12b2MouseJointC2EPK15b2MouseJointDef
XFc:__ZN9Scripting11UnityEngine26ParticleSystemVertexStream9InitProxyEv
uRk:_Parser_ParseGroupingConstruct_m263270497
J_e:__ZN11UnityEngine9Analytics22EventLimitReachedEventC2EjyyRKN4core12basic_stringIcNS2_20StringStorageDefaultIcEEEEb
bAl:__ZN14dense_hash_mapI10KeyWrapperINSt3__24pairIPK9EventInfoP11Il2CppClassEEEj17ReflectionMapHashIS8_ENS9_14EqualsComparerINS1_8equal_toIS8_EEEENS1_9allocatorINS2_IKS9_jEEEEE15set_deleted_keyERSH_
HEd:__ZNK5physx7NpCloth25getMotionConstraintConfigEv
jdb:__Z14resize_trimmedINSt3__26vectorI17AnimationCurveTplIfE13stl_allocatorIS3_L18MemLabelIdentifier1ELi16EEEEEvRT_j
Rbc:__Z12GUIDToStringRK9UnityGUID
ASg:_Vector4_op_Division_m264790546
hPl:__ZN6il2cpp6icalls8mscorlib6System4Enum12get_hashcodeEP12Il2CppObject
WD:__ZN11SoundHandleC2ERKS_
e1g:_InputField_set_shouldHideMobileInput_m1650743574
Bnl:__ZNK6il2cpp5utils11collections13ArrayValueMapIPK10Il2CppType17Il2CppInteropData26InteropDataToTypeConverterNS_8metadata14Il2CppTypeLessENS8_26Il2CppTypeEqualityComparerEE10find_firstERKS5_
ryi:_FileStream_get_CanSeek_m331583577
Gs:__ZNSt3__26__sortIR23DependencySortPredicatePN4core4pairIiP9BehaviourLb0EEEEEvT0_S9_T_
c$g:_DSAParameters_t1885824122_marshal_pinvoke_back
xdd:__ZN5physx3Cct26CharacterControllerManager24setOverlapRecoveryModuleEb
u0i:_Kernel_MultiplyByDword_m1266935086
CTl:__ZN4utf89unchecked8utf8to16INSt3__220back_insert_iteratorINS2_12basic_stringIDsNS2_11char_traitsIDsEENS2_9allocatorIDsEEEEEEPKcEET_T0_SE_SD_
dHi:_Convert_ToInt64_m3916071102
Voj:__Z158RuntimeInvoker_Boolean_t97287965_RuntimeObject_Int32U26_t1369213839_Int32_t2950945753_Int32_t2950945753_RuntimeObject_SByte_t1669577662_ContextU26_t3937453398PFvvEPK10MethodInfoPvPS4_
I4h:_String_Trim_m3384720403
Nsa:__ZN14RenderSettings18TransferDeprecatedI14SafeBinaryReadEEvRT_
VHl:__ZN6il2cpp2vm9Exception27RaiseNullReferenceExceptionERKNS_5utils10StringViewIDsEEP19Il2CppSequencePoint
AVk:_Event__ctor_m526447123
twj:__Z88RuntimeInvoker_RuntimeObject_RuntimeObject_RuntimeObject_RuntimeObject_Int32_t2950945753PFvvEPK10MethodInfoPvPS4_
jVj:_Type_ToString_m3975981286
cQ:__ZN12TLSAllocatorI14StackAllocatorE8AllocateEji
n2k:_ConsumeSampleFramesNativeFunction_BeginInvoke_m342678987
EV:__ZN16ScriptingManager18GetMonoScriptCacheEi
izc:__ZN8JSONRead21TransferSTLStyleArrayI13dynamic_arrayI11KeyframeTplIfELj0EEEEvRT_17TransferMetaFlags
sHb:__ZN20ArchiveStorageHeader13GetDataOffsetERKNS_6HeaderE
IRk:_ExpressionAssertion__ctor_m2554412824
Flk:_Array_Resize_TisCustomAttributeTypedArgument_t2723150157_m3021884250_gshared
hfj:_Enumerator_System_Collections_IEnumerator_get_Current_m2237476582_gshared
Ebb:__Z18Transfer_BlittableI14SafeBinaryReadLb1EyEvRK29SerializationCommandArgumentsR31RuntimeSerializationCommandInfo
vZj:_WeakReference_Finalize_m2841826116
cpg:_NullReferenceException__ctor_m3076065613
jzc:__ZN8JSONRead8TransferIfEEvRT_PKc17TransferMetaFlagsb
F5g:_LayoutGroup_OnDisable_m3483954898
e5b:__ZN9ShaderLab7Program22ComputeSupportsShadowsEv
mHh:_X509SubjectKeyIdentifierExtension_Decode_m1505409124
m5b:__ZL23AddGpuProgramParametersR20GpuProgramParametersRKNSt3__26vectorIN9ShaderLab20SerializedSubProgram15MatrixParameterENS1_9allocatorIS5_EEEERKNS2_INS4_15VectorParameterENS6_ISB_EEEEiiP16PropertyNamesSet
wZk:_AnalyticsEventParamListContainer__ctor_m1995104893
l4h:_String_System_IConvertible_ToUInt16_m2888090399
Qrg:_Assembly_InternalGetType_m3065345470
MI:__ZN13Simd4iFactoryIN6detail9FourTupleEEC2Eiiii
p3k:_playerMovement_flipPlayer_m2692907640
_of:_ResourceSet__ctor_m3356376607
WGf:__ZL56_ParameterInfo_t489405856_CustomAttributesCacheGeneratorP21CustomAttributesCache
eHa:__ZN15SerializeTraitsI33EnlightenTerrainChunksInformationE8TransferI14SafeBinaryReadEEvRS0_RT_
mKc:__ZN6b2Body12SetTransformERK6b2Vec2f
okc:__ZNK32RendererMaterialAnimationBinding9BindValueER6ObjectRKN11UnityEngine9Animation14GenericBindingERNS3_10BoundCurveE
LAh:_Transform_1_Invoke_m1731820209_gshared
lua:__Z13GetIAnimationv
uAa:__ZL18stbir__support_onef
E3h:_Single_CompareTo_m189772128
YAc:__Z26Transfer_UnityEngineObjectI9JSONWriteLb0EEvRK29SerializationCommandArgumentsR31RuntimeSerializationCommandInfo
hsh:_DefaultComparer_Compare_m4042058291_gshared
Lgf:_Image_set_overrideSprite_m3213596394
fya:__ZNSt3__26vectorIN4core12basic_stringIcNS1_20StringStorageDefaultIcEEEE13stl_allocatorIS5_L18MemLabelIdentifier1ELi16EEE6assignINS_11__wrap_iterIPS5_EEEENS_9enable_ifIXaasr21__is_forward_iteratorIT_EE5valuesr16is_constructibleIS5_NS_15iterator_traitsISF_E9referenceEEE5valueEvE4typeESF_SF_
RSe:__ZNSt3__27__sort5IRNS_6__lessIN2UI14DepthSortEntryES3_EEPS3_EEjT0_S7_S7_S7_S7_T_
byi:_FileLoadException_ToString_m2989457882
t1k:_AudioListener_ClearExtensionProperties_m3849891634
aAe:_UNITY_FT_DivFix
Yok:_Array_InternalArray__get_Item_TisDecimal_t2948259380_m3511003792_gshared
wy:__ZL45__ManagedRegistrationHelperFunction_AudioClipPv
Y0h:_SecurityElement_IsValidAttributeValue_m948345692
Djc:__ZN14Texture2DArrayC2E10MemLabelId18ObjectCreationMode
Ja:invoke_vdd
mo:FUNCTION_TABLE_fiii
ySf:__ZL75g_UnityEngine_SharedInternalsModule_Assembly_CustomAttributesCacheGeneratorP21CustomAttributesCache
Omc:__Z19RegisterModule_Corev
Lgc:__ZNK30SpriteRendererAnimationBinding12GetPPtrValueERKN11UnityEngine9Animation10BoundCurveE
gNe:__ZZ29InitializeTextRenderingModulevEN27cleanupAfterLoadRegistrator7ForwardEv
Jni:_CCFixed_FromDateTime_m3894190577
F$l:__ZN6il2cpp6icalls8mscorlib4Mono8Security12Cryptography18KeyPairPersistence19_IsMachineProtectedEP12Il2CppString
AVb:__Z29PluginsIssueRenderingExtEvent26UnityRenderingExtEventTypePv
joj:__Z116RuntimeInvoker_RuntimeObject_RuntimeObject_Int32_t2950945753_RuntimeObject_RuntimeObject_RuntimeObject_RuntimeObjectPFvvEPK10MethodInfoPvPS4_
jWg:_MessageFormatter_ReadMethodCall_m2327590823
fjc:__Z14RandomRotationP9Texture2DPhiiii
xXi:_Array_InternalArray__ICollection_Add_TisUInt16_t2177724958_m3981262878_gshared
fve:__ZThn132_N5physx7profile8ZoneImplINS_28PxProfileNameProviderForwardEED1Ev
zej:_HashSet_1_Contains_m3173358704_gshared
q$k:_ToggleEvent__ctor_m834619998
RQh:_PKCS1_Encode_v15_m2077073129
N9a:__ZN10Instancing11DrawAPIArgsC2ERK19ShaderPropertySheetPK8Vector4fS6_S6_i
zKh:_X509ChainElementCollection_System_Collections_IEnumerable_GetEnumerator_m3829089536
eUd:__ZN5physx7NpScene27setCCDContactModifyCallbackEPNS_26PxCCDContactModifyCallbackE
Moe:__ZNK5physx17ConvexHullBuilder17ComputeGeomCenterERNS_6PxVec3E
RMg:_RectOffset_get_left_m1232181034
DFl:__ZNSt3__214__split_bufferIN6il2cpp8metadata18GenericArrayMethodERNS_9allocatorIS3_EEED2Ev
d7d:__ZN3MBPD0Ev
t8a:__ZN4gles14UseGLSLProgramER15DeviceStateGLESjbij
Sgm:_glDeleteProgram__wrapper
GAa:__ZN6prcoreL18BlitFloatToIntegerERK14ImageReferenceRS0_
CLi:_DBNull_System_IConvertible_ToUInt32_m3784627971
PUh:_ClientSessionCache_Add_m964342678
kXd:__ZNK5physx10PxsContext18getBounceThresholdEv
Apc:__ZN23TransformChangeDispatch46GetAndClearChangedTransformsForMultipleSystemsEyR13dynamic_arrayI23TransformAccessReadOnlyLj0EERS0_IyLj0EEPN9profiling6MarkerE
pLb:__Z13GetIPhysics2Dv
XM:__ZN11UnityEngine15CloudWebService14RestDownloader17OnCompleteContentEv
Ttl:__ZN15dense_hashtableINSt3__24pairIK10KeyWrapperINS1_IPK14Il2CppAssemblyP11Il2CppClassEEEjEES9_17ReflectionMapHashIS8_EN14dense_hash_mapIS9_jSD_NS9_14EqualsComparerINS0_8equal_toIS8_EEEENS0_9allocatorISB_EEE9SelectKeyESI_SK_E15insert_noresizeERKSB_
L9a:__ZN10Instancing11DrawAPIArgsC2Ev
zQg:_Transform_get_localScale_m129152068
HMi:_DivideByZeroException__ctor_m3496959969
nSd:__ZN5physx6shdfnd5ArrayIPvNS0_15InlineAllocatorILj256ENS0_19ReflectionAllocatorINS_2Gu31SpherePersistentContactManifoldEEEEEE15growAndPushBackERKS2_
vje:__ZN5physx2Cm18DelegateFanoutTaskINS_2Sc5SceneEXadL_ZNS3_17finalizationPhaseEPNS_10PxBaseTaskEEEE11runInternalEv
yOl:__ZN6il2cpp2gcL10CleanupCCWEPvS1_
ab:invoke_vifff
lac:__Z41Register_UnityEngine_GameObject_set_layerv
tfm:_glGetVertexAttribiv__wrapper
fvd:__ZN5physx6shdfnd15atomicDecrementEPVi
adk:_Predicate_1_Invoke_m851618236_gshared
Rsb:__ZN20LocalFileSystemWebGL6DeleteER13FileEntryDatab
tf:_emscripten_glDisableVertexAttribArray
cSi:_Array_InternalArray__ICollection_Remove_TisSingle_t1397266774_m3361324455_gshared
ho:FUNCTION_TABLE_iiiifiiii
vc:invoke_fifffi
Y_j:_Collection_1_System_Collections_IList_Add_m2969482770_gshared
g1i:_BitConverterLE_GetBytes_m4130646282
YBb:__ZN4gles23ClearCurrentFramebufferEP7ApiGLESbbbRK10ColorRGBAffi
Tgk:_UnityEvent_1_Invoke_m3604335408_gshared
soe:__ZN5physx2Gu11HeightField13releaseMemoryEb
Ef:_emscripten_glDeleteObjectARB
a4e:_EventSystem_RaycastComparer_m3685368675
yg:_IMG_Load
W1i:_DSAManaged_CreateSignature_m2233977444
P9h:_PKCS12_RemoveCertificate_m1421555398
Gdh:_Slider_FindSelectableOnLeft_m1667068522
N3:__ZN6prcoreL17RemapGenericFloatI17TexFormatRGBAHalf18TexFormatARGBFloatEEvPKNS_9InnerInfoE
qNc:__ZNSt3__27__sort4IRN18Overlap2DQueryBase29ColliderHitsByDepthComparitorEPP10Collider2DEEjT0_S7_S7_S7_T_
gxc:__Z14GetBuiltinSkini
EI:___cxx_global_var_init_12
nI:___cxx_global_var_init_13
CI:___cxx_global_var_init_10
DI:___cxx_global_var_init_11
Ol:_JS_SystemInfo_GetBrowserVersionString
fYa:__ZN2UI13RectTransform23VirtualRedirectTransferER14SafeBinaryRead
PUd:__ZN5physx7NpScene17flushQueryUpdatesEv
S2b:__ZNSt3__26vectorIN9ShaderLab20SerializedSubProgramENS_9allocatorIS2_EEE6assignIPS2_EENS_9enable_ifIXaasr21__is_forward_iteratorIT_EE5valuesr16is_constructibleIS2_NS_15iterator_traitsIS9_E9referenceEEE5valueEvE4typeES9_S9_
jDc:__Z18Transfer_BlittableI8JSONReadLb0E8BitFieldEvRK29SerializationCommandArgumentsR31RuntimeSerializationCommandInfo
y0h:_SecurityPermission_set_Flags_m1503445204
tej:_HashSet_1_CopyTo_m2849056227_gshared
Ilb:__ZL17Transfer_GUIStyleI18StreamedBinaryReadILb1EELb0EEvRK29SerializationCommandArgumentsR31RuntimeSerializationCommandInfo
Kuc:__ZN9Scripting11UnityEngine15ScrollViewState9InitProxyEv
q3k:_playerMovement_OnCollisionEnter2D_m2117244121
c0i:_ModulusRing_Multiply_m343333088
ose:__ZN12PhysXRaycast15InitializeClassEv
fVd:__ZN5physx7NpScene10unlockReadEv
c4f:__ZL76AnimatorTransitionInfo_t2534804151_CustomAttributesCacheGenerator_m_AnyStateP21CustomAttributesCache
M0b:__ZN9ShaderLab14SerializedPass8TransferI14SafeBinaryReadEEvRT_
Dwc:__Z71Register_UnityEngine_GUILayoutUtility_INTERNAL_CALL_Internal_MoveWindowv
ZF:__ZN12AudioManager16SetListenerPauseEb
nTc:__ZNSt3__26__sortIRN10ClipperLib12LocMinSorterEPNS1_12LocalMinimumEEEvT0_S6_T_
iHc:__ZL50__ManagedRegistrationHelperFunction_ContactPoint2DPv
ga:invoke_viiiiiiiiiii
V1l:___syscall_ret
zMk:_DeriveBytes_set_Salt_m1400945044
j6e:_PointerEventData_set_worldNormal_m1888481930
qSk:_AnchorInfo__ctor_m46784903
vTh:_CipherSuiteCollection_get_Item_m4188309062
dJk:_SslHandshakeHash_HashFinal_m2573455475
Stf:_SynchronizationAttribute_ReleaseLock_m1030353464
_kc:__ZN14qsort_internal30FindAndMovePivotToLastPositionIP8Vector2fi26PointDistanceSortPredicateEEvT_S4_T0_T1_
hVe:__Z56Register_UnityEngine_Analytics_CustomEventData_AddDoublev
gJa:__ZN11ChannelInfo8TransferI19StreamedBinaryWriteILb0EEEEvRT_
ITl:__ZN4utf88internal13validate_nextIPKcEENS0_9utf_errorERT_S5_Rj
tig:__ZL53ToggleGroup_t123837990_CustomAttributesCacheGeneratorP21CustomAttributesCache
JGd:__ZN5physx2Sc9ClothCore22setFrictionCoefficientEf
YLb:__ZN14qsort_internal13Partition3WayIP17RODataReplacementi19ROSorterReplacementEENSt3__24pairIT_S6_EES6_S6_T0_T1_
MAd:__ZNK5physx9NpPhysics17getNbConvexMeshesEv
CUd:__ZNK5physx7NpScene29getContactCorrelationDistanceEv
J8b:__Z34Register_UnityEngine_Gradient_Initv
ctf:_Context_ToString_m1073616138
iKa:__ZN13ScreenManager23SetIsOrientationEnabledE18EnabledOrientationb
_0g:_InputField_EnforceTextHOverflow_m3400115777
v8l:dynCall_viffffii
vxe:__ZN9Scripting11UnityEngine12TreeInstance9InitProxyEv
hQa:__ZN9InputAxis8TransferI19StreamedBinaryWriteILb0EEEEvRT_
Gti:__Z33il2cpp_codegen_check_sub_overflowxx
T1g:_InputField_get_caretColor_m2973283772
Ved:__ZN5physx6shdfnd8SyncImpl4waitEj
uPc:__ZN14qsort_internal5QSortIPN25b2SynchronizeFixturesTask14b2DeferredMoveEiPFbRKS2_S5_EEEvT_S8_T0_T1_
xAi:_NullStream_Seek_m1914924606
lOi:_Double_System_IConvertible_ToInt16_m3591921965_AdjustorThunk
Iak:_Comparison_1_Invoke_m2925518770_gshared
fia:__ZN10GameObject23VirtualRedirectTransferER18StreamedBinaryReadILb0EE
tYk:_SymmetricTransform__ctor_m2693628991
gsc:__Z36Camera_CUSTOM_get_pixelRect_InjectedP12Il2CppObjectR5RectTIfE
Vg:_glFrontFace
u7g:_MaskUtilities_IsDescendantOrSelf_m2247511982
uWd:__ZN5physx13NpVolumeCache17getNbCachedShapesEv
sja:__ZN12BaseRenderer21SetGlobalLayeringDataE18GlobalLayeringDataj
NMe:__Z51Register_UnityEngine_TextGenerator_GetLinesInternalv
waa:__ZN9Scripting11UnityEngine15HideInInspector12CleanupProxyEv
eZk:_AesManaged_set_Key_m767972181
Jsi:_Int16_System_IConvertible_ToBoolean_m1656400658_AdjustorThunk
wgi:_Byte_System_IConvertible_ToInt64_m285584218
Hzb:__ZN13GfxDeviceGLES22SetScissorRectPlatformERK5RectTIiE
c3:__ZN6prcoreL17RemapGenericFloatI17TexFormatRGBFloat18TexFormatRGBAFloatEEvPKNS_9InnerInfoE
XXd:__ZN5physx2Sc5Scene15getRenderBufferEv
SWi:_Array_InternalArray__ICollection_Add_TisDictionaryEntry_t3123975638_m665385049_gshared
uUf:__ZL57BootConfigData_t3818279794_CustomAttributesCacheGeneratorP21CustomAttributesCache
Pmg:_MissingMemberException__ctor_m2707802176
Qjc:__ZN28ReflectionProbeAnchorManager10InitializeEv
Oal:_Canvas_get_renderMode_m841659411
bYc:__ZN16PhysicsManager2D12BeginContactEP9b2Contact
Sqb:__ZN13MonoBehaviour23VirtualRedirectTransferER19StreamedBinaryWriteILb0EE
FE:__ZN9AudioClip11CreateSoundEv
pAl:__ZN14dense_hash_mapI10KeyWrapperINSt3__24pairIPK9FieldInfoP11Il2CppClassEEEj17ReflectionMapHashIS8_ENS9_14EqualsComparerINS1_8equal_toIS8_EEEENS1_9allocatorINS2_IKS9_jEEEEEC2EjRKSB_RKSF_
CIg:_PlayerConnection_GetConnectionNativeApi_m3116196780
Ovl:__ZNK15dense_hashtableINSt3__24pairIK10KeyWrapperINS1_IPK10MethodInfoP11Il2CppClassEEEjEES9_17ReflectionMapHashIS8_EN14dense_hash_mapIS9_jSD_NS9_14EqualsComparerINS0_8equal_toIS8_EEEENS0_9allocatorISB_EEE9SelectKeyESI_SK_E13find_positionERSA_
kzb:__ZN13GfxDeviceGLES20CreateComputeProgramEPKhj
Qcb:__Z19TransferField_ArrayI14SafeBinaryRead27Converter_SimpleNativeClassI10RectOffsetEEvRK23StaticTransferFieldInfoR31RuntimeSerializationCommandInfoRT0_
ZZe:__ZN11UnityEngine7Connect16PersistentValues13RestoreValuesER8JSONRead
ENe:__ZN9Scripting11UnityEngine8Tilemaps8TileData9InitProxyEv
wsi:_Guid_BaseToString_m3600006650
Q0a:__ZN20ArchiveStorageReader31TryToReadDirectoryFromBlockDataEyPKvj
Iee:__ZNK5physx2Gu11HeightField17getHeightInternalEff
uKl:__ZN6il2cpp2vmL11GetIdentityEP14Il2CppIUnknown
jol:__ZN6il2cpp2vm13MetadataCache26GetWindowsRuntimeClassNameEPK11Il2CppClass
sXl:_GC_push_gc_structures
EWh:_TlsServerCertificate_ProcessAsTls1_m819212276
WTd:__ZNK5physx7NpScene22getClientBehaviorFlagsEh
aok:_Dictionary_2_Do_ICollectionCopyTo_TisRuntimeObject_m3942192587_gshared
rBd:__ZN5physx9NpFactory14createMaterialEfff
cJ:__ZN5physx5cloth11PhaseConfigC2Et
owe:__ZN13PhysicsModule21OverlapBoxUserCollectERK8Vector3fS2_RK11Quaternionfi23QueryTriggerInteractionRN8IPhysics12IUserCollectE
qOc:__ZN27b2UpdateTriggerContactsTask7TaskJobEPS_j
iOh:_Kernel_DwordDivMod_m1540317819
GSd:__ZThn8_N5physx2Sc19ShapeInstancePairLLD0Ev
H9d:__ZN5physx19PxcContactSphereBoxERKNS_2Gu13GeometryUnionES3_RKNS_11PxTransformES6_RKfRNS_10PxcNpCacheERNS0_13ContactBufferE
DBk:_Enumerator_System_Collections_IEnumerator_get_Current_m1399273671_gshared
iUd:__ZNK5physx7NpScene21getBroadPhaseCallbackEh
Njd:__ZN5physx6shdfnd5ArrayIPNS_12PxConstraintENS0_19ReflectionAllocatorIS3_EEE15growAndPushBackERKS3_
ajf:_TypeBuilder_GetPropertyImpl_m3104345782
AJa:__ZNSt3__213__stable_sortIRNS_4lessI4PPtrI11SpriteAtlasEEENS_11__wrap_iterIPS4_EEEEvT0_SA_T_NS_15iterator_traitsISA_E15difference_typeEPNSD_10value_typeEi
Mvi:_Int64_ToString_m2085073918_AdjustorThunk
Gzh:_Transform_1_Invoke_m4084479750_gshared
Uqd:__ZNK5physx2Sc15ArticulationSim11checkResizeEv
Tjf:_FieldInfo_GetFieldOffset_m1356898082
jAg:_Camera_RaycastTry_m3913529496
S$b:__ZN10BootConfig4Data14InitFromStringEPPKcjS2_
iR:__ZN8keywords6CreateEPKc
mad:__ZN5physx2Gu11gjkRelativeINS0_8CapsuleVENS0_11ConvexHullVEEEjRKT_RKT0_RKNS_6shdfnd3aos15PsMatTransformVERNSB_5Vec3VESG_SG_RNSB_6FloatVE
Adl:__ZL7log2_32j
dLg:_Quaternion_Inverse_Injected_m4070500351
S:Math_imul
Jbh:_ScrollRect_LateUpdate_m1215231183
hca:__ZN9Scripting11UnityEngine11ContextMenu9InitProxyEv
uMa:__ZN14SpriteRenderer15SetupPropertiesEv
ZWh:_TlsServerKeyExchange_Update_m453798279
YEa:__ZN11PlayerPrefs6GetIntERKN4core12basic_stringIcNS0_20StringStorageDefaultIcEEEEi
CTh:_CipherSuiteCollection_System_Collections_IList_IndexOf_m1361500977
zeh:_Text_set_fontStyle_m648756124
vMe:__Z45TextGenerator_CUSTOM_INTERNAL_get_rectExtentsP12Il2CppObjectP5RectTIfE
Gx:__ZN9Scripting11UnityEngine18AssetBundleRequest12CleanupProxyEv
hJi:_DateTime__ctor_m2135476686_AdjustorThunk
YDc:__ZN13GUIStyleState8TransferI8JSONReadEEvRT_
CNg:_RectTransform_GetLocalCorners_m823861473
wki:_SynchronizedArrayListWrapper_GetEnumerator_m1579424644
y9g:_Scrollbar_get_value_m760470106
fT:__ZN18ScriptingArguments9AddObjectE18ScriptingObjectPtr
wQe:__Z39CanvasGroup_Get_Custom_PropInteractableP12Il2CppObject
CJ:__ZN11UnityEngine15CloudWebService16SessionContainerD2Ev
AYe:__ZL38InitializeUnityConnectScriptingClassesv
iWb:__ZN13ProbeRenderer8ConvolveEbijjb
jYk:_GUIUtility_set_systemCopyBuffer_m608712289
sCb:__ZN17GenericDynamicVBOC2ER9GfxDevice13GfxBufferModejj
GNc:__Z28GetPhysics2DScriptingClassesv
Axc:__ZZN10GUIManager14InitGUIManagerEvEN41PreUpdateIMGUISendQueuedEventsRegistrator7ForwardEv
pGh:_ServicePointManager_get_SecurityProtocol_m966397919
lQd:__ZNK5physx2Sc5Scene7isValidEv
Uni:_CCGregorianCalendar_day_from_fixed_m1674702403
WK:__ZN11UnityEngine15CloudWebService17SessionEventQueue10PurgeItemsEj
lWd:__ZN5physx2Sq17SceneQueryManager29setDynamicTreeRebuildRateHintEj
NWb:__ZN6Camera16StandaloneRenderENS_10RenderFlagEP6ShaderRKN4core12basic_stringIcNS3_20StringStorageDefaultIcEEEE
SIh:_X509Chain_PrepareForNextCertificate_m3691934993
Vha:__ZN16LevelGameManager23VirtualRedirectTransferER24GenerateTypeTreeTransfer
alb:__Z18Transfer_BlittableI18StreamedBinaryReadILb1EELb1EtEvRK29SerializationCommandArgumentsR31RuntimeSerializationCommandInfo
L5f:__ZL58EventType_t3528516131_CustomAttributesCacheGenerator_keyUpP21CustomAttributesCache
cJf:__ZL57X509Certificate_t713131622_CustomAttributesCacheGeneratorP21CustomAttributesCache
fJa:__ZN12BoneWeights48TransferI19StreamedBinaryWriteILb0EEEEvRT_
H4a:__ZN9GfxDevice20DeallocRenderSurfaceEP17RenderSurfaceBase
Jpd:__ZN5physx6shdfnd5ArrayIPvNS0_19ReflectionAllocatorINS_18NpArticulationLinkEEEE4copyINS0_15InlineAllocatorILj256ES5_EEEEvRKNS1_IS2_T_EE
L8a:__ZN20GpuProgramParameters36UpdatePrepareValuesMaximumBufferSizeEv
E7c:__ZNK5physx3Cct10Controller12getKineShapeEv
VZi:_SimpleCollator_GetContraction_m2205549079
aid:__ZN5physx6shdfnd4sortIPvNS0_4LessIS2_EENS0_19ReflectionAllocatorINS_2Sc18TriggerInteractionEEEEEvPT_jRKT0_RKT1_j
hYi:_Array_InternalArray__ICollection_CopyTo_TisDecimal_t2948259380_m2749946216_gshared
wOd:__ZNK5physx2Sc8BodyCore14getMaxAngVelSqEv
Nye:__ZN20TextRenderingPrivate8FontImpl13CharacterInfo8TransferI18StreamedBinaryReadILb0EEEEvRT_
lib:__Z29Transfer_Blittable_ArrayFieldI24GenerateTypeTreeTransferfEvRT_R9ArrayInfoRK23StaticTransferFieldInfo
yZ:__ZNSt3__26__treeINS_12__value_typeIN4core12basic_stringIcNS2_20StringStorageDefaultIcEEEES6_EENS_19__map_value_compareIS6_S7_NS_4lessIS6_EELb1EEE13stl_allocatorIS7_L18MemLabelIdentifier13ELi16EEE7destroyEPNS_11__tree_nodeIS7_PvEE
FDg:_UnityEvent_FindMethod_Impl_m2312362624
oYb:__ZN19CustomRenderTexture9AddParentE4PPtrIS_E
adb:__ZN8Gradient8TransferI14SafeBinaryReadEEvRT_
nzg:_Vector3_GetHashCode_m2879461828
sRk:_Parser_ParseSpecial_m1961501104
w3h:_Single_System_IConvertible_ToUInt64_m3299129161_AdjustorThunk
eya:__ZNSt3__26vectorIN4core12basic_stringIcNS1_20StringStorageDefaultIcEEEE13stl_allocatorIS5_L18MemLabelIdentifier1ELi16EEE7reserveEj
bAe:__ZN20TextRenderingPrivate15DynamicFontData36GetFaceForCharacterIfAvailableInFontERKNS_7FontRefERK13dynamic_arrayI4PPtrIN13TextRendering4FontEELj0EEj
WFh:_IPv6Address_AsIPv4Int_m844941024
Gae:__ZN5physx2Gu32PCMConvexVsMeshContactGeneration15processTriangleEPKNS_6PxVec3EjhPKj
yXh:_RecordProtocol__cctor_m1280873827
bOj:_StringBuilder__ctor_m3504405255
iqf:_Marshal__cctor_m4007734770
mWl:_GC_new_free_list_inner
P3i:_SymmetricTransform_Random_m2004892672
TVl:_GC_err_printf
D1e:__ZN9Scripting11UnityEngine2XR13InputTracking12CleanupProxyEv
jee:__ZN5physx6shdfnd5ArrayINS_2Cm8Matrix34ENS0_19ReflectionAllocatorIS3_EEE15growAndPushBackERKS3_
xRh:_RSAManaged_DecryptValue_m1804388365
Nae:__ZN5physx2Gu32PCMConvexVsMeshContactGeneration31generatePolyDataContactManifoldERNS0_9TriangleVEjjhPNS0_21MeshPersistentContactERjRKNS_6shdfnd3aos6FloatVERNS8_5Vec3VE
Igh:_InternalEnumerator_1_System_Collections_IEnumerator_get_Current_m2980550840_AdjustorThunk
mqe:__ZN5physx10SubSortSAH5splitEPjj
ZDc:__ZN8JSONRead8TransferI10RectOffsetEEvRT_PKc17TransferMetaFlagsb
FK:__ZN9JSONWrite8TransferIN11UnityEngine15CloudWebService14DataErrorEvent15FileErrorDetailEEEvRT_PKc17TransferMetaFlags
Cui:_Int32_Parse_m2087562008
b3i:_PrivateKeyInfo__ctor_m2414235375
J2c:__ZN5physx2Gu3EPA8addFacetEjjjRKNS_6shdfnd3aos6FloatVES6_
Rmf:_MonoProperty_GetAccessors_m412928203
uik:_TweenRunner_1_Start_m3757154622_gshared
hB:__ZN12SoundManager20RegisterModifiedClipEP10SampleClip
TTg:_RemotingServices_GetClientChannelSinkChain_m1499550585
Rrg:_Assembly_FillName_m1660001542
rPa:__ZN12MeshRenderer15AddAsRenderNodeER15RenderNodeQueueRK20DeprecatedSourceData
LGf:__ZL56_EventBuilder_t2558055199_CustomAttributesCacheGeneratorP21CustomAttributesCache
J_h:_SHA384Managed_processBlock_m1272529332
YQj:_Interlocked_CompareExchange_m3023855514
eii:_Char_ToString_m278452217_AdjustorThunk
Med:__ZN5physx3Cct9CCTParamsC2Ev
ell:__ZN15dense_hashtableI10KeyWrapperIPK17Il2CppGenericInstES4_N6il2cpp8metadata21Il2CppGenericInstHashEN14dense_hash_setIS4_S7_NS4_14EqualsComparerINS6_24Il2CppGenericInstCompareEEENSt3__29allocatorIS4_EEE8IdentityESB_SE_E13set_empty_keyERKS4_
Llj:__Z63RuntimeInvoker_Char_t3634460470_Int16_t2552820387_RuntimeObjectPFvvEPK10MethodInfoPvPS4_
$Fi:_Convert_ToDouble_m2924063577
iEd:__ZN5physx7NpCloth21setStiffnessFrequencyEf
i3d:__ZN5physx17PxcSweepBoxConvexERKNS_11PxsCCDShapeES2_PKNS_12PxsRigidBodyES5_RKNS_11PxTransformES8_S8_S8_fRNS_6PxVec3ESA_RNS_10PxcNpCacheERNS_18PxcNpThreadContextEf
YY:__Z17GetCoreModuleSpecv
Bme:__ZThn8_N5physx2Gu11HeightField14onRefCountZeroEv
uhd:__ZN5physx2Sc5Actor9setActiveEbj
bad:__ZN12_GLOBAL__N_127SphereMeshContactGeneration15processTriangleEjRKN5physx6PxVec3ES4_S4_PKj
aCa:__ZN7Cubemap23VirtualRedirectTransferER18StreamedBinaryReadILb0EE
Adc:__ZNSt3__27__sort4IRNS_6__lessI11KeyframeTplIfES3_EEPS3_EEjT0_S7_S7_S7_T_
yJe:_Read_CVT
Qhd:__ZN5physx2Sc10NPhaseCore28reserveContactReportPairDataEjjRj
Z2c:__ZN5physx2Gu22barycentricCoordinatesERKNS_6shdfnd3aos5Vec3VES5_S5_RNS2_6FloatVE
b1a:__ZN12FileAccessor4SeekEx10FileOrigin
lu:__ZN9Scripting11UnityEngine25RuntimeAnimatorController12CleanupProxyEv
_gb:__ZL26Transfer_SimpleNativeClassI24GenerateTypeTreeTransfer17AnimationCurveTplIfELb0EEvRK29SerializationCommandArgumentsR31RuntimeSerializationCommandInfo
qFi:_Convert_ToDecimal_m1783778724
ryh:_ShimEnumerator_get_Value_m153531060_gshared
noi:_DateTimeFormatInfo__ctor_m3106345035
sUh:_TlsServerKeyExchange_verifySignature_m3412856769
Q9i:_EqualityComparer_1_System_Collections_IEqualityComparer_GetHashCode_m4137147946_gshared
Hoe:__ZL18TestUnifiedNormalsjPKN5physx6PxVec3EjPNS_2Gu9TriangleTIjEEb
PGk:_Collection_1_System_Collections_ICollection_CopyTo_m5285659_gshared
B_:__ZN16LightmapSettings20DidChangeActiveSceneEP10UnitySceneS1_
nkg:__ZL59g_AssemblyU2DCSharp_Assembly_CustomAttributesCacheGeneratorP21CustomAttributesCache
Rsl:__ZN6il2cpp5utils9PathUtils8BasenameIcEENSt3__212basic_stringIT_NS3_11char_traitsIS5_EENS3_9allocatorIS5_EEEERKSA_
hD:__ZN10AudioMixer11SetupGroupsEv
Qu:__ZN9Scripting11UnityEngine10Animations21AnimationClipPlayable9InitProxyEv
Dvc:__Z35Register_UnityEngine_Event_get_typev
e9:__ZN9Scripting11UnityEngine9Rendering18GraphicsDeviceType12CleanupProxyEv
aIl:__ZN6il2cpp2vm9Exception23GetInvalidCastExceptionERKNS_5utils10StringViewIDsEE
Fam:_emscripten_glDepthRange__wrapper
lle:__ZNK5physx13GuMeshFactory17getNbConvexMeshesEv
fU:__Z63ThreadAndSerializationSafeCheckGetMonoBehaviourBeingTransferredv
jaa:__ZN9Scripting11UnityEngine12LightmapData9InitProxyEv
htk:_List_1_set_Item_m4224739467_gshared
$tg:_ConstructorBuilder_get_Name_m2426555260
iec:__Z37Register_UnityEngine_Input_GetAxisRawv
gba:__ZN9Scripting11UnityEngine12Experimental10PlayerLoop6Update12CleanupProxyEv
tRk:_Parser_ParseCharacterClass_m4285351396
tHi:_Convert_ToSByte_m2653418303
HBi:_SyncHashtable__ctor_m2449935938
VZh:_RSAPKCS1SignatureFormatter_SetKey_m2935054088
yLb:__ZN12ImageFilters27SetSurfaceUseResolvedBufferEP13RenderTextureb
x$g:_HashAlgorithm_TransformBlock_m4006041779
AJb:__ZN25CameraStackRenderingState16SetCurrentCameraEP6Camera
Gza:__ZN14Texture2DArray23VirtualRedirectTransferER18StreamedBinaryReadILb0EE
RPj:_UTF7Encoding_GetByteCount_m209415911
YXa:__ZN2UI13RectTransform13AwakeFromLoadE17AwakeFromLoadMode
$Tk:_RegularExpression_Compile_m2385682508
UQb:__ZN14qsort_internal30FindAndMovePivotToLastPositionIP20ShadowCasterSortDatai26ShadowCasterSortDataSorterEEvT_S4_T0_T1_
vab:__Z18Transfer_BlittableI14SafeBinaryReadLb1EiEvRK29SerializationCommandArgumentsR31RuntimeSerializationCommandInfo
YIh:_X509ExtensionEnumerator_get_Current_m256207749
W2g:_InputField_MoveTextStart_m1087475594
bni:_EventArgs__cctor_m1889823314
kei:_Array_Sort_m182264525
m5g:_LayoutGroup_set_padding_m282562135
Jsg:_Default_IsArrayAssignable_m953489228
wWj:_UInt16_ToString_m355311020_AdjustorThunk
vyd:__ZN18MultiQueryCallbackIN5physx12PxOverlapHitEE6invokeERfPKNS0_2Sq13PrunerPayloadEj
A5c:__ZN5physx2Gu18gjkRelativeRayCastINS0_4BoxVES2_NS0_10ShrunkBoxVES3_EEbRT_RT0_RKNS_6shdfnd3aos15PsMatTransformVERKNS9_6FloatVERKNS9_5Vec3VESI_RSD_RSG_SK_fb
jl:_glGetStringi
d7h:_DecoderExceptionFallback_CreateFallbackBuffer_m1133375601
HMl:__ZNK15dense_hashtableI10KeyWrapperIP18Il2CppGenericClassES3_N6il2cpp8metadata22Il2CppGenericClassHashEN14dense_hash_setIS3_S6_NS3_14EqualsComparerINS5_25Il2CppGenericClassCompareEEENSt3__29allocatorIS3_EEE8IdentityESA_SD_E10test_emptyERK30dense_hashtable_const_iteratorIS3_S3_S6_SF_SA_SD_E
uvh:_Enumerator_get_CurrentKey_m889650866_gshared
Mel:_Physics_Raycast_m3133704280
Tle:__ZThn8_N5physx2Gu10ConvexMeshD0Ev
mPg:_StackTraceUtility_PostprocessStacktrace_m1043256299
_ka:__ZN9Coroutine16SetCurrentMethodE18ScriptingMethodPtr
qL:__ZN11UnityEngine15CloudWebService20WebRequestRestClient18GetResponseHeadersEv
GEk:_Collection_1_ConvertItem_m1743542180_gshared
CMe:__Z38Register_UnityEngine_Font_HasCharacterv
YR:__ZN13RuntimeStaticINSt3__26vectorIN4core12basic_stringIcNS2_20StringStorageDefaultIcEEEENS0_9allocatorIS6_EEEELb0EE13StaticDestroyEPv
hVb:__Z35IntersectSpherePlaneBoundsOptimizedRKN4math7_float4EPS1_i
aZh:_RNGCryptoServiceProvider__cctor_m3587754670
Pfd:__ZN5physx2Sc8ShapeSim20createLowLevelVolumeEjRKNS_9PxBounds3EjNS_9AABBMgrIdE
BY:__ZN17TransformInternal21DetachTransformThreadER18TransformHierarchyjj
Asi:_Guid_ToString_m4056316049
ePl:__ZN6il2cpp2os5posix15PosixWaitObject13InterruptWaitEv
nEd:__ZNK5physx7NpCloth22getAngularInertiaScaleEv
ubd:__ZN26IntersectAnyVsMeshCallbackILi1ELb1EE10processHitERKN5physx12PxRaycastHitERKNS1_6PxVec3ES7_S7_RfPKj
g_:__Z22CleanupLODGroupManagerPv
FXd:__ZN5physx6shdfnd5ArrayINS_2Sc5Scene14SimpleBodyPairENS0_19ReflectionAllocatorIS4_EEE8recreateEj
Ul:_glUniform3fv
j0l:__ZNK6il2cpp8metadata24Il2CppGenericInstCompareclERK10KeyWrapperIPK17Il2CppGenericInstES8_
rJh:_X509ChainElement_Set_m655180762
Wdl:_CustomEventData_AddInt32_m548429697
wPb:__ZNK16LightmapSettings31GetRealtimeLightmapDecodeValuesEv
SC:__ZN5audio5mixer12SetSuspendedERNS0_16AudioMixerMemoryEb
gXa:__ZN17PersistentManager21UnloadNonDirtyStreamsEv
Osj:__Z96RuntimeInvoker_Int32_t2950945753_RuntimeObject_Int32_t2950945753_RuntimeObject_Int32_t2950945753PFvvEPK10MethodInfoPvPS4_
TZk:_AnalyticsEventTracker_OnEnable_m1121905268
AUk:_Uri_get_Parser_m3737125102
Xal:_Canvas_get_overrideSorting_m2740418462
RBg:_Debug_LogFormat_m309087137
tgi:_Byte_System_IConvertible_ToInt16_m4136764794_AdjustorThunk
WKa:__ZN12ImageFilters4BlitER17ShaderPassContextP7TextureP13RenderTextureiPK18SharedMaterialDataPKcP6ShaderiNS_9BlitFlagsE11CubemapFaceRK8Vector2fSH_
Zte:__ZN5physx6shdfnd8PoolBaseINS_24NpPtrTableStorageManager8PtrBlockILi4EEENS0_19ReflectionAllocatorIS4_EEE12allocateSlabEv
qPk:_Mark_get_Index_m3048692661
Fig:__ZL69CanvasScaler_t2767979955_CustomAttributesCacheGenerator_m_ScaleFactorP21CustomAttributesCache
eL:__ZN11UnityEngine15CloudWebService10RestClientINS0_23WebRequestRestHeaderMapEED2Ev
Vie:__ZN5physx2Sc5Scene13ccdBroadPhaseEPNS_10PxBaseTaskE
pm:_emscripten_glDepthMask
Iae:__ZN5physx2Gu24PCMMeshContactGeneration15processContactsEhb
YUg:_RemotingServices_CreateClientProxy_m3886727610
mDa:__ZN4crnd25static_huffman_data_model22prepare_decoder_tablesEv
_Dd:__ZN5physx7NpCloth12setParticlesEPKNS_15PxClothParticleES3_
Xic:__ZN16ReflectionProbesD2Ev
DXh:_RecordProtocol_GetMessage_m2086135164
G_:__Znaj
qhm:_emscripten_glEnableClientState__wrapper
K$e:__ZN20UnityWebRequestProtoI24UnityWebRequestTransport16AtomicRefCounter14RedirectHelper14ResponseHelper15DownloadHandler13UploadHandler18CertificateHandler12HeaderHelper14AsyncOperationE26Job_ExecuteUnityWebRequestEPS9_
mQ:__ZN17MessageIdentifierC2EPKcNS_7OptionsEPKN5Unity4TypeES1_
IHg:_Mesh_SetTriangles_m1523451247
l3h:_Single_System_IConvertible_ToSByte_m1208276900
Ukk:_Array_InternalArray__set_Item_TisVector4_t3319028937_m757305038_gshared
Xfc:__ZNSt3__26__treeIPc15compare_tstringIPKcENS_9allocatorIS1_EEE25__emplace_unique_key_argsIS1_JS1_EEENS_4pairINS_15__tree_iteratorIS1_PNS_11__tree_nodeIS1_PvEEiEEbEERKT_DpOT0_
frj:__Z105RuntimeInvoker_Void_t1185182177_RuntimeObject_RuntimeObject_RuntimeObject_RuntimeObject_Int32_t2950945753PFvvEPK10MethodInfoPvPS4_
Y4d:__ZN5physxL26solveFriction4_StaticBlockEPKNS_23PxcSolverConstraintDescERNS_16PxcSolverContextE
hmj:__Z64RuntimeInvoker_RuntimeObject_Int16_t2552820387_Int16_t2552820387PFvvEPK10MethodInfoPvPS4_
IG:__Z55Register_UnityEngine_AudioSource_get_spatializeInternalv
Jx:__ZN14SafeBinaryRead8TransferI14ConstantStringEEvRT_PKc17TransferMetaFlags
B9d:__ZN5physx30PxcGetMaterialShapeHeightFieldEPKNS_12PxsShapeCoreES2_RNS_18PxcNpThreadContextEPNS_15PxsMaterialInfoE
BJb:__ZNK6Camera16GetStereoEnabledEv
Qvj:__Z72RuntimeInvoker_Int32_t2950945753_TimeSpan_t881159249_TimeSpan_t881159249PFvvEPK10MethodInfoPvPS4_
R9k:_Collision2D_get_transform_m2670923831
cYh:_SendRecordAsyncResult_SetComplete_m153213906
NGa:__ZN16LightmapSettings23VirtualRedirectTransferER19StreamedBinaryWriteILb0EE
Gjc:__ZN12LightManager15InitializeClassEv
Eje:__ZN5physx6shdfnd8PoolBaseINS_2Sc19ParticlePacketShapeENS0_19ReflectionAllocatorIS3_EEE12allocateSlabEv
Rwa:__ZN9ShaderLab11shaderprops16GetComputeBufferEPK19ShaderPropertySheetS3_NS_16FastPropertyNameE
kUl:__ZN6il2cpp6icalls8mscorlib6System10Reflection10MethodBase31GetMethodFromHandleInternalTypeEii
aW:__ZN23ManagedAttributeManager35CallManagedGetDefaultExecutionOrderE17ScriptingClassPtr
tT:__ZN18ScriptingArgumentsC2Ev
Jzg:_Vector3_op_Equality_m4231250055
vcm:_emscripten_glBlendFuncSeparate__wrapper
hHa:__ZN15SerializeTraitsI13dynamic_arrayI7Hash128Lj0EEE19ResizeSTLStyleArrayERS2_i
Gxi:_FileSystemInfo__ctor_m3769019897
Ipk:_Array_InternalArray__get_Item_TisContentType_t1787303396_m421427711_gshared
_Kb:__ZNK25CameraStackRenderingState27GetStereoImageEffectTextureEb
$$g:_HMACSHA384__ctor_m1677515580
$Ik:_RIPEMD160Managed_J_m1336489154
iuc:__ZL52__ManagedRegistrationHelperFunction_PlayableDirectorPv
mr:__ZN8Vector3f8TransferI14SafeBinaryReadEEvRT_
Ipl:__ZN6il2cpp6icalls6System6System3Net7Sockets6Socket7ReceiveEiP11Il2CppArrayiiNS4_11SocketFlagsEPi
c8b:__ZN13BuildSettings13GetSceneIndexERKN4core12basic_stringIcNS0_20StringStorageDefaultIcEEEE
vp:FUNCTION_TABLE_ii
tha:__ZN10TagManager8TransferI18StreamedBinaryReadILb0EEEEvRT_
yAc:__Z18Transfer_BlittableI9JSONWriteLb0E8BitFieldEvRK29SerializationCommandArgumentsR31RuntimeSerializationCommandInfo
Mzi:_MemoryStream_set_Capacity_m1773624579
LEl:__ZNK15dense_hashtableINSt3__24pairIK10KeyWrapperINS1_IP11Il2CppClassjEEES4_EES6_N6il2cpp8metadata14ArrayClassHashEN14dense_hash_mapIS6_S4_SB_NS6_14EqualsComparerINSA_17ArrayClassCompareEEENS0_9allocatorIS8_EEE9SelectKeyESF_SH_E10test_emptyEj
G1b:__ZNSt3__26vectorIN9ShaderLab20SerializedSubProgram15StructParameterENS_9allocatorIS3_EEE8__appendEj
Ib:invoke_diiii
Uam:b47
Bad:__ZL17sweepVolumeVsMeshPKN5physx3Cct9SweepTestEPKNS0_11TouchedMeshERNS0_12SweptContactERKNS_6PxVec3ERKNS_10PxGeometryERKNS_11PxTransformEjPKNS_10PxTriangleEj
ut:__ZL57__ManagedRegistrationHelperFunction_AnimationClipPlayablePv
Vxj:__Z95RuntimeInvoker_Void_t1185182177_RuntimeObject_RuntimeObject_SByte_t1669577662_SByte_t1669577662PFvvEPK10MethodInfoPvPS4_
Xde:__ZN5physx2Gu31checkOverlapOBB_heightFieldGeomERKNS_10PxGeometryERKNS_11PxTransformERKNS0_3BoxE
R_b:__Z24CreateDirectoryRecursiveRKN4core12basic_stringIcNS_20StringStorageDefaultIcEEEE
Lam:b41
U3b:__ZN9ShaderLab20SerializedSubProgram8TransferI18StreamedBinaryReadILb0EEEEvRT_
Kam:b40
P8c:__ZN5physx2Gu23findRotationMatrixFromZERKNS_6PxVec3E
YTf:__ZL54ContextMenu_t1295656858_CustomAttributesCacheGeneratorP21CustomAttributesCache
QR:__ZN13RuntimeStaticI21ScalableBufferManagerLb0EE13StaticDestroyEPv
SOe:__ZN2UI13CanvasManager9AddCanvasEPNS_6CanvasE
MKa:__ZN9Texture3D8TransferI19StreamedBinaryWriteILb0EEEEvRT_
gMb:__ZNK6Camera22CalculateRenderingPathEv
Nam:b42
TBc:__ZN9JSONWrite8TransferI5RectTIfEEEvRT_PKc17TransferMetaFlags
sWd:__ZN5physx13NpVolumeCache10invalidateEv
YDb:__Z13ConvertMipmap14GraphicsFormatPKvS_Pviiii
lHa:__ZN28EnlightenRendererInformation8TransferI14SafeBinaryReadEEvRT_
qx:__ZN9Scripting11UnityEngine2XR5Tango24MeshReconstructionServer9InitProxyEv
Gfb:__ZL12InvokeMethodI17RemapPPtrTransferEvRK29SerializationCommandArgumentsR31RuntimeSerializationCommandInfo
UEh:_RemoteCertificateValidationCallback_Invoke_m3086073466
A6h:_StringComparer_Compare_m991165676
kHe:_tt_sbit_decoder_load_image
wva:__Z14IsHalfRTFormat19RenderTextureFormat
ysi:_Guid_ToString_m3279186591
gik:_U3CStartU3Ec__Iterator0_Dispose_m261027331_gshared
Kxc:__ZNSt3__24listIN10GUIManager12SortedScriptE11memory_poolIS2_EE6__sortI13OldSortScriptEENS_15__list_iteratorIS2_PvEESA_SA_jRT_
kgd:__ZN5physx6shdfnd5ArrayIPvNS0_19ReflectionAllocatorINS_2Sc10NPhaseCore16ClothListElementEEEE15growAndPushBackERKS2_
AHk:_Collection_1_System_Collections_IList_Add_m3364892189_gshared
Dtk:_List_1_AddEnumerable_m3500350831_gshared
cRh:_PrivateKeyInfo_get_PrivateKey_m3647771102
QGl:__ZN6il2cpp6icalls8mscorlib6System9ThreadingL11ThreadStartEPv
Y0:__ZN15DirectorManager12OnSampleTimeEv
Hif:_TypeBuilder_check_not_created_m3652863637
D7e:_StandaloneInputModule_UpdateModule_m450861257
a9j:_ReadOnlyCollection_1_System_Collections_IList_Insert_m2928873627_gshared
sbj:_EqualityComparer_1__cctor_m314889309_gshared
Jea:__ZN12CachedReader10Align4ReadEv
NKc:__ZN15b2WorldManifold10InitializeEPK10b2ManifoldRK11b2TransformfS5_f
lNk:_X501__cctor_m2428304915
Wal:_Canvas_get_renderOrder_m1489855841
Gmj:__Z50RuntimeInvoker_Void_t1185182177_Single_t1397266774PFvvEPK10MethodInfoPvPS4_
c9h:_X501_ToString_m4186311521
QVk:_Event_ToString_m1688862299
Qcc:__Z15TransformVector23TransformAccessReadOnlyRKN4math7_float3E
sfa:__ZNK9Behaviour22GetTypeVirtualInternalEv
bzd:__ZN5physx2Sc14ConstraintCore13setBreakForceEff
WBg:_Debug_LogErrorFormat_m575266265
Tni:_CCGregorianCalendar_month_from_fixed_m4268992710
NUi:_Array_compare_TisUICharInfo_t75501106_m1310495481_gshared
jye:__ZN20TextRenderingPrivate8FontImpl8TransferI14SafeBinaryReadEEvRT_
a7:__ZL51__ManagedRegistrationHelperFunction_HideInInspectorPv
b4f:__ZL82AnimatorTransitionInfo_t2534804151_CustomAttributesCacheGenerator_m_NormalizedTimeP21CustomAttributesCache
ETd:__ZN5physx7NpScene15removeAggregateERNS_11PxAggregateEb
p7j:_ReadOnlyCollection_1_System_Collections_IList_Clear_m4022532825_gshared
$5h:_Encoding_get_ASCII_m3595602635
yse:__ZZN14PhysicsManager15InitializeClassEvEN63EarlyUpdatePhysicsResetInterpolatedTransformPositionRegistrator7ForwardEv
q5a:__ZN9GfxDevice17ImmediateTexCoordEifff
STc:__ZN10ClipperLib7Clipper13AppendPolygonEPNS_5TEdgeES2_
Vug:_DerivedType_GetCustomAttributes_m3536779709
WLf:__ZL93Interlocked_t2273387594_CustomAttributesCacheGenerator_Interlocked_CompareExchange_m388540288P21CustomAttributesCache
Pif:_MethodBase_get_IsAbstract_m428833029
hgb:__Z35Transfer_Blittable_FixedBufferFieldI24GenerateTypeTreeTransferhEvRK29SerializationCommandArgumentsR31RuntimeSerializationCommandInfo
vam:_emscripten_glUniform4f__wrapper
Nhj:_Enumerator_MoveNext_m2595190390_AdjustorThunk
Yge:__ZN5physx6shdfnd5ArrayINS_25PxcThresholdStreamElementENS0_19ReflectionAllocatorIS2_EEE8recreateEj
jOb:__ZNK6Camera16GetProjectionFarEv
qs:__Z24InverseTransformRotationRK23TransformAccessReadOnlyRKN4math7_float4E
IGc:__ZN11UnityEngine9Analytics16StartupTimeEvent23SetSplashScreenTimeInfoEyyy
lOk:_X509Chain_Build_m2469702749
$_e:__Z31GetPerformanceReportingSettingsv
DDf:__ZL64Path_t1605229823_CustomAttributesCacheGenerator_InvalidPathCharsP21CustomAttributesCache
nBa:__ZN7Texture34CreateFileTextureUploadInstructionE18TextureUploadFlagsj
Ltf:__ZN25GenericVirtActionInvoker06InvokeEPK10MethodInfoP12Il2CppObject
oFd:__ZN5physx7NpCloth21setCollisionMassScaleEf
kee:__ZN5physx6shdfnd5ArrayINS_7PxPlaneENS0_19ReflectionAllocatorIS2_EEE8recreateEj
swe:__ZN13PhysicsModule17GetRigidBodyStateERK9RigidbodyPN8IPhysics14RigidBodyStateE
Fif:_TypeBuilder_DefineConstructor_m2989882735
K1a:__ZN25SingleBlockMemoryFileDataC2E10MemLabelIdPvjb
Wzl:__ZN15dense_hashtableINSt3__24pairIK10KeyWrapperINS1_IPK11Il2CppImageP11Il2CppClassEEEjEES9_17ReflectionMapHashIS8_EN14dense_hash_mapIS9_jSD_NS9_14EqualsComparerINS0_8equal_toIS8_EEEENS0_9allocatorISB_EEE9SelectKeyESI_SK_E15set_deleted_keyERKSB_
FLc:__ZNK14b2CapsuleShape5CloneEP16b2BlockAllocator
PH:__ZN16BaseVideoTexture19UpdateVideoTexturesEv
Qlf:_MonoField_GetValue_m3124733531
HVa:__ZNK16LightmapSettings23HasLightProbeTetrahedraEv
RHa:__ZN6Sprite23VirtualRedirectTransferER19StreamedBinaryWriteILb0EE
l8b:__ZN2UI13RectTransform12SetAnchorMaxERK8Vector2f
scc:__Z38Transform_CUSTOM_INTERNAL_set_positionP12Il2CppObjectRK8Vector3f
q4e:_EventTrigger_Execute_m2453060771
pak:_Comparison_1_Invoke_m517083441_gshared
Qul:__ZNK15dense_hashtableINSt3__24pairIK10KeyWrapperINS1_IPK9FieldInfoP11Il2CppClassEEEjEES9_17ReflectionMapHashIS8_EN14dense_hash_mapIS9_jSD_NS9_14EqualsComparerINS0_8equal_toIS8_EEEENS0_9allocatorISB_EEE9SelectKeyESI_SK_E5beginEv
iRl:__ZN6il2cpp2os6Thread15CurrentThreadIdEv
JFj:__Z82RuntimeInvoker_Boolean_t97287965_Int32_t2950945753_Int32_t2950945753_RuntimeObjectPFvvEPK10MethodInfoPvPS4_
EBb:__ZN14DataBufferGLES11CopySubDataEPKS_jjj
Ke:_emscripten_glVertexPointer
ctl:__ZN6il2cpp2vm7Runtime47RaiseExecutionEngineExceptionIfMethodIsNotFoundEPK10MethodInfo
YPk:_PatternCompiler_GetMachineFactory_m3758869886
zRb:__Z17GetFrustumPortionPK8Vector3fffPS_
ajd:__ZNK5physx2Gu22SupportMapRelativeImplINS0_4BoxVEE18doWarmStartSupportEiRNS_6shdfnd3aos5Vec3VE
RJl:__ZN15dense_hashtableINSt3__24pairIK10KeyWrapperIP14Il2CppIUnknownEjEES5_N6il2cpp5utils11PointerHashIS3_EEN14dense_hash_mapIS5_jSB_NS5_14EqualsComparerINS0_8equal_toIS4_EEEENS0_9allocatorIS7_EEE9SelectKeyESG_SI_E14squash_deletedEv
H4e:_EventTrigger_OnCancel_m585099428
eXk:_GUILayoutEntry_ApplyOptions_m1741659338
Fsg:_Default_check_arguments_m3882727959
FYg:_RuntimeTypeHandle_Equals_m2857439487_AdjustorThunk
O3a:__ZNK9GfxDevice27GetPlatformAdjustedViewportEv
Sah:_ScrollRect_get_rectTransform_m2442061719
l4j:_ReadOnlyCollection_1_System_Collections_Generic_IListU3CTU3E_set_Item_m88350439_gshared
KW:__ZNSt3__26vectorINS_4pairIiiEE13stl_allocatorIS2_L18MemLabelIdentifier38ELi16EEE6insertENS_11__wrap_iterIPKS2_EEOS2_
J0:__ZNSt3__26__treeINS_12__value_typeIPvsEENS_19__map_value_compareIS2_S3_NS_4lessIS2_EELb1EEE13stl_allocatorIS3_L18MemLabelIdentifier86ELi16EEE25__emplace_unique_key_argsIS2_JNS_4pairIS2_sEEEEENSD_INS_15__tree_iteratorIS3_PNS_11__tree_nodeIS3_S2_EEiEEbEERKT_DpOT0_
Q_k:_StandardEventPayload_IsRequiredDataValid_m361738930
d$e:__GLOBAL__sub_I_artifacts_WebGL_codegenerator_0_cpp_6966
dck:_Func_3_Invoke_m1194147890_gshared
GSk:_Reference_Compile_m4195878675
K6j:_ReadOnlyCollection_1_System_Collections_ICollection_CopyTo_m2672196987_gshared
gnc:__ZN16StreamedResource8TransferI24GenerateTypeTreeTransferEEvRT_
bNg:_RectTransform_get_anchorMin_m2928307238
Ddd:__ZN5physx3Cct10Controller13onOriginShiftERKNS_6PxVec3E
pii:_ArrayList__ctor_m3828927650
Zoa:__ZN10Matrix3x3f15InvertTransposeEv
qXk:_GUILayoutGroup_SetHorizontal_m996475327
hXk:_GUILayoutEntry__cctor_m663865902
WIb:__Z11IsBatchmodev
F3d:__ZN5physx2Gu19_gjkRelativeRayCastINS0_9TriangleVENS0_11ConvexHullVEEEbRT_RT0_RKNS_6shdfnd3aos15PsMatTransformVERKNS9_6FloatVERKNS9_5Vec3VESI_RSD_RSG_SK_f
geb:__Z29Transfer_Blittable_ArrayFieldI14SafeBinaryRead8Vector3fEvRT_R9ArrayInfoRK23StaticTransferFieldInfo
_ye:__ZN20TextRenderingPrivate8FontImpl18ResetCachedTextureEv
Grl:__ZN6il2cpp6icalls8mscorlib6SystemL16GetFieldFromTypeINS_5utils10functional6FilterINSt3__212basic_stringIcNS7_11char_traitsIcEENS7_9allocatorIcEEEENS4_13VmStringUtils21CaseSensitiveComparerEEEEEP21Il2CppReflectionFieldP11Il2CppClassSK_iRKT_
T8d:__ZNK5physx19ActorAABBUpdateTask7getNameEv
pHh:_X509KeyUsageExtension_Decode_m3150759625
WWl:_GC_print_finalization_stats
NIc:__ZNK12b2WheelJoint10GetAnchorBEv
XXk:_GUITargetAttribute_GetGUITargetAttrValue_m2954410352
Q8b:__Z53Register_UnityEngine_Behaviour_get_isActiveAndEnabledv
sei:_SimpleEnumerator_get_Current_m72361444
Rr:__ZNSt3__26vectorIN4core12basic_stringIcNS1_20StringStorageDefaultIcEEEENS_9allocatorIS5_EEE8__appendEj
ZCl:_il2cpp_gc_collect
TQa:__ZN26PlayerSettingsSplashScreen8TransferI17RemapPPtrTransferEEvRT_
_0i:_ASN1_set_Value_m2803403806
Nrl:__ZN6il2cpp6icalls8mscorlib6SystemL17CollectTypeFieldsINS_5utils10functional10TrueFilterEEEvP11Il2CppClassPKS7_iRNSt3__26vectorIP9FieldInfoNSB_9allocatorISE_EEEERKT_
oUd:__ZN5physx7NpScene14resetFilteringERNS_12PxRigidActorEPKPNS_7PxShapeEj
M9b:__Z13GetTagManagerv
Wbi:_Hashtable__ctor_m1815022027
oQj:_UTF8Encoding_GetChars_m1433288684
ral:_Physics2D_GetRayIntersectionNonAlloc_Internal_m177321563
rdl:__ZL10roundUp128PyS_
AJ:__ZN11UnityEngine15CloudWebService17CloudJobSchedulerD0Ev
kUa:__ZN18LoadSceneOperation7PerformEv
QZd:__ZN5physx2Sc5Scene26setSimulationEventCallbackEPNS_25PxSimulationEventCallbackEh
oGc:__ZN11UnityEngine9Analytics26PerformanceReportingConfig13ConfigChangedERKN4core12basic_stringIcNS2_20StringStorageDefaultIcEEEER8JSONRead
$Tj:_TimeZone_ToUniversalTime_m2789507578
Cmj:__Z96RuntimeInvoker_Boolean_t97287965_RuntimeObject_RuntimeObject_Int32_t2950945753_Int32_t2950945753PFvvEPK10MethodInfoPvPS4_
oVi:_Array_IndexOf_TisUICharInfo_t75501106_m3198896198_gshared
UVh:_Context_get_Current_m2853615040
v8c:__ZL30GeomMTDCallback_CapsuleCapsuleRN5physx6PxVec3ERfRKNS_10PxGeometryERKNS_11PxTransformES5_S8_
UUd:__ZN5physx7NpScene23forceDynamicTreeRebuildEbb
QTc:__ZN10ClipperLib7Clipper14IntersectEdgesEPNS_5TEdgeES2_RNS_8IntPointE
hbd:__ZL18intersectAnyVsMeshILi0EEbPKN5physx2Gu6SphereEPKNS1_7CapsuleEPKNS1_3BoxERKNS1_13RTreeMidphaseERKNS0_11PxTransformERKNS0_11PxMeshScaleEP14LimitedResults
Vxc:__Z21CleanupGlobalGUIStatev
eVj:_Type_IsContextfulImpl_m3693603908
ihj:_Enumerator_VerifyState_m2873941769_gshared
sqd:__ZN5physx14NpArticulation6wakeUpEv
mGb:__ZN22VertexDeclarationCache5ClearEv
k_g:_CspParameters__ctor_m3852972821
fZb:__ZN17PersistentManager12SetPathRemapERKN4core12basic_stringIcNS0_20StringStorageDefaultIcEEEES6_
eTb:__ZN6Camera24PrepareCullingParametersERK23CameraCullingParameters13RenderingPathR11CullResults
pTb:__Z20CullReflectionProbesR8JobFenceRK22SceneCullingParametersRK23ReflectionProbesContextPKjjPjS9_
vUa:__ZN19RuntimeSceneManager22EndIntegrateMainThreadEP10UnitySceneNS_11LoadingModeE
Emk:_Array_Sort_TisUICharInfo_t75501106_m3474449559_gshared
Q8h:_Buffer_BlockCopy_m2884209081
Ifb:__Z26Transfer_UnityEngineObjectI17RemapPPtrTransferLb0EEvRK29SerializationCommandArgumentsR31RuntimeSerializationCommandInfo
VQk:_QuickSearch_GetShiftDistance_m2542665852
epk:_Array_InternalArray__get_Item_TisCustomAttributeTypedArgument_t2723150157_m2639399822_gshared
m$i:_BigInteger_GenerateRandom_m3141592944
cib:__Z29Transfer_Blittable_ArrayFieldI24GenerateTypeTreeTransfer4AABBEvRT_R9ArrayInfoRK23StaticTransferFieldInfo
Huc:__ZN9Scripting11UnityEngine12StylePainter12CleanupProxyEv
fNh:_Interval_Contains_m1454846757
Qef:_Graphic_CacheCanvas_m1120385152
Qme:__ZN5physx20InternalTriangleMesh16allocateVerticesEj
QYd:__ZN5physx2Sc16InteractionScene18releaseConstraintsEb
Luc:__ZN9Scripting11UnityEngine15ScrollViewState12CleanupProxyEv
aJc:__ZN13b2PulleyJoint24SolveVelocityConstraintsERK12b2SolverData
$6d:__ZN5physx6shdfnd5ArrayINS_17PxcBroadPhasePairENS0_19ReflectionAllocatorIS2_EEE8recreateEj
R1l:_emscripten_GetProcAddress
Ka:invoke_fiiifii
m5c:__ZThn4_N16RayRTreeCallbackILi1ELb0EED1Ev
Xta:__ZN20SphericalHarmonicsL219AddDirectionalLightERKN4math7_float3ERKNS0_7_float4E
Ale:__ZN5physx13BigConvexDataD2Ev
P0:__Z26ScheduleJobForEachInternalR8JobFencePFvPvjES1_iPFvS1_E11JobPriority
sIb:__ZZ23InitPlayerLoopCallbacksvEN41PostLateUpdateProfilerEndFrameRegistrator7ForwardEv
d6b:__ZN9Scripting18RaiseMonoExceptionEPKcz
zmc:__ZN10GameObject17WillHandleMessageERK17MessageIdentifier
e1h:_StrongNamePublicKeyBlob_Equals_m3655422942
b2h:_SecurityContext__ctor_m1730177197
$bl:_RectTransformUtility_GetTransposed_m3952754222
pkc:__ZN9ShaderLab16FastPropertyName15InitBy28BitHashEj
Dsk:_List_1_System_Collections_IList_set_Item_m4182383657_gshared
Kpj:__Z96RuntimeInvoker_Void_t1185182177_Int32_t2950945753_Single_t1397266774_RuntimeObject_RuntimeObjectPFvvEPK10MethodInfoPvPS4_
vuh:_Enumerator_System_Collections_IDictionaryEnumerator_get_Key_m195047678_AdjustorThunk
Val:_Canvas_get_pixelPerfect_m333060872
SNa:__ZN17PackedFloatVector12UnpackFloatsEPfiiii
lzb:__ZN13GfxDeviceGLES21DestroyComputeProgramER12ObjectHandleI18ComputeProgram_TagPvE
uLa:__ZN17GenericDynamicVBOD2Ev
sQk:_PatternCompiler_EmitIfDefined_m2075050865
gMi:_Decimal_System_IConvertible_ToInt64_m1446427516_AdjustorThunk
k_:__ZN17UniqueIDGenerator16DestroyPureIndexEj
Zog:_NotImplementedException__ctor_m3095902440
oW:__ZL21AppendNestedClassName17ScriptingClassPtrRN4core17string_with_labelILi1EEE
n1b:__ZN14SafeBinaryRead21TransferSTLStyleArrayINSt3__26vectorIN9ShaderLab20SerializedSubProgram12UAVParameterENS1_9allocatorIS5_EEEEEEvRT_17TransferMetaFlags
tFl:__ZN6il2cpp8metadata13ArrayMetadata20SetupArrayInterfacesEP11Il2CppClassRKNS_2os12FastAutoLockE
P8k:_FontTextureRebuildCallback_Invoke_m3604797831
xK:__ZN24TextDOMTransferWriteBaseI9JSONWriteE12PushMetaFlagEi
VEd:__ZN5physx7NpCloth22removeCollisionCapsuleEj
XGf:__ZL59_PropertyBuilder_t1366136710_CustomAttributesCacheGeneratorP21CustomAttributesCache
Y3:__ZN6prcoreL26RemapGenericIntegerToFloatI17TexFormatARGB888815TexFormatRFloatEEvPKNS_9InnerInfoE
Zvk:_List_1__ctor_m808270210_gshared
dBl:__ZN6il2cpp2vm17TypeNameParseInfoD2Ev
gej:_PrimeHelper_ToPrime_m3704362632_gshared
DA:__ZN4FMOD7Channel7setModeEj
dhe:__ZN5physx18PxsSolverStartTask16articulationTaskEv
ORg:_Vector2_get_right_m1027081661
KFa:__ZNK8Renderer8GetLayerEv
Mkd:__ZN5physx6shdfnd4sortIPvNS0_4LessIS2_EENS0_19ReflectionAllocatorINS_2Cm5BlockIS2_Lj16EEEEEEEvPT_jRKT0_RKT1_j
JAi:_Stream_Close_m771352034
sta:__ZN12FlareManager11DeleteFlareEi
sNb:__ZNK6Camera20GetReplacementShaderEv
Ayd:__ZN18MultiQueryCallbackIN5physx12PxRaycastHitEE6invokeERfPKNS0_2Sq13PrunerPayloadEj
n$l:__ZNSt3__26__treeINS_12__value_typeINS_12basic_stringIcNS_11char_traitsIcEENS_9allocatorIcEEEEPFvvEEENS_19__map_value_compareIS7_SA_NS_4lessIS7_EELb1EEENS5_ISA_EEE4findIS7_EENS_15__tree_iteratorISA_PNS_11__tree_nodeISA_PvEEiEERKT_
kAa:__ZL23stbir__calculate_memoryP11stbir__info
pMh:_Interpreter_Close_m126356671
RZc:__ZN9Scripting11UnityEngine14SphereCollider12CleanupProxyEv
ZNj:_Latin1Encoding_GetMaxCharCount_m1720752733
HIh:_X509Chain_Reset_m1198177101
YMl:__ZN6il2cpp8metadata15GenericMetadata7InflateEPK19Il2CppGenericMethodPK20Il2CppGenericContext
$Fc:__ZN9Scripting11UnityEngine22ParticleCollisionEvent9InitProxyEv
wJa:__ZN13sorted_vectorIN4core12basic_stringIcNS0_20StringStorageDefaultIcEEEENSt3__24lessIS4_EE13stl_allocatorIS4_L18MemLabelIdentifier81ELi16EEE4findIS4_EENS5_11__wrap_iterIPS4_EERKT_
wlc:__Z13RegisterClassI30RuntimeInitializeOnLoadManagerEvPKc
kRk:_Parser_HandleExplicitNumericGroups_m1412234891
Gpk:_Array_InternalArray__get_Item_TisRaycastHit2D_t2279581989_m2440275162_gshared
htg:_CustomAttributeNamedArgument_Equals_m1414002036
sDc:__ZL26Transfer_SimpleNativeClassI8JSONRead10RectOffsetLb1EEvRK29SerializationCommandArgumentsR31RuntimeSerializationCommandInfo
EQe:__Z44CanvasRenderer_CUSTOM_INTERNAL_CALL_SetColorP12Il2CppObjectRK10ColorRGBAf
fpa:__Z26TransformVerticesInnerLoopILb1ELb1ELb1EEvPhRK10Matrix4x4fRK10Matrix3x3fjPKhiS8_ii25GfxTransformVerticesFlagsj
Ffj:_Enumerator_System_Collections_IEnumerator_Reset_m959124362_AdjustorThunk
Jtf:_CrossContextDelegate_Invoke_m3121381558
zMb:__ZNK20DynamicPropertySheet18FindQueuedPropertyEN9ShaderLab16FastPropertyNameEN19ShaderPropertySheet12PropertyTypeE
APi:_Enum_ToObject_m121831801
Bpe:__ZN5physx2Gu27computeBoundsAroundVerticesERNS_9PxBounds3EjPKNS_6PxVec3E
dhf:_Image_get_hasBorder_m3423344180
gAc:__Z18Transfer_BlittableI9JSONWriteLb1EsEvRK29SerializationCommandArgumentsR31RuntimeSerializationCommandInfo
ITc:__ZN10ClipperLib8JoinHorzEPNS_5OutPtES1_S1_S1_NS_8IntPointEb
uTd:__ZNK5physx7NpScene9getLimitsEv
MUe:__Z48UnityAnalyticsHandler_CUSTOM_SendCustomEventNameP12Il2CppObjectP12Il2CppString
Bcc:__ZN9Transform16SetLocalRotationERK11Quaternionf
a4d:__ZNK5physx2Gu29EPASupportMapPairRelativeImplINS0_9TriangleVENS0_8CapsuleVEE9doSupportERKNS_6shdfnd3aos5Vec3VERS7_SA_SA_
ouc:__Z15CleanupGUIStylePv
sJb:__ZN13RenderManager37RenderCamerasWithScriptableRenderLoopEi
U7d:__ZN3MBP12updateObjectEjRK5IAABB
RSj:_TimeSpan__ctor_m3689759052
Ond:__ZN5physx6shdfnd5ArrayINS_6PxVec3ENS0_19ReflectionAllocatorIS2_EEE15growAndPushBackERKS2_
K7j:_ReadOnlyCollection_1_System_Collections_Generic_IListU3CTU3E_Insert_m447088589_gshared
$Mj:__Z37RuntimeInvoker_Enumerator_t3123848928PFvvEPK10MethodInfoPvPS4_
DNl:__ZN6il2cpp2os19ReleaseSocketHandleEj
dH:__ZN11AudioModule16GetDSPSampleRateEv
rXd:__ZN5physx2Sc5Scene20fireTriggerCallbacksEv
H1g:_InputField_get_characterValidation_m4196664041
hUj:_Type_get_Attributes_m58528356
FEg:_SpriteBone_t303320096_marshal_pinvoke
o3d:__ZN5physx2Gu18GJKRelativeRayCastERNS0_8CapsuleVERNS0_4BoxVERKNS_6shdfnd3aos15PsMatTransformVERKNS6_6FloatVERKNS6_5Vec3VESF_RSA_RSD_SH_fb
h9h:_Array_GetUpperBound_m4018715963
UOk:_X509Store__ctor_m2736551756
Zec:__Z13RegisterClassI9TextAssetEvPKc
ZOl:__ZN6il2cpp2os5posix15PosixWaitObjectC2ENS2_4TypeE
xLb:__ZN6Camera21PostMultiCustomRenderENS_10RenderFlagEb
gjk:_Array_InternalArray__Insert_TisMonoResource_t4103430009_m1997865927_gshared
$_h:_SHA512Managed_HashFinal_m2173184560
OEb:__ZN12_GLOBAL__N_112UploadImagesEP7ApiGLESjji14GraphicsFormatPKhjS2_iiii16TextureUsageModePh
Bvb:__ZN23ShaderVariantCollection13WarmupShadersEv
Zfc:__ZN13ProduceHelperI9TransformLb0EE7ProduceE10MemLabelId18ObjectCreationMode
XV:__Z25GetCommonScriptingClassesv
dVa:__Z27scripting_gc_collect_unsafei
EQh:_MD5SHA1_HashFinal_m4115488658
iH:__ZN11AudioModule20SuspendVideoTexturesEv
UWi:_Array_InternalArray__ICollection_Add_TisKeyValuePair_2_t71524366_m3468275433_gshared
VNe:__ZN9Scripting11UnityEngine9CSSLayout6Native9InitProxyEv
zG:__Z59Register_UnityEngine_AudioExtensionManager_GetAudioListenerv
gPd:__ZN5physx13NpRigidStaticC2ERKNS_11PxTransformE
uhb:__Z26Transfer_UnityEngineObjectI24GenerateTypeTreeTransferLb0EEvRK29SerializationCommandArgumentsR31RuntimeSerializationCommandInfo
ZFi:_Convert_ToDouble_m278900635
eEe:_UNITY_FT_GlyphLoader_CheckPoints
D3g:_InputField_LineDownCharacterPosition_m2798128425
A3d:__ZN5physxL20PxcSweepBoxTrianglesERKNS_11PxsCCDShapeES2_RKNS_11PxTransformES5_S5_S5_fRNS_6PxVec3ES7_RNS_10PxcNpCacheERNS_18PxcNpThreadContextERKNS_2Cm23FastVertex2ShapeScalingERNS_2Gu9TriangleVEf
Tdd:__ZN5physx3Cct15ObstacleContextD0Ev
Ata:__ZN15SharedLightData7PrecalcEv
Gja:__ZN10Matrix4x4fmLERKS_
PLg:_Vector2__ctor_m3970636864
$ia:__ZN17TransformInternal12InitLocalTRSE15TransformAccessRKN4math7_float3ERKNS1_7_float4ES4_
Xkb:__Z35Transfer_Blittable_FixedBufferFieldI18StreamedBinaryReadILb1EEsEvRK29SerializationCommandArgumentsR31RuntimeSerializationCommandInfo
XPi:_Environment_InternalGetFolderPath_m468390978
C0a:__ZN15ArchiveReadFileD0Ev
zXe:__ZN11UnityEngine15PlatformWrapper18GetOperatingSystemEv
M2h:_SecurityFrame_ToString_m339310712
kYd:__ZN5physx3Scb9Aggregate9syncStateERNS0_5SceneE
Eni:_Calendar__ctor_m106290643
uef:_FontUpdateTracker_RebuildForFont_m3134452007
$pg:_NumberFormatter_FormatDecimal_m1921932981
Url:__ZN6il2cpp6icalls8mscorlib6System8MonoType19GetGenericArgumentsEP20Il2CppReflectionType
e8e:_TouchInputModule_ProcessTouchPress_m3504077560
Fch:_Selectable_IsInteractable_m2611421038
KDe:_FT_MSB
Hem:_emscripten_glReadPixels__wrapper
B$l:__ZN6il2cpp6icalls8mscorlib4Mono8Security12Cryptography18KeyPairPersistence10_CanSecureEP12Il2CppString
RQi:_Array_InternalArray__ICollection_Contains_TisParameterModifier_t1461694466_m1000453323_gshared
Wtd:__ZN5physx7NpActor17resolveReferencesERNS_24PxDeserializationContextE
$re:__ZN9Rigidbody15InitializeClassEv
p6i:_Dictionary_2_System_Collections_ICollection_CopyTo_m4047192178_gshared
ztl:__ZN6il2cpp2os4File11GetFileStatERKNSt3__212basic_stringIcNS2_11char_traitsIcEENS2_9allocatorIcEEEEPNS0_8FileStatEPi
mUe:__ZN14UnityAnalytics22HandleCustomEventLimitERN11UnityEngine9Analytics15UserCustomEventE
Yfc:__ZN9TransformC2E10MemLabelId18ObjectCreationMode
rxb:__ZN13GfxDeviceGLES14SetRasterStateEPK17DeviceRasterState
Wrg:_Assembly_ToString_m2053237013
RGg:_Vector4_Equals_m1779210055
ggd:__ZN5physx6shdfnd8internal8HashBaseINS0_4PairIKPKNS_2Sc8ShapeSimENS4_10NPhaseCore16ClothListElementEEES7_NS0_4HashIS7_EENS1_11HashMapBaseIS7_SA_SD_NS0_9AllocatorEE6GetKeyESF_Lb1EE5eraseERS8_
VFe:_otv_Coverage_get_count
Mnf:_ParameterModifier_t1461694466_marshal_pinvoke_back
Zda:__ZN14SafeBinaryRead11EndTransferEv
ecb:__ZN14SafeBinaryRead8TransferI8MonoPPtrEEvRT_PKc17TransferMetaFlags
qPi:_Enum_System_IConvertible_ToUInt16_m4216751959
uFb:__ZN21UniformBufferTFMethod13MapBoneBufferEj
Zik:_Array_InternalArray__Insert_TisInt32_t2950945753_m4073217122_gshared
dZh:_RNGCryptoServiceProvider_RngClose_m3915778345
vCi:_SortedList_Remove_m2784369438
YCa:__ZN4crnd12crn_unpacker10unpack_dxnEPPhjjj
IW:__ZN14SerializedFileD2Ev
svc:__Z30Event_Get_Custom_PropModifiersP12Il2CppObject
Zld:__ZN5physx6shdfnd5ArrayIPvNS0_16AlignedAllocatorILj64ENS0_9AllocatorEEEE15growAndPushBackERKS2_
eal:_Physics2D_Raycast_m2858866636
i8g:_RawImage_get_mainTexture_m2396337033
Ltl:__ZN6il2cpp2vm10Reflection17GetAssemblyObjectEPK14Il2CppAssembly
Rpb:__ZNSt3__218__stable_sort_moveIRN10vector_mapI17ScriptingClassPtrPKN5Unity4TypeENS_4lessIS2_EENS_9allocatorINS_4pairIS2_S6_EEEEE13value_compareENS_11__wrap_iterIPSB_EEEEvT0_SJ_T_NS_15iterator_traitsISJ_E15difference_typeEPNSM_10value_typeE
c0b:__ZN6Shader21AwakeFromLoadThreadedEv
g3:__ZN6prcoreL17RemapGenericFloatI17TexFormatRGBFloat17TexFormatRGBAHalfEEvPKNS_9InnerInfoE
h$i:_BigInteger__ctor_m3991350270
Lbc:__Z58Register_UnityEngine_PlayerConnectionInternal_PollInternalv
BRg:_Vector2_GetHashCode_m3916089713_AdjustorThunk
fte:__ZN5physx24PxcContactBoxHeightFieldERKNS_2Gu13GeometryUnionES3_RKNS_11PxTransformES6_RKfRNS_10PxcNpCacheERNS0_13ContactBufferE
Q0l:__ZN6il2cpp2os9SemaphoreC2Eii
gcb:__ZNSt3__26vectorI8MonoPPtr13stl_allocatorIS1_L18MemLabelIdentifier1ELi16EEE8__appendEj
_Lb:__ZN14qsort_internal30FindAndMovePivotToLastPositionIP17RODataReplacementi19ROSorterReplacementEEvT_S4_T0_T1_
FFb:__ZN15UniformTFMethod20IsBoneCountSupportedEi
K8d:__ZNK5physx23AggregateAABBUpdateTask7getNameEv
xYj:_UnauthorizedAccessException__ctor_m246605039
r8l:dynCall_viidi
Zwh:_KeyCollection__ctor_m1356492051_gshared
ET:__ZN24ScriptingMethodFiltering17FilterOnSignatureENS_18MethodSearchFilterE
Fke:__ZN5physx13NpClothFabric16scaleRestlengthsEf
gUe:__ZNSt3__26__treeINS_12__value_typeIN4core12basic_stringIcNS2_20StringStorageDefaultIcEEEEN11UnityEngine9Analytics15UserCustomEvent11CustomValueEEENS_19__map_value_compareIS6_SB_NS_4lessIS6_EELb1EEE13stl_allocatorISB_L18MemLabelIdentifier6ELi16EEE7destroyEPNS_11__tree_nodeISB_PvEE
gDe:_cf2_arrstack_finalize
JNk:_X509Certificate_VerifySignature_m3538124832
NAi:_StreamAsyncResult_SetComplete_m1102187093
Xhc:__ZN13MonoBehaviour19HandleNotificationsEPviR11MessageData
MMg:_RectOffset_Init_m2028508611
PQd:__ZN5physx6shdfnd5ArrayIPNS_2Sc17ParticleSystemSimENS0_19ReflectionAllocatorIS4_EEE8recreateEj
Wyk:_List_1_System_Collections_IList_Remove_m4226673807_gshared
VRh:_Alert__ctor_m3135936936
avi:_Int64_System_IConvertible_ToInt32_m772105781
DKk:_TlsClientSettings__ctor_m3220697265
Mxl:__ZNK15dense_hashtableINSt3__24pairIK10KeyWrapperINS1_IPK9EventInfoP11Il2CppClassEEEjEES9_17ReflectionMapHashIS8_EN14dense_hash_mapIS9_jSD_NS9_14EqualsComparerINS0_8equal_toIS8_EEEENS0_9allocatorISB_EEE9SelectKeyESI_SK_E23find_position_with_hashERSA_j
_2l:_copysignl
R1e:__ZL45__ManagedRegistrationHelperFunction_SubsystemPv
F5i:_Dictionary_2_make_pair_m2250450206_gshared
ONj:_ForwardingDecoder_GetChars_m4228908854
KMh:_InterpreterFactory_get_GroupCount_m2226373271
_am:b53
Xam:b50
Yam:b51
Fce:__ZN5physx9PxTaskMgrD0Ev
ibm:b57
$am:b54
cbm:b55
Qt:__ZL45__ManagedRegistrationHelperFunction_HumanBonePv
b_i:_SimpleCollator_IsSafe_m310268646
bai:_X509Certificate_get_RawData_m2387471414
cdm:_glDetachShader__wrapper
zei:_ArrayTypeMismatchException__ctor_m3375008173
Gyh:_Transform_1_BeginInvoke_m1757796657_gshared
Aaa:__ZN9Scripting11UnityEngine7Hash12812CleanupProxyEv
Jod:__ZN5physx3Scb5Scene13addRigidNoSimINS0_11RigidStaticELb0ELb1EEEvRT_RNS0_13ObjectTrackerE
Q3a:__ZN9GfxDevice25SetShaderPropertiesSharedERK19ShaderPropertySheet
w_e:__ZN11UnityEngine7Connect20RemoteConfigSettingsC2ERKN4core12basic_stringIcNS2_20StringStorageDefaultIcEEEEPFvPS1_E18ScriptingObjectPtr
S8e:_BaseMeshEffect_get_graphic_m1852367505
hli:_CaseInsensitiveHashCodeProvider_GetHashCode_m2168170016
i7a:__ZN18AsyncUploadManager19AsyncResourceUploadER9GfxDeviceii9TextureID
Gba:__ZN9Scripting11UnityEngine12Experimental18GlobalIllumination11LightDataGI12CleanupProxyEv
Shc:__ZL25InitializeDefaultMaterialv
vRe:__Z53Register_UnityEngine_CanvasRenderer_get_materialCountv
Thf:_PropertyBuilder_GetCustomAttributes_m3798356764
Qnf:_PropertyInfo_get_MemberType_m2794839864
F_k:_EventTrigger_RemoveRule_m1596811726
qth:_Comparer_1_System_Collections_IComparer_Compare_m4179495191_gshared
oWa:__ZN17PersistentManager12UnloadStreamERKN4core12basic_stringIcNS0_20StringStorageDefaultIcEEEEb
B1a:__ZN10MemoryFile4ReadEyyPvPy
Hjk:_Array_InternalArray__Insert_TisUICharInfo_t75501106_m2924156520_gshared
KWi:_MonoProperty_GetterAdapterFrame_TisRuntimeObject_TisRuntimeObject_m458718082_gshared
$lk:_Array_Sort_TisInt32_t2950945753_TisInt32_t2950945753_m3955828611_gshared
iDl:_il2cpp_unity_liveness_calculation_from_statics
qGj:__Z70RuntimeInvoker_Boolean_t97287965_CharU26_t1697032762_Int16_t2552820387PFvvEPK10MethodInfoPvPS4_
Gqh:_InternalEnumerator_1_System_Collections_IEnumerator_get_Current_m2649471526_gshared
wGa:__ZN8Renderer8TransferI17RemapPPtrTransferEEvRT_
l4f:__ZL55SkeletonBone_t4134054672_CustomAttributesCacheGeneratorP21CustomAttributesCache
HAa:__ZN6prcore16BlitFuncInfoSIMD19BlitFuncExecuteSIMDEPKNS_9InnerInfoEPKv
R$e:__ZN20UnityWebRequestProtoI24UnityWebRequestTransport16AtomicRefCounter14RedirectHelper14ResponseHelper15DownloadHandler13UploadHandler18CertificateHandler12HeaderHelper14AsyncOperationE9DoRequestEv
ruh:_Enumerator_System_Collections_IDictionaryEnumerator_get_Entry_m522483686_gshared
e3i:_PrivateKeyInfo_RemoveLeadingZero_m3921889925
yRj:_Thread_get_CurrentContext_m1695017876
lPc:__ZN7b2World20ClearIslandFlagsTaskEv
bGd:__ZNK5physx2Sc9ClothCore16getCollisionDataEPNS_22PxClothCollisionSphereEPjPNS_21PxClothCollisionPlaneES4_PNS_24PxClothCollisionTriangleE
OJc:__ZN16PhysicsManager2D19AddRigidbodyUpdatesEP11Rigidbody2D
AWb:__Z24LookRotationToQuaternionRK8Vector3fS1_P11Quaternionf
yWb:__ZN16ReflectionProbes9GetCameraEv
kRb:__Z23CalculateLightOcclusionRK17LightProbeContextRK29LightProbeSamplingCoordinatesi
gKd:__ZNK5physx2Sc18ParticleSystemCore20getMaxMotionDistanceEv
tPe:__ZN2UI6Canvas17SetSortingLayerIDEi
WOl:__ZN6il2cpp2vm11MethodStack23CleanupForCurrentThreadEv
IIi:_Convert_ToUInt64_m388601487
Gra:__ZN20TierGraphicsSettings8TransferI24GenerateTypeTreeTransferEEvRT_
Hml:__ZN15dense_hashtableINSt3__24pairIK10KeyWrapperIN6il2cpp5utils13dynamic_arrayIPK10Il2CppTypeLj4EEEEPFvvEEESA_NS3_8metadata19Il2CppSignatureHashEN14dense_hash_mapISA_SD_SG_NSA_14EqualsComparerINSF_22Il2CppSignatureCompareEEENS0_9allocatorISE_EEE9SelectKeyESK_SM_E16reset_thresholdsEv
mHg:_Mesh_get_vertices_m3585684815
SPg:_TouchScreenKeyboard_get_text_m1797464608
Cya:__ZN18UnityPropertySheet8TransferI19StreamedBinaryWriteILb0EEEEvRT_
mu:__ZN9Scripting11UnityEngine27AnimatorControllerParameter9InitProxyEv
N1:__ZNSt3__26__treeINS_12__value_typeIiN11TypeManager18TypeCallbackStructEEENS_19__map_value_compareIiS4_NS_4lessIiEELb1EEENS_9allocatorIS4_EEE7destroyEPNS_11__tree_nodeIS4_PvEE
gna:__ZN9ShaderLab32FindBestMatchingShaderKeywordSetERK16ShaderKeywordSetRK13dynamic_arrayIS0_Lj0EEPS5_
mQg:_Transform_INTERNAL_set_position_m3627767375
qUc:__ZN16PhysicsManager2D42RegisterTransformChangeInterestForColliderEP10Collider2D
uWe:__ZN11UnityEngine7Connect17XRDeviceInfoEventD0Ev
aIf:__ZL60SoapTypeAttribute_t1750930817_CustomAttributesCacheGeneratorP21CustomAttributesCache
Bsg:_Binder_ConvertArgs_m2124461494
F$b:__ZN21UnityDefaultAllocatorI17LowLevelAllocatorE10DeallocateEPv
lem:b86
zma:__ZN20IntermediateRenderer15AddAsRenderNodeER15RenderNodeQueueRK20DeprecatedSourceData
jw:__ZN15PackedIntVector8TransferI14SafeBinaryReadEEvRT_
QRg:_Vector3__ctor_m3353183577_AdjustorThunk
Sih:_InternalEnumerator_1_System_Collections_IEnumerator_get_Current_m1514266661_gshared
$rd:__ZNK5physx19NpArticulationJoint20getTangentialDampingEv
DQh:_MD5SHA1_Initialize_m675470944
HXi:_Array_InternalArray__ICollection_Add_TisKeyframe_t4206410242_m442111799_gshared
zwk:_List_1_CheckMatch_m3263549496_gshared
RKg:_PropertyNameUtils_PropertyNameFromString_Injected_m1259736140
kF:__ZN13AudioListener8DoUpdateEv
I7c:__ZN5physx3Cct10Controller22setUpDirectionInternalERKNS_6PxVec3E
syc:__ZN5Unity9rapidjson13GenericReaderINS0_4UTF8IcEES3_13JSONAllocatorE9ParseTrueILj1ENS0_25GenericInsituStringStreamIS3_EENS0_15GenericDocumentIS3_S4_S4_EEEEvRT0_RT1_
wmg:__Z13bankers_roundd
IQa:__ZN14SafeBinaryRead8TransferI5RectTIfEEEvRT_PKc17TransferMetaFlags
Wi:_emscripten_glGenFramebuffers
I1:__ZN17BaseObjectManager16StaticInitializeEPv
A9:__ZN9Scripting11UnityEngine9Profiling8Profiler12CleanupProxyEv
OAc:__Z18Transfer_BlittableI9JSONWriteLb0EyEvRK29SerializationCommandArgumentsR31RuntimeSerializationCommandInfo
awa:__ZN13RenderTexture15ThreadedCleanupEv
bIh:_X509BasicConstraintsExtension__ctor_m3721156175
DBa:__ZN12CubemapArray23VirtualRedirectTransferER14SafeBinaryRead
PGd:__ZNK5physx2Sc9ClothCore23getNbCollisionTrianglesEv
gxi:_Path_GetFileName_m1354558116
Fel:_Physics_Raycast_m4145022031
_Cd:__ZN5physx7NpShape16setFlagsInternalENS_7PxFlagsINS_11PxShapeFlag4EnumEhEE
$bm:_emscripten_glUniform3i__wrapper
y_i:_SimpleCollator_IsPrefix_m3581642267
uMg:_Rect_Contains_m1232228501_AdjustorThunk
p8b:__Z43RectTransform_CUSTOM_INTERNAL_set_sizeDeltaP12Il2CppObjectRK13Vector2fIcall
e6c:__ZN5physx2Gu30distanceSegmentTriangleSquaredERKNS_6shdfnd3aos5Vec3VES5_S5_S5_S5_RS3_S6_
jvi:_Int64_System_IConvertible_ToType_m3223988955_AdjustorThunk
MKl:__ZN15dense_hashtableINSt3__24pairIK10KeyWrapperINS1_IPKcS4_EEEiEES6_24NamespaceAndNamePairHashN14dense_hash_mapIS6_iS9_NS6_14EqualsComparerI26NamespaceAndNamePairEqualsEENS0_9allocatorIS8_EEE9SelectKeyESD_SF_E6insertERKS8_
Nfa:__ZN24GenerateTypeTreeTransfer18BeginArrayTransferEPKcS1_Ri17TransferMetaFlags
Epk:_Array_InternalArray__get_Item_TisPlayableBinding_t354260709_m3837494573_gshared
Vm:___syscall51
T5h:_String_CreateString_m4016935005
HPk:_MatchCollection_get_FullList_m1829231879
k1e:__ZN9Scripting11UnityEngine5Video11VideoPlayer9InitProxyEv
pdi:_Array_GetValue_m2528415604
FNg:_Transform_INTERNAL_CALL_TransformPoint_m4261269221
usi:_Guid_AppendShort_m791023083
Vwk:_List_1__ctor_m4212503576_gshared
KKe:_ft_var_get_item_delta
Uki:_BitArrayEnumerator_MoveNext_m3806676766
fEe:_cff_builder_add_point1
VLl:__ZN6il2cpp2vm5Image21GetCachedResourceDataEPK11Il2CppImageRKNSt3__212basic_stringIcNS5_11char_traitsIcEENS5_9allocatorIcEEEE
Qab:__Z18Transfer_BlittableI14SafeBinaryReadLb0E10ColorRGBAfEvRK29SerializationCommandArgumentsR31RuntimeSerializationCommandInfo
Ga:invoke_iiiiiiiiii
oG:__ZN11AudioSource25GetNumExtensionPropertiesEv
VYi:_Array_InternalArray__ICollection_CopyTo_TisUILineInfo_t4195266810_m104406798_gshared
Efc:__ZZL31RegisterRectTransformPropertiesR22GenericPropertyBindingEN32Wrapper_RectTransformAnchorMaxx013GetFloatValueEPv
XBg:_Debug_LogErrorFormat_m3558239521
Mef:_Graphic_get_canvas_m3320066409
a3g:_InputField_ActivateInputFieldInternal_m3360893886
QD:__ZN4FMOD7SystemI11createSoundEPKcjP22FMOD_CREATESOUNDEXINFOPPNS_5SoundE
N_b:__ZN10FileSystem19SetCurrentDirectoryERKN4core12basic_stringIcNS0_20StringStorageDefaultIcEEEE
eBg:_Component_get_gameObject_m442555142
pW:__ZN16ScriptingManager24NotifyScriptCacheReleaseEi
dgc:__ZN23TransformChangeDispatch24RemovePermanentInterestsE15TransformAccessPKN5Unity4TypeE
Xrc:__Z47Register_UnityEngine_Coroutine_ReleaseCoroutinev
Hod:__ZN10ScSceneFnsIN5physx3Scb11RigidStaticEE6insertERNS0_2Sc5SceneERS2_
bz:__ZN15AudioReverbZone13SetFMODValuesEv
PU:__ZN14SafeBinaryRead4InitERK16TypeTreeIteratorxx24TransferInstructionFlags10MemLabelId
tQ:__ZL19StaticDestroyShaderPv
Fe:_glRenderbufferStorageMultisample
EEh:_DefaultCertificatePolicy_CheckValidationResult_m3811448269
lvl:__ZNK15dense_hashtableINSt3__24pairIK10KeyWrapperIPK10Il2CppTypeEjEES6_N6il2cpp8metadata14Il2CppTypeHashEN14dense_hash_mapIS6_jSB_NS6_14EqualsComparerINSA_26Il2CppTypeEqualityComparerEEENS0_9allocatorIS8_EEE9SelectKeyESF_SH_E10test_emptyEj
COb:__ZN22MotionVectorRenderLoopD2Ev
Ead:__ZN5physx2Gu20sweepCCTBoxTrianglesEjPKNS_10PxTriangleEbRKNS_13PxBoxGeometryERKNS_11PxTransformERKNS_6PxVec3EfRSA_SD_RfRjPKjfNS_7PxFlagsINS_9PxHitFlag4EnumEtEE
g9c:__ZN5physx2Gu15OBBTriangleTestC2ERKNS0_3BoxE
hRc:__ZNK6b2Body13ShouldCollideEPKS_
Y3f:__ZL76AnimatorTransitionInfo_t2534804151_CustomAttributesCacheGenerator_m_FullPathP21CustomAttributesCache
cad:__ZN5physx2Gu21computeMTD_SphereMeshERNS_6PxVec3ERfRKNS0_6SphereERKNS_22PxTriangleMeshGeometryERKNS_11PxTransformE
OWi:_Array_InternalArray__ICollection_Add_TisClientCertificateType_t1004704908_m2622721177_gshared
DRc:__ZNK21b2FindNewContactsTask13GetRangeCountEv
sw:__ZN17PackedFloatVector8TransferI18StreamedBinaryReadILb0EEEEvRT_
sgd:__ZN5physx2Sc10NPhaseCore15fetchFilterPairEPv
hqe:__ZN5physx12SubSortQuick5sort4EPjjRNS_6shdfnd5ArrayINS_11RTreeNodeNQENS2_19ReflectionAllocatorIS4_EEEERjRNS_10PxBounds3VEj
Xtc:__Z37Register_UnityEngine_Screen_get_widthv
Tdl:_UnityAnalyticsHandler_SendCustomEvent_m1223269116
Zmd:__ZN5physx6shdfnd5ArrayIPNS_2Sc8BodyCoreENS0_19ReflectionAllocatorIS4_EEE15growAndPushBackERKS4_
WUk:_Uri_get_Authority_m3816772302
X6b:__ZN22BlockMemoryCacheWriter11GetPathNameEv
DOh:_BigInteger_op_Division_m3713793389
LPg:_Touch_get_position_m3109777936
Umf:_ParameterInfo__ctor_m3269320476
e$c:__ZN14PhysicsManager23VirtualRedirectTransferER14SafeBinaryRead
cLh:_X509SubjectKeyIdentifierExtension_FromHexChars_m3244835916
x3h:_Single_CompareTo_m2785801815
LXj:_UInt64_System_IConvertible_ToInt32_m949522652_AdjustorThunk
sMk:_PKCS12_MAC_m3355614022
ewd:__ZN5physx7NpActor14onActorReleaseEPNS_7PxActorE
vdd:__ZN5physx3Cct26CharacterControllerManager19computeInteractionsEfPNS_26PxControllerFilterCallbackE
fq:stackAlloc
pld:__ZN5physx6shdfnd8PoolBaseINS_2Cm5BlockIhLj256EEENS0_19ReflectionAllocatorIS4_EEE12allocateSlabEv
N1a:__ZN25SingleBlockMemoryFileData4LockEPPv
Nfm:_glProgramParameteri__wrapper
Cac:__Z32RectOffset_Get_Custom_PropBottomP12Il2CppObject
TBg:_Debug_LogError_m2850623458
e5k:__ZL24UnresolvedVirtualCall_79P12Il2CppObjectPK10MethodInfo
r0b:__ZNSt3__26__treeINS_12__value_typeIN4core12basic_stringIcNS2_20StringStorageDefaultIcEEEE4PPtrI7TextureEEENS_19__map_value_compareIS6_SA_NS_4lessIS6_EELb1EEENS_9allocatorISA_EEE7destroyEPNS_11__tree_nodeISA_PvEE
svj:__Z69RuntimeInvoker_UInt64_t4134040092_Int32_t2950945753_SByte_t1669577662PFvvEPK10MethodInfoPvPS4_
u3l:_stat
nna:__ZN9ShaderLab10SubProgram7CompileEv
Mhf:_PropertyBuilder_get_CanRead_m3783190070
OW:__ZN14SerializedFile14SerializedTypeD2Ev
tba:__ZN9Scripting11UnityEngine12Experimental9Playables21TexturePlayableOutput9InitProxyEv
uTh:_CipherSuiteCollection_System_Collections_IList_get_Item_m2175128671
JJc:__ZN15b2DistanceJoint23InitVelocityConstraintsERK12b2SolverData
Yja:__ZN6CameraD2Ev
eae:__ZN5physx2Gu21findUniqueConvexEdgesEjPNS0_10ConvexEdgeEjPKNS0_15HullPolygonDataEPKh
usc:__Z50Register_UnityEngine_Camera_get_pixelRect_Injectedv
bPd:__ZN5physx20NpRigidActorTemplateINS_14PxRigidDynamicEED0Ev
ra:invoke_iiiiiiiiiiii
LJi:_DateTime_System_IConvertible_ToType_m1242864300_AdjustorThunk
S4d:__ZN5physx43solveContactCoulombPreBlock_WriteBackStaticEPKNS_23PxcSolverConstraintDescEjRNS_16PxcSolverContextEPNS_25PxcThresholdStreamElementEjPi
Qph:_InternalEnumerator_1_get_Current_m2446410893_AdjustorThunk
Roa:__Z29CalculateDefaultChannelsToAdd17ShaderChannelMaskS_
gei:_Array_Sort_m870838517
nld:__ZN5physx2Sc5Scene23allocateConstraintBlockEj
Fbl:_CanvasRenderer_SetMaterial_m633746949
Lrj:__Z99RuntimeInvoker_RuntimeObject_RuntimeObject_RuntimeObject_StreamingContext_t3711869237_RuntimeObjectPFvvEPK10MethodInfoPvPS4_
kD:__ZN10AudioMixer12RebindOutputEv
hFl:__ZNK15dense_hashtableINSt3__24pairIK10KeyWrapperIP11Il2CppClassES4_EES5_N6il2cpp8metadata16SZArrayClassHashEN14dense_hash_mapIS5_S4_SA_NS5_14EqualsComparerINS9_19SZArrayClassCompareEEENS0_9allocatorIS7_EEE9SelectKeyESE_SG_E5beginEv
iah:_Selectable_get_navigation_m3508916916
e6g:_LayoutRebuilder_PerformLayoutControl_m4241054021
Mhl:__ZN6il2cpp2vm17SetupFieldsLockedEP11Il2CppClassRKNS_2os12FastAutoLockE
ayg:_AnimationCurve__ctor_m1565662948
nDb:__ZN18GlslGpuProgramGLES13SwitchProgramEj
Dmd:__ZN5physx2Sc5Actor15onElementDetachERNS0_7ElementE
cHb:__ZN20ArchiveStorageReaderC2E10MemLabelId
amj:__Z132RuntimeInvoker_Int32_t2950945753_RuntimeObject_Int32_t2950945753_Int32_t2950945753_RuntimeObject_Int32_t2950945753_Int32_t2950945753PFvvEPK10MethodInfoPvPS4_
v2a:__ZN16MemoryFileSystem4NameEv
Nqc:__Z13SetCopyBufferRKN4core12basic_stringIcNS_20StringStorageDefaultIcEEEE
o7c:__ZN5physx3Cct13BoxController13setHalfHeightEf
hYd:__ZN5physx3Scb13ObjectTracker5clearEv
lai:_X509CertificateEnumerator_System_Collections_IEnumerator_get_Current_m418791713
yTe:__ZN14UnityAnalyticsD2Ev
i9b:__Z42ScriptingGetComponentsOfTypeFromGameObjectRK26ScriptingGetComponentsArgs
BN:__ZN19CloudServiceHandler11FlushEventsEv
C8c:__ZL23GeomMTDCallback_BoxMeshRN5physx6PxVec3ERfRKNS_10PxGeometryERKNS_11PxTransformES5_S8_
c_f:__ZL73ArgumentCache_t2187958399_CustomAttributesCacheGenerator_m_ObjectArgumentP21CustomAttributesCache
X3f:__ZL65AnimatorTransitionInfo_t2534804151_CustomAttributesCacheGeneratorP21CustomAttributesCache
hnk:_Array_swap_TisRaycastResult_t3360306849_TisRaycastResult_t3360306849_m3400922624_gshared
YZc:__ZN9Scripting11UnityEngine21ControllerColliderHit9InitProxyEv
j_g:_CspParameters__ctor_m2741097571
WEd:__ZNK5physx7NpCloth22getNbCollisionCapsulesEv
Zya:__ZNSt3__27__sort4IRPFbRKNS_4pairIN9ShaderLab16FastPropertyNameEN18UnityPropertySheet11UnityTexEnvEEES8_EPS6_EEjT0_SD_SD_SD_T_
eDe:_cf2_hintmap_build
tPg:_Texture_get_width_m888163864
Y8b:__Z11StringToIntRKN4core16basic_string_refIcEE
bMe:_Line_Up
k8c:__ZL28GeomMTDCallback_SphereSphereRN5physx6PxVec3ERfRKNS_10PxGeometryERKNS_11PxTransformES5_S8_
Me:_emscripten_glBufferSubData
u5h:_String_ReplaceUnchecked_m1381393810
Upd:__ZN5physx6shdfnd5ArrayIPvNS0_15InlineAllocatorILj256ENS0_19ReflectionAllocatorINS_7NpShapeEEEEEE15growAndPushBackERKS2_
Sta:__ZN11HaloManager10UpdateHaloEiR9Transform11ColorRGBA32fjP6Object
J4:__ZN6prcoreL12RemapGenericI15TexFormatRGB88817TexFormatARGB8888EEvPKNS_9InnerInfoE
$q:__Z17CalculateGlobalRS23TransformAccessReadOnly
LMe:__Z56Register_UnityEngine_TextGenerator_GetCharactersInternalv
_Zl:__ZNSt3__210__list_impIPN6il2cpp5utils10MemoryPool6RegionENS_9allocatorIS5_EEE5clearEv
xsb:__ZNK25PathNamePersistentManager24PathIDToPathNameInternalEi
Zoh:_InternalEnumerator_1_get_Current_m1523142935_gshared
Fqd:__ZNK5physx14NpArticulation22computeImpulseResponseEPNS_18PxArticulationLinkERNS_6PxVec3ES4_RKNS_24PxArticulationDriveCacheERKS3_S9_
Uhd:__ZN5physx2Sc19ContactReportBuffer23reallocateNotThreadSafeEjRjjj
q_a:__ZNK12HandlerChain7ToLocalERK13FileEntryDataRN4core12basic_stringIcNS3_20StringStorageDefaultIcEEEERyS9_
zkd:__ZN5physx2Sc5Actor19registerInteractionEPNS0_11InteractionE
kXa:__ZN22MemoryCacherReadBlocks14LockCacheBlockEjPPhS1_
TAl:__ZN6il2cpp2vm14TypeNameParser17ParseAssemblyNameEv
bLa:__ZNK9GfxDevice26GetSinglePassStereoEyeMaskEv
BTj:_TimeSpan_FromHours_m1109641064
fCg:_DebugLogHandler_Internal_Log_m4175774469
ncg:__ZL54EventSystem_t1003666588_CustomAttributesCacheGeneratorP21CustomAttributesCache
NTl:__ZN4utf88internal15increase_safelyIPKcEENS0_9utf_errorERT_S5_
iii:_CharEnumerator_get_Current_m525608209
Ewe:__ZN13PhysicsModule19CreateNxHeightFieldEPv
J3e:__Z21ArrayElementTypeCheckP11Il2CppArrayPv
Rem:_emscripten_glTexSubImage2D__wrapper
CHa:__ZN18StreamedBinaryReadILb0EE21TransferSTLStyleArrayI13dynamic_arrayI33EnlightenTerrainChunksInformationLj0EEEEvRT_17TransferMetaFlags
dVc:__ZN17PhysicsMaterial2D16CheckConsistencyEv
ACf:__ZL69DebuggerBrowsableAttribute_t1026244177_CustomAttributesCacheGeneratorP21CustomAttributesCache
g7:__ZL48__ManagedRegistrationHelperFunction_LightmapDataPv
k5l:__ZNSt3__212basic_stringIcNS_11char_traitsIcEENS_9allocatorIcEEE6appendEjc
Hpb:__Z13TransferFieldI18StreamedBinaryReadILb0EELb0E16Converter_StringEvRK23StaticTransferFieldInfoR31RuntimeSerializationCommandInfoRT1_
nQe:__Z42Register_UnityEngine_Canvas_get_rootCanvasv
dcb:__Z14resize_trimmedINSt3__26vectorI8MonoPPtr13stl_allocatorIS2_L18MemLabelIdentifier1ELi16EEEEEvRT_j
uf:_TTF_RenderText_Solid
wqk:_List_1__ctor_m3947764094_gshared
PYc:__Z56Register_UnityEngine_Physics2D_Raycast_Internal_Injectedv
NTk:_Parser_IsIgnorePatternWhitespace_m2107132682
jUe:__ZN14UnityAnalytics15Internal_CreateE18ScriptingObjectPtr
aFh:_HttpRequestCreator_Create_m400548686
x_e:__ZN11UnityEngine7Connect16PersistentValuesC2Ev
y8j:_ReadOnlyCollection_1_System_Collections_IList_Insert_m134149130_gshared
sAc:__Z18Transfer_BlittableI9JSONWriteLb0E5RectTIiEEvRK29SerializationCommandArgumentsR31RuntimeSerializationCommandInfo
l$i:_BigInteger_get_Rng_m4216817480
JRi:_Array_InternalArray__ICollection_Remove_TisDateTime_t3738529785_m2250893026_gshared
sDb:__Z15IsIEEE754Format14GraphicsFormat
jX:__ZL12CreateStringPjR13dynamic_arrayIcLj0EEPKc
Nfb:__Z19TransferField_ArrayI17RemapPPtrTransfer27Converter_UnityEngineObjectEvRK23StaticTransferFieldInfoR31RuntimeSerializationCommandInfoRT0_
Tli:_KeyNotFoundException__ctor_m541499307
hTi:_SetPropertyUtility_SetStruct_TisSpriteState_t1362986479_m665096788_gshared
wmj:__Z61RuntimeInvoker_Single_t1397266774_RuntimeObject_RuntimeObjectPFvvEPK10MethodInfoPvPS4_
PRi:_Array_InternalArray__ICollection_Remove_TisIntPtr_t_m3807208150_gshared
c$c:__ZN14PhysicsManager23VirtualRedirectTransferER17RemapPPtrTransfer
Wlh:_InternalEnumerator_1_get_Current_m2316281569_AdjustorThunk
WEi:_DateTime__ctor_m1095105629
syb:__ZN13GfxDeviceGLES15UploadTexture2DE9TextureID16TextureDimensionPKhiii14GraphicsFormati18TextureUploadFlags16TextureUsageMode
CVk:_Event_Cleanup_m2477919477
bC:__ZN4FMOD6System9createDSPEP20FMOD_DSP_DESCRIPTIONPPNS_3DSPE
lMf:__ZL87Thread_t2300836069_CustomAttributesCacheGenerator_Thread_GetCompressedStack_m2923422412P21CustomAttributesCache
FYh:_SslClientStream_get_ClientCertificates_m998716871
Sf:_JS_SystemInfo_HasCursorLock
lA:__ZN4FMOD8ChannelI11EndCallbackEv
Qwc:__ZN8GUIStyle14SetDefaultFontEPN13TextRendering4FontE
EEa:__ZN15QualitySettings23VirtualRedirectTransferER24GenerateTypeTreeTransfer
GWg:_ObjectReader_ReadValue_m3145979203
Hx:__ZN9Scripting11UnityEngine24AssetBundleCreateRequest9InitProxyEv
Sae:__ZN5physx2Gu32PCMConvexVsMeshContactGeneration35generateTriangleFullContactManifoldERNS0_9TriangleVEjPKjhRKNS0_13PolygonalDataEPNS0_16SupportLocalImplIS2_EEPNS0_12SupportLocalEPNS0_21MeshPersistentContactERjRKNS_6shdfnd3aos6FloatVERNSI_5Vec3VE
Jrc:__Z59Register_UnityEngine_MonoBehaviour_Internal_CancelInvokeAllv
khg:__ZL68Scrollbar_t1494447233_CustomAttributesCacheGenerator_m_NumberOfStepsP21CustomAttributesCache
Wkl:__ZN30dense_hashtable_const_iteratorINSt3__24pairIK10KeyWrapperIPK19Il2CppGenericMethodEPK26Il2CppGenericMethodIndicesEES6_N6il2cpp8metadata23Il2CppGenericMethodHashEN14dense_hash_mapIS6_SA_SE_NS6_14EqualsComparerINSD_26Il2CppGenericMethodCompareEEENS0_9allocatorISB_EEE9SelectKeyESI_SK_EppEv
I0d:__ZNK16OBBAABBTest_SIMDclERKN5physx2Sq9BucketBoxE
$ze:_UNITY_FT_Request_Metrics
FJl:__ZN6il2cpp6icalls8mscorlib6System10Reflection10MonoMethod29get_IsGenericMethodDefinitionEP22Il2CppReflectionMethod
mEl:__ZN6il2cpp2vm6Thread21AllocThreadStaticDataEi
HPc:__ZNK39b2PrepareDiscreteIslandContactIndexTask13GetRangeCountEv
Xpa:__ZL12CopyChannelsj17ShaderChannelMaskRA4_K10StreamInfoRA12_K11ChannelInfoPKhS3_S7_Ph
Dsg:_Default_SelectMethod_m469311730
pFg:_Input_get_mousePosition_m1616496925
XSl:__ZN30dense_hashtable_const_iteratorINSt3__24pairIK10KeyWrapperIPK19Il2CppGenericMethodEP10MethodInfoEES6_N6il2cpp8metadata23Il2CppGenericMethodHashEN14dense_hash_mapIS6_S9_SD_NS6_14EqualsComparerINSC_26Il2CppGenericMethodCompareEEENS0_9allocatorISA_EEE9SelectKeyESH_SJ_EppEv
uXj:_UInt32_ToString_m2066897296_AdjustorThunk
RXa:__ZN24GenerateTypeTreeTransfer19TransferSTLStyleMapINSt3__23mapI4PPtrI6ShaderEN4core12basic_stringIcNS6_20StringStorageDefaultIcEEEENS1_4lessIS5_EENS1_9allocatorINS1_4pairIKS5_SA_EEEEEEEEvRT_17TransferMetaFlags
dRc:__ZN26b2ClearBodyIslandFlagsTask7ExecuteEv
imi:_Enumerator_Reset_m4274366540
Rzc:__Z18Transfer_BlittableI9JSONWriteLb0E8Vector3fEvRK29SerializationCommandArgumentsR31RuntimeSerializationCommandInfo
sg:_emscripten_glUniform4i
XFe:_otv_FeatureList_validate
PIg:_PlayerConnection_RegisterDisconnection_m2618599213
Zbd:__ZN16RayRTreeCallbackILi0ELb1EED2Ev
Ff:_emscripten_glUniform4f
cUa:__ZN6Object22CheckInstanceIDsLoadedEPii
ak:___unlock
wKk:_TlsCipherSuite_ComputeServerRecordMAC_m3941098609
dFe:_otv_validate
hZb:__ZN13sorted_vectorINSt3__24pairIN4core12basic_stringIcNS2_20StringStorageDefaultIcEEEES6_EEN10vector_mapIS6_S6_27compare_tstring_insensitiveIS6_E13stl_allocatorIS7_L18MemLabelIdentifier38ELi16EEE13value_compareESD_E9erase_oneIS6_EEjRKT_
U5g:_U3CDelayedSetDirtyU3Ec__Iterator0_Reset_m160466733
u0h:_X509Certificate_Equals_m3784196370
FAk:_List_1__ctor_m3376067838_gshared
ohj:_Enumerator_MoveNext_m1446151600_gshared
i_h:_SHA1Internal_ProcessFinalBlock_m1403775421
fCk:_Queue_1_System_Collections_ICollection_CopyTo_m3452613063_gshared
qdc:__Z40Register_UnityEngine_Transform_IsChildOfv
Ycd:__ZN5physx3Cct17CapsuleController15setClimbingModeENS_21PxCapsuleClimbingMode4EnumE
J2d:__ZN5physx6shdfnd9atomicAddEPVii
Srh:_InternalEnumerator_1_get_Current_m2356858238_AdjustorThunk
wbc:__Z45Register_UnityEngine_Display_GetSystemExtImplv
u3i:_RSAManaged_ImportParameters_m1844641996
rZd:__ZN5physx6shdfnd5ArrayINS_3Scb13MaterialEventENS0_19ReflectionAllocatorIS3_EEE6resizeEjRKS3_
yuh:_Enumerator_System_Collections_IDictionaryEnumerator_get_Value_m3325938730_AdjustorThunk
G8d:__ZNK5physx14SingleAABBTask25updateNumFastMovingShapesEv
ZYc:__GLOBAL__sub_I_Runtime_Dynamics_0_cpp
oCh:_ValueCollection_System_Collections_ICollection_get_SyncRoot_m1114275063_gshared
ksi:_Guid_Equals_m1866984197
FTe:__ZN14UnityAnalytics19ConfigChangedStaticEPS_RKN4core12basic_stringIcNS1_20StringStorageDefaultIcEEEER8JSONReadb
Cpe:__ZN5physx17ConvexMeshBuilder16computeGaussMapsEv
urg:_PlatformNotSupportedException__ctor_m1787918017
x$:__ZN13RuntimeStaticI15DirectorManagerLb0EE16StaticInitializeEPv
y5j:_ReadOnlyCollection_1_System_Collections_ICollection_CopyTo_m2643246984_gshared
IPa:__ZN11TimeManager6UpdateEv
svb:__ZN6Shader18LoadDefaultShadersEv
Iqd:__ZNK5physx2Sc16ArticulationCore22computeImpulseResponseERNS0_8BodyCoreERNS_6PxVec3ES5_RKNS_9PxcFsDataERKS4_SA_
hce:__ZN5physx21PxsBodyTransformVaultC2Ev
A9e:_CanvasScaler_get_fallbackScreenDPI_m2811935689
Os:__ZNK16ParentConstraint18GetTranslationAxisEv
ooi:_DateTimeFormatInfo_ReadOnly_m890935083
bae:__ZL6IsInYZffPPK10VertexInfo
wqe:__ZN5physx19TriangleMeshBuilderD0Ev
B3l:_fflush
yVa:__ZN17LightProbeContext4InitERK16LightmapSettingsRK14RenderSettings
$Rb:__ZN18DeferredRenderLoop14RenderLightingER21ActiveLightingContextP13RenderTexture9TextureIDPS3_iRK8Vector4fRK14LightingLayersR10MinMaxAABBb12ObjectHandleI17RenderSurface_TagP17RenderSurfaceBaseE
oOg:_SceneManager_Internal_ActiveSceneChanged_m3676176255
kOi:_Double_System_IConvertible_ToInt16_m3591921965
lKa:__ZN9Texture3DD2Ev
y$j:_Collection_1_set_Item_m4280581817_gshared
kEi:_Convert_ToChar_m2796006345
Gjk:_Array_InternalArray__Insert_TisContentType_t1787303396_m3566390691_gshared
VCd:__ZN5physx2CmlsERNS0_12RenderOutputERKNS0_10DebugArrowE
yji:_ArrayListWrapper_GetEnumerator_m2336495952
GUb:__Z34ProcessIndexListIsNodeVisibleStep2RK22SceneCullingParametersPK9SceneNodePK4AABBR9IndexList
pqb:__ZN10MonoScriptD2Ev
_9:__ZN9Scripting11UnityEngine10Networking16PlayerConnection16PlayerConnection12CleanupProxyEv
YFb:__ZN19ConstantBuffersGLES8UpdateCBE5CbKeyPKvj
Q0k:_AudioSource_get_spatializeInternal_m2117549793
Udc:__Z39Input_CUSTOM_INTERNAL_get_mousePositionP8Vector3f
$Wg:_SerializationCallbacks_GetMethodsByAttribute_m2095490433
JHe:_tt_cmap13_char_next
scg:__ZL117EventSystem_t1003666588_CustomAttributesCacheGenerator_EventSystem_t1003666588____lastSelectedGameObject_PropertyInfoP21CustomAttributesCache
OIb:__ZN9ShaderLab4Pass16SetupPassOptionsEv
Ih:_JS_Sound_ReleaseInstance
MDl:_il2cpp_type_equals
Oik:_Array_InternalArray__Insert_TisKeyValuePair_2_t71524366_m303774222_gshared
Ori:_Guid_CheckArray_m921056615
bsf:_ConfigHandler_ReadLifetine_m208994800
Svh:_Enumerator_System_Collections_IDictionaryEnumerator_get_Entry_m3417028588_AdjustorThunk
fje:__ZN5physx16PxsCCDBlockArrayINS_13PxsCCDOverlapELi128EE8pushBackEv
eGl:__ZN6il2cpp6icalls8mscorlib6System7Runtime15InteropServices7Marshal19copy_from_unmanagedEiiP11Il2CppArrayi
JVj:_UInt16_System_IConvertible_ToByte_m3185614807_AdjustorThunk
_Lg:_Rect_get_max_m350137314_AdjustorThunk
jn:FUNCTION_TABLE_diddi
DHl:__ZN6il2cpp6icalls8mscorlib6System5Array8FastCopyEP11Il2CppArrayiS5_ii
dne:__ZN5physx2Gu12TriangleMesh7releaseEv
kOe:__ZNK2UI14CanvasRenderer22GetTypeVirtualInternalEv
Rac:__Z42Register_UnityEngine_RectOffset_get_bottomv
e3l:_newlocale
L$d:__ZN5physx14PxsAABBManagerD2Ev
Udb:__ZN9BoundsInt8TransferI14SafeBinaryReadEEvRT_
TNb:__Z20DoDeferredRenderLoopRK17RenderLoopContextR13dynamic_arrayI16RenderObjectDataLj0EES5_RK11CullResultsRP13RenderTextureSB_Pb
Pcm:_emscripten_glUniform1f__wrapper
n7l:dynCall_di
SCg:_BaseInvokableCall_AllowInvoke_m878393606
v$d:__ZN5physx16PxsIslandManagerD2Ev
zzc:__Z28RegisterModule_JSONSerializev
WVe:__ZThn1168_N18UnityConnectClientD1Ev
_4d:__ZN5physx21solveFriction_BStaticERKNS_23PxcSolverConstraintDescERNS_16PxcSolverContextE
lYa:__ZN2UI13RectTransform8TransferI14SafeBinaryReadEEvRT_
KAc:__Z35Transfer_Blittable_FixedBufferFieldI9JSONWriteaEvRK29SerializationCommandArgumentsR31RuntimeSerializationCommandInfo
ezg:_Behaviour_get_enabled_m753527255
Tbc:__Z20IsHumanControllingUsv
bDf:__ZL51TextInfo_t3810425522_CustomAttributesCacheGeneratorP21CustomAttributesCache
T8b:__ZN10systeminfo21GetPersistentDataPathEv
VVe:__ZThn1168_N18UnityConnectClient18OnAdsIdRequestDoneERKN4core12basic_stringIcNS0_20StringStorageDefaultIcEEEEbS6_
Rxb:__ZN13GfxDeviceGLES17DestroyGpuProgramEPK10GpuProgram
Gkk:_Array_InternalArray__set_Item_TisRaycastResult_t3360306849_m730888808_gshared
nab:__Z44InitializeTransferFunctionScriptingTraitsForI18StreamedBinaryReadILb0EEEvR31TransferFunctionScriptingTraits
lQb:__ZNSt3__218__insertion_sort_3IR23CompareReflectionProbesP31RuntimeReflectionProbeBlendInfoEEvT0_S5_T_
Xfb:__ZN12NativeBufferI27Converter_SimpleNativeClassI8GradientEE15SetupForWritingER9ArrayInfo
T$i:_Kernel_RightShift_m2207393597
s2:__ZNSt3__213__stable_sortIRNS_4lessIN4core12basic_stringIcNS2_20StringStorageDefaultIcEEEEEENS_11__wrap_iterIPS6_EEEEvT0_SC_T_NS_15iterator_traitsISC_E15difference_typeEPNSF_10value_typeEi
ikg:__ZL48Shadow_t773074319_CustomAttributesCacheGeneratorP21CustomAttributesCache
wQ:__ZN12_GLOBAL__N_113StaticDestroyEPv
jwc:__ZNK8GUIStyle4DrawER8GUIStateRK5RectTIfER10GUIContentbbbb
Rhm:_glUnmapBuffer__wrapper
rEc:__ZN8JSONRead21TransferSTLStyleArrayINSt3__26vectorI8Gradient13stl_allocatorIS3_L18MemLabelIdentifier1ELi16EEEEEEvRT_17TransferMetaFlags
JRa:__ZNSt3__218__insertion_sort_3IRNS_6__lessINS_4pairIPKN5Unity4TypeE7Hash128EES8_EEPS8_EEvT0_SC_T_
d2g:_InputField_set_onValueChanged_m3658917578
Fhb:__ZN10RectOffset8TransferI24GenerateTypeTreeTransferEEvRT_
twi:_BinaryReader__ctor_m2266204403
Nba:__ZN9Scripting11UnityEngine6Events14UnityEventBase9InitProxyEv
hYc:__ZNK10Collider2D15GetAttachedBodyEv
Xfj:_Enumerator_VerifyState_m3047769867_AdjustorThunk
Rgb:__Z18Transfer_BlittableI24GenerateTypeTreeTransferLb1E5RectTIiEEvRK29SerializationCommandArgumentsR31RuntimeSerializationCommandInfo
PPk:_Enumerator_System_Collections_IEnumerator_Reset_m24787251
vOe:__ZN2UI13CanvasManager19RemoveDirtyRendererEPNS_6CanvasEPNS_14CanvasRendererE
kCd:__ZN5physx7NpShape18setQueryFilterDataERKNS_12PxFilterDataE
g2l:_isspace
PUg:_BinaryFormatter__ctor_m2620705134
lXe:__ZN11UnityEngine15PlatformWrapper25GetGraphicsRendererStringEv
Ude:__ZN5physx20PxcNpCacheStreamPair5resetEv
zfc:__ZZL31RegisterRectTransformPropertiesR22GenericPropertyBindingEN39Wrapper_RectTransformAnchoredPositiony113SetFloatValueEPvf
IN:__ZN11UnityEngine15CloudWebService17WebFileDownloaderINS0_20WebRequestRestClientENS0_23WebRequestRestHeaderMapEED2Ev
jc:invoke_vi
gUc:__ZNSt3__26vectorINS0_IN10ClipperLib8IntPointENS_9allocatorIS2_EEEENS3_IS5_EEE7reserveEj
hc:invoke_vd
ska:__ZNK6Camera19GetStereoViewMatrixE15StereoscopicEye
DPk:_Regex_get_RightToLeft_m2317867572
jY:__ZNK10GameObject8IsActiveEv
Otc:__Z34Component_Get_Custom_PropTransformP12Il2CppObject
v8f:__ZL67g_UnityEngine_PhysicsModule_Assembly_CustomAttributesCacheGeneratorP21CustomAttributesCache
aBg:_Color32_ToString_m403383053
eDb:__ZN18GfxFramebufferGLES23SetupDefaultFramebufferEPP17RenderSurfaceBaseS2_N2gl6HandleILNS3_10ObjectTypeE9EEE
IPc:__ZN22b2IslandDiscreteSolverC2EiiiPP6b2BodyPP9b2ContactPP7b2JointP10b2VelocityP10b2PositionRK10b2TimeStepR7b2World
kmd:__ZN5physx2Sq16computeWorldAABBERKNS_3Scb5ShapeERKNS1_5ActorE
rcf:_DefaultControls_CreateDropdown_m3286664171
fKa:__ZN13ScreenManager18RequestOrientationE17ScreenOrientation
jil:__ZN6il2cpp2vm5Class12SetupMethodsEP11Il2CppClass
o8d:__ZN5physx14PxsAABBManager31updateAggregateBPOverlapRecordsEv
Cpc:__Z39DeleteLastPathNameComponentWithAnySlashRKN4core12basic_stringIcNS_20StringStorageDefaultIcEEEE
yxc:__ZN10GUIManager14InitGUIManagerEv
jWj:_UInt16_Equals_m642257745
Rci:_Array_System_Collections_IList_IndexOf_m3301661616
esg:_AssemblyFileVersionAttribute__ctor_m3720707642
opf:_RuntimeResourceSet_CloneDisposableObjectIfPossible_m2725520898
Ybc:__Z18GetApplicationInfov
XNe:__GLOBAL__sub_I_artifacts_WebGL_codegenerator_0_cpp_6511
Uwc:__Z37Register_UnityEngine_GUIStyle_Cleanupv
Wa:invoke_iiifii
Esc:__Z26Mesh_CUSTOM_SetIndicesImplP12Il2CppObjecti16GfxPrimitiveTypeP11Il2CppArrayihi
Vch:_SliderEvent__ctor_m3149452941
V9h:_DeriveBytes__cctor_m1212925033
aff:_Graphic_OnDisable_m1097930217
xsl:__ZN6il2cpp6icalls8mscorlib6System8MonoType13IsPointerImplEP20Il2CppReflectionType
tj:_emscripten_glFramebufferRenderbuffer
hTb:__ZN19CullingGroupManager17CullAndSendEventsERK22SceneCullingParametersiRK13CullingOutputRK8JobFence
Mia:__ZN9Transform30EnsureTransformHierarchyExistsEv
eUj:_Type_FilterName_impl_m2651733559
$Yd:__ZN5physx2Sc14ConstraintCore15getPxConstraintEv
Xo:FUNCTION_TABLE_viiiiiiii
fcc:__Z46Register_UnityEngine_Application_get_isPlayingv
fh:___cxa_find_matching_catch_4
Aqc:__ZN13MonoBehaviour13StopCoroutineEPKc
VYb:__ZNSt3__26vectorINS_4pairIN4core12basic_stringIcNS2_20StringStorageDefaultIcEEEEPK17MessageIdentifierEENS_9allocatorISA_EEE12__move_rangeEPSA_SE_SE_
$Lb:__ZN14qsort_internal17MedianOfThreeSwapIP17RODataReplacement19ROSorterReplacementEEvT_S4_S4_T0_
w4h:_String_Split_m3646115398
QMg:_RectOffset_ToString_m2007443979
$gl:__ZNK15dense_hashtableINSt3__24pairIK10KeyWrapperIPK22Il2CppGenericParameterEP11Il2CppClassEES6_N6il2cpp5utils11PointerHashIS4_EEN14dense_hash_mapIS6_S9_SE_NS6_14EqualsComparerINS0_8equal_toIS5_EEEENS0_9allocatorISA_EEE9SelectKeyESJ_SL_E3endEv
Thb:__Z29Transfer_Blittable_ArrayFieldI24GenerateTypeTreeTransfer11ColorRGBA32EvRT_R9ArrayInfoRK23StaticTransferFieldInfo
W$a:__ZN17ArchiveFileSystem10ToAbsoluteEPKc
slc:__Z13RegisterClassI11PreloadDataEvPKc
msc:__Z35Camera_CUSTOM_RaycastTry2D_InjectedP12Il2CppObjectRK3Rayfi
XXe:__ZN19UnityConnectService15GetPlayerUserIdEv
$Vi:_Array_InternalArray__IndexOf_TisSByte_t1669577662_m4156538463_gshared
Wac:__ZL12SetPrefValueRKN4core12basic_stringIcNS_20StringStorageDefaultIcEEEERK9PrefValue
QKa:__ZN19ShaderPropertySheet20ReservePropertyCountEj
tTl:__ZN6il2cpp5utils11StringUtils6PrintfEPKcz
gza:__ZN15NameToObjectMapI6ShaderNSt3__23mapI4PPtrIS0_EN4core12basic_stringIcNS5_20StringStorageDefaultIcEEEENS1_4lessIS4_EENS1_9allocatorINS1_4pairIKS4_S9_EEEEEENS1_8multimapIS9_S4_NSA_IS9_EENSC_INSD_IKS9_S4_EEEEEEE4FindERSK_
_Aa:__ZN24GenerateTypeTreeTransfer21TransferResourceImageE19ActiveResourceImagePKcR13StreamingInfoPvjiPKN5Unity4TypeE
Rmk:_Array_Sort_TisVector3_t3722313464_m1030213405_gshared
iNl:__ZN6il2cpp2vm6Object5CloneEP12Il2CppObject
Ote:__ZN5physx6shdfnd8PoolBaseINS_24NpPtrTableStorageManager8PtrBlockILi16EEENS0_19ReflectionAllocatorIS4_EEED2Ev
z$l:__ZN6il2cpp6icalls8mscorlib6System9Threading5Mutex20CreateMutex_internalEbP12Il2CppStringPb
MZf:__ZL47Time_t2420636075_CustomAttributesCacheGeneratorP21CustomAttributesCache
eil:__ZN6il2cpp2vm5Class12GetFinalizerEP11Il2CppClass
tBg:_Coroutine_Finalize_m1957108547
rYk:_KeyBuilder_Key_m2503211157
u3k:_playerMovement3d_Start_m1312923255
msa:__ZNSt3__212__deque_baseI18ReflectionProbeJobNS_9allocatorIS1_EEED2Ev
d1b:__ZN15dense_hashtableINSt3__24pairIKiN4core17string_with_labelILi1EEEEEi18SInt32HashFunctionN14dense_hash_mapIiS5_S7_NS0_8equal_toIiEE13stl_allocatorIS6_L18MemLabelIdentifier1ELi16EEE9SelectKeyESA_SD_E13set_empty_keyERKS6_
Hwd:__ZN5physx2Sc9ShapeCore23setSimulationFilterDataERKNS_12PxFilterDataE
hBg:_Component_GetComponentInChildren_m388868270
Idj:_GenericEqualityComparer_1_Equals_m1705889345_gshared
SEh:_FtpWebRequest__cctor_m699542155
hgi:_Byte_System_IConvertible_ToBoolean_m2888023769
nMl:__GLOBAL__sub_I_GenericMetadata_cpp
nve:__ZN5physx7profile12MemoryBufferINS0_21WrapperNamedAllocatorEE5writeIyEEvRKT_
_4j:_ReadOnlyCollection_1_System_Collections_IList_Insert_m2797533731_gshared
RDh:_NameObjectCollectionBase_GetEnumerator_m3677320185
eUb:__Z24CalculateSpotLightBoundsffRK10Matrix4x4fR15SpotLightBounds
q2k:_SampleFramesHandler_BeginInvoke_m2992664336
Dja:__Z20InvertMatrix4x4_FullPKfPf
pJ:__ZN23CloudWebServicesManager23VirtualRedirectTransferER14SafeBinaryRead
T9h:_PKCS12_AddCertificate_m3857004455
xVg:_WellKnownClientTypeEntry_ToString_m1119458503
Erb:__Z19ShouldTransferFieldR32SerializationCommandQueueBuilder17ScriptingClassPtriR18TransferField_InfoRK20CoreScriptingClasses
Lrc:__Z48Register_UnityEngine_MonoBehaviour_InvokeDelayedv
N1h:_SecurityElement_IsValidText_m1346599242
A9a:__ZN26SinglePassStereoSupportExt21SetStereoMatrixCommonE21MonoOrStereoscopicEye24BuiltinShaderMatrixParamRK10Matrix4x4f
NC:__ZN5audio5mixer22UpdateAudioMixerMemoryERKNS0_18AudioMixerConstantERNS0_16AudioMixerMemoryEfPN4FMOD6SystemEf
_we:__ZL21InitializeCachedStripPv
p5i:_Dictionary_2_System_Collections_Generic_ICollectionU3CSystem_Collections_Generic_KeyValuePairU3CTKeyU2CTValueU3EU3E_Add_m3652125112_gshared
PXb:__ZN19CustomRenderTexture16GetRenderTextureEv
TGl:__ZN6il2cpp6icalls8mscorlib6System9Threading6Thread23GetCachedCurrentCultureEP12Il2CppThread
vja:__ZNK6Camera22GetWorldToCameraMatrixEv
MOl:__ZN6il2cpp2vm12GenericClass11IsValueTypeEP18Il2CppGenericClass
T$b:__ZN13ScreenManager24SetIsFullscreenImmediateEb
Qqb:__ZN13MonoBehaviour7SetNameEPKc
Pvf:_MethodDictionary_IsOverridenKey_m946843558
W$d:__ZN5physx6shdfnd8PoolBaseINS_2Sc26ActorPairContactReportDataENS0_19ReflectionAllocatorIS3_EEE15disposeElementsEv
jik:_U3CStartU3Ec__Iterator0_MoveNext_m4270440387_gshared
qml:__ZN10KeyWrapperIN6il2cpp5utils13dynamic_arrayIPK10Il2CppTypeLj4EEEEC2ERKS7_
Qvb:__ZN17InstancingBatcher22FindCBUpperBoundKonstsEv
GTe:__ZN11UnityEngine9Analytics15AnalyticsConfig13ConfigChangedERKN4core12basic_stringIcNS2_20StringStorageDefaultIcEEEER8JSONRead
yUa:__ZN18AwakeFromLoadQueue5ClearEv
bzi:_FileStream_SetLength_m99749826
Vke:__ZN5physx6shdfnd5ArrayIfNS0_19ReflectionAllocatorIfEEE8recreateEj
ASb:__ZNSt3__27__sort5IR15ReflProbeSorterPP15ReflectionProbeEEjT0_S6_S6_S6_S6_T_
m0:__ZN8Playable10DisconnectEPS_i
wGi:_Convert_ToInt16_m4174439391
$k:_glGenTransformFeedbacks
KTa:__ZN13LoadOperationD2Ev
C4d:__ZN5physx20PxsSolverCoreGeneral6createEv
cti:_Int16_System_IConvertible_ToType_m3672347013
pbi:_AttrListImpl_GetValue_m3657391095
jid:__ZL29GeomOverlapCallback_SphereBoxRKN5physx10PxGeometryERKNS_11PxTransformES2_S5_PNS_2Gu12TriggerCacheE
kBk:_List_1_CheckIndex_m3933537097_gshared
_ya:__ZNSt3__27__sort5IRPFbRKNS_4pairIN9ShaderLab16FastPropertyNameEN18UnityPropertySheet11UnityTexEnvEEES8_EPS6_EEjT0_SD_SD_SD_SD_T_
iBb:__ZNK7ApiGLES18GetExtensionStringEv
MAk:_List_1_System_Collections_IList_IndexOf_m2444653486_gshared
Qcm:_emscripten_glVertexAttrib1f__wrapper
SZa:__ZNK12HandlerChain4SizeERK13FileEntryData
dq:FUNCTION_TABLE_iiiiiiiii
OGc:__ZN11UnityEngine9Analytics18RenderingInfoEvent13SetFrameStatsERK13dynamic_arrayIjLj0EEjjj
qEd:__ZN5physx7NpCloth15setInertiaScaleEf
_5j:_ReadOnlyCollection_1_System_Collections_Generic_ICollectionU3CTU3E_Remove_m4177779688_gshared
Zca:__ZN9Scripting11UnityEngine14AnimationCurve9InitProxyEv
THc:__Z22GetPhysicsGroundBody2Dv
Ohi:_Char_IsLetter_m3996985877
aCk:_Queue_1_Peek_m2302800625_gshared
coe:__ZN5physx6shdfnd4sortIPvNS0_4LessIS2_EENS0_19ReflectionAllocatorIN17PxcPoolMallocData10PoolData16EEEEEvPT_jRKT0_RKT1_j
h1c:__Z19sweepBox_SphereGeomRKN5physx10PxGeometryERKNS_11PxTransformERKNS_2Gu3BoxERKNS_6PxVec3EfRNS_10PxSweepHitENS_7PxFlagsINS_9PxHitFlag4EnumEtEEf
vWl:_GC_allochblk
XNd:__ZN5physx14NpRigidDynamic17setAngularDampingEf
OYi:_Array_InternalArray__ICollection_CopyTo_TisKeyframe_t4206410242_m2132255743_gshared
Mhm:_glCheckFramebufferStatus__wrapper
Zle:__ZNK5physx13GuMeshFactory15getHeightFieldsEPPNS_13PxHeightFieldEjj
Igf:_Image__ctor_m2551076292
B4i:_Dictionary_2_System_Collections_ICollection_CopyTo_m3143696177_gshared
voj:__Z103RuntimeInvoker_Void_t1185182177_Int32_t2950945753_Int32_t2950945753_Int32_t2950945753_SByte_t1669577662PFvvEPK10MethodInfoPvPS4_
jRd:__ZN5physx2Cm20visualizeJointFramesERNS0_12RenderOutputEfRKNS_11PxTransformES5_
L9d:__ZN5physx22PxcContactPlaneCapsuleERKNS_2Gu13GeometryUnionES3_RKNS_11PxTransformES6_RKfRNS_10PxcNpCacheERNS0_13ContactBufferE
$tc:__Z36Renderer_Get_Custom_PropSortingOrderP12Il2CppObject
gvl:__ZNK15dense_hashtableINSt3__24pairIK10KeyWrapperIPK10Il2CppTypeEjEES6_N6il2cpp8metadata14Il2CppTypeHashEN14dense_hash_mapIS6_jSB_NS6_14EqualsComparerINSA_26Il2CppTypeEqualityComparerEEENS0_9allocatorIS8_EEE9SelectKeyESF_SH_E13find_positionERS7_
Uua:__ZN7Texture5ResetEv
H_g:_DESTransform_BSwap_m2723001589
CLc:__ZNK14b2CapsuleShape7RayCastEP15b2RayCastOutputRK14b2RayCastInputRK11b2Transformi
Xsf:_Context_get_HasDynamicSinks_m3952434387
RNj:_Latin1Encoding_GetByteCount_m1145650505
ggb:__Z18Transfer_BlittableI24GenerateTypeTreeTransferLb1EhEvRK29SerializationCommandArgumentsR31RuntimeSerializationCommandInfo
bwg:_GenericTypeParameterBuilder_GetPropertyImpl_m2584778600
hnb:__Z13TransferFieldI18StreamedBinaryReadILb1EELb0E16Converter_StringEvRK23StaticTransferFieldInfoR31RuntimeSerializationCommandInfoRT1_
Ucd:__ZN5physx3Cct17CapsuleController9setRadiusEf
L7l:dynCall_iiifii
Y_:__ZnwjRKSt9nothrow_t
f0c:__ZN9Rigidbody17MainThreadCleanupEv
lci:_ApplicationException__ctor_m2557611022
Hxa:__ZN14SafeBinaryRead19TransferSTLStyleMapINSt3__23mapI39DeprecatedFastPropertyNameSerializationN18UnityPropertySheet11UnityTexEnvENS1_4lessIS3_EENS1_9allocatorINS1_4pairIKS3_S5_EEEEEEEEvRT_17TransferMetaFlags
Nrc:__Z45Register_UnityEngine_MonoBehaviour_IsInvokingv
ryk:_List_1_CheckMatch_m579516778_gshared
kjb:__ZL26Transfer_SimpleNativeClassI19StreamedBinaryWriteILb0EE17AnimationCurveTplIfELb0EEvRK29SerializationCommandArgumentsR31RuntimeSerializationCommandInfo
_ub:__Z43GiveManagedDebuggerChanceToAttachIfRequiredv
dgi:_Buffer_ByteLengthInternal_m1388208719
hBd:__ZN5physx9NpPhysics26unregisterDeletionListenerERNS_18PxDeletionListenerE
Hqc:__Z35UnregisterSerializationCacheBuilderPFv17ScriptingClassPtrR23CachedSerializationDataRbE
HXl:_GC_reclaim_uninit
QV:__ZNSt3__26__treeINS_12__value_typeIPKc18ScriptingMethodPtrEENS_19__map_value_compareIS3_S5_14CStringCompareLb1EEE13stl_allocatorIS5_L18MemLabelIdentifier1ELi16EEE25__emplace_unique_key_argsIS3_JRKNS_21piecewise_construct_tENS_5tupleIJOS3_EEENSH_IJEEEEEENS_4pairINS_15__tree_iteratorIS5_PNS_11__tree_nodeIS5_PvEEiEEbEERKT_DpOT0_
nvi:_Int64_System_IConvertible_ToUInt32_m109903525_AdjustorThunk
wxg:_MethodToken_Equals_m460628456_AdjustorThunk
Xma:__Z30GetBuiltinVectorParamArraySize24BuiltinShaderVectorParam
V6:__ZL46__ManagedRegistrationHelperFunction_SpriteBonePv
Nua:__ZN13RenderTextureC2E10MemLabelId18ObjectCreationMode
sti:_Int32_GetFormatException_m519586683
sLf:__ZL46StringBuilder_t_CustomAttributesCacheGeneratorP21CustomAttributesCache
jYc:__ZN16b2ContactManagerC2Ev
utc:__Z60Register_UnityEngine_ScriptableObject_CreateScriptableObjectv
Npk:_Array_InternalArray__get_Item_TisVector2_t2156229523_m2502961026_gshared
aGa:__ZN21RendererUpdateManager11AddRendererER8Renderer
Ltd:__ZNK5physx18NpArticulationLink15getArticulationEv
Yab:__Z35Transfer_Blittable_FixedBufferFieldI14SafeBinaryReadsEvRK29SerializationCommandArgumentsR31RuntimeSerializationCommandInfo
pEi:_Convert_ToDateTime_m3802186295
uTl:__ZN6il2cpp5utils11StringUtils11Utf16ToUtf8EPKDs
HTa:__ZN18StreamedBinaryReadILb0EE21TransferSTLStyleArrayINSt3__26vectorIN15ResourceManager10DependencyE13stl_allocatorIS5_L18MemLabelIdentifier52ELi16EEEEEEvRT_17TransferMetaFlags
cYj:_UInt64_CompareTo_m1614517204_AdjustorThunk
AXe:__ZN11UnityEngine15PlatformWrapper20IsRootedOrJailbrokenEv
AIb:__ZZ23InitPlayerLoopCallbacksvEN52PreLateUpdateScriptRunBehaviourLateUpdateRegistrator7ForwardEv
HUb:__Z33IntersectAABBPlaneBoundsOptimizedRK4AABBPKN4math7_float4Ei
jqi:_DateTimeFormatInfo_FillAllDateTimePatterns_m2683124783
d4a:__ZN9GfxDevice19EndGeometryJobFrameEv
mWk:_GUILayoutUtility_Layout_m1159951704
g1g:_InputField_get_shouldActivateOnSelect_m3055465770
agb:__ZN27Converter_SimpleNativeClassI17AnimationCurveTplIfEE17ScriptingToNativeER18ScriptingObjectPtrPS1_
dUj:_Type__cctor_m2371893800
mud:__ZN5physx2Sc15CoreInteraction17isCoreInteractionEPNS0_11InteractionE
k0l:__ZN6il2cpp8metadata24Il2CppGenericInstCompare7CompareERK10KeyWrapperIPK17Il2CppGenericInstES8_
gve:__ZThn132_N5physx7profile8ZoneImplINS_28PxProfileNameProviderForwardEED0Ev
p7c:__ZN5physx3Cct13BoxController17setHalfSideExtentEf
Tkl:__ZNK15dense_hashtableINSt3__24pairIK10KeyWrapperIPK19Il2CppGenericMethodEPK26Il2CppGenericMethodIndicesEES6_N6il2cpp8metadata23Il2CppGenericMethodHashEN14dense_hash_mapIS6_SA_SE_NS6_14EqualsComparerINSD_26Il2CppGenericMethodCompareEEENS0_9allocatorISB_EEE9SelectKeyESI_SK_E5beginEv
M4e:_ExecuteEvents_Execute_m3049310229
WZf:__ZL84Object_t631007953_CustomAttributesCacheGenerator_Object_DestroyImmediate_m2288369078P21CustomAttributesCache
kaa:__ZN9Scripting11UnityEngine12LightmapData12CleanupProxyEv
tdc:__ZNK17AnimationCurveTplIfE8EvaluateEfPNS0_5CacheE
FHb:__Z31ManagerContextInitializeClassesv
h6j:_ReadOnlyCollection_1_System_Collections_IList_Contains_m2650112051_gshared
lQi:_Array_get_swapper_TisVector3_t3722313464_m1221246401_gshared
DAe:_UNITY_FT_List_Finalize
lNb:__Z20LightAttenuateApproxRKfS0_
pV:__ZN9Scripting30SetCachedPtrOnScriptingWrapperE18ScriptingObjectPtrP6Object
xMh:_RepeatContext_get_IsMinimum_m3640286252
sTd:__ZNK5physx7NpScene8getFlagsEv
tXg:_ObjectRecord_ChainFixup_m1889316362
Hta:__ZN18BlockRangeInternal16PopLastNodeIndexEP10BlockRangeji
jVl:__ZN6il2cpp2vm13CachedCCWBaseINS0_13ManagedObjectEE6AddRefEv
Z7e:_TouchInputModule_UpdateModule_m2582897964
sNa:__ZN4MeshD0Ev
v1e:__ZL42RequestRecreateEyeTexturesBeforeNextUpdatev
ema:__ZNK6Camera20IsCurrentlyRenderingEv
VQe:__Z36CanvasRenderer_CUSTOM_SetPopMaterialP12Il2CppObjectS0_i
RAc:__Z18Transfer_BlittableI9JSONWriteLb0EdEvRK29SerializationCommandArgumentsR31RuntimeSerializationCommandInfo
OFe:_otv_u_O_O_u_O_O
Eka:__ZN6Camera8TransferI19StreamedBinaryWriteILb0EEEEvRT_
yLi:_DBNull_System_IConvertible_ToSByte_m3533624679
oqa:__ZThn252_N31CanvasBatchIntermediateRenderer14OnAssetDeletedEv
B2l:_wctomb
Ehi:_Char_CompareTo_m42489266
Yhh:_InternalEnumerator_1_System_Collections_IEnumerator_get_Current_m3575233890_AdjustorThunk
zJj:__Z67RuntimeInvoker_Void_t1185182177_Int32_t2950945753_Double_t594665363PFvvEPK10MethodInfoPvPS4_
obc:__Z27Camera_CUSTOM_GetAllCamerasP11Il2CppArray
xd:___cxa_rethrow
Tme:__ZN5physx20InternalTriangleMesh17allocateFaceRemapEv
Fnf:_ParameterInfo_GetCustomAttributes_m2376494592
vCc:__Z18Transfer_BlittableI8JSONReadLb1EhEvRK29SerializationCommandArgumentsR31RuntimeSerializationCommandInfo
Uef:_Graphic_get_canvasRenderer_m315509948
SGk:_Collection_1_System_Collections_IList_Contains_m3397768605_gshared
xNc:__ZN18Overlap2DQueryBase13ReportFixtureEP9b2Fixture
zpi:_CultureInfo_construct_internal_locale_from_name_m3254739477
iYh:_RSASslSignatureDeformatter_VerifySignature_m1061897602
jXb:__ZN13MonoBehaviour8SetClassE17ScriptingClassPtr18ScriptingObjectPtr
zUd:__ZNK5physx7NpScene26getBounceThresholdVelocityEv
Z_d:__ZN5physx6shdfnd8PoolBaseINS_2Sc12SimStateDataENS0_19ReflectionAllocatorIS3_EEE15disposeElementsEv
ejk:_Array_InternalArray__Insert_TisLabelFixup_t858502054_m171542753_gshared
krh:_InternalEnumerator_1_System_Collections_IEnumerator_get_Current_m3539708496_AdjustorThunk
y_a:__ZN20LocalFileSystemPosix4ReadER13FileEntryDatayyPvPy
aRb:__ZNSt3__211__sift_downIRN23ForwardShaderRenderLoop18RenderObjectSorterILb0EEEP21ForwardRenderPassDataEEvT0_S7_T_NS_15iterator_traitsIS7_E15difference_typeES7_
x0h:_SecurityPermission__ctor_m1462427327
z9l:dynCall_iiiiiiffiiiiiiiiiffffiiii
erb:__ZN13MonoBehaviour5DoGUIENS_13GUILayoutTypeEii
drf:_ChannelData_get_ClientProviders_m594662942
UQk:_QuickSearch_GetChar_m1297698557
oga:__ZNK12TLSAllocatorI14StackAllocatorE8ContainsEPKv
LPa:__ZN11TimeManager8TransferI18StreamedBinaryReadILb0EEEEvRT_
Kme:__ZNK5physx13GuMeshFactory19getNbTriangleMeshesEv
$Mb:__ZL8AddLightRK12ActiveLightsRK8Vector3fiR13dynamic_arrayI11CulledLightLj0EE
CEi:_DateTime__ParseEnum_m253019513
qIi:_Convert_ToUInt32_m2194577773
FNa:__ZN14BlendShapeData8TransferI14SafeBinaryReadEEvRT_
R1c:__ZN5physx2Gu15getPolygonIndexERKNS0_13PolygonalDataEPNS0_12SupportLocalERKNS_6shdfnd3aos5Vec3VE
jqd:__ZN5physx14NpArticulation24setSolverIterationCountsEjj
Bmi:_Hashtable_Remove_m4032631466
N1i:_DSAManaged_GenerateKeyPair_m2236915969
Ufe:__ZN5physx36normalizePartitionsWithArticulationsERNS_6shdfnd5ArrayIjNS0_19ReflectionAllocatorIjEEEEPNS_23PxcSolverConstraintDescEPKNS_13PxcSolverBodyEjjS5_Pjj
JAa:__ZN7Texture25ReloadFromStorageIfNeededEPvb
wVi:_Array_InternalArray__IndexOf_TisBoolean_t97287965_m1161209222_gshared
vkl:__ZNK15dense_hashtableINSt3__24pairIK10KeyWrapperIP9FieldInfoEiEES5_N6il2cpp5utils11PointerHashIS3_EEN14dense_hash_mapIS5_iSB_NS5_14EqualsComparerINS0_8equal_toIS4_EEEENS0_9allocatorIS7_EEE9SelectKeyESG_SI_E3endEv
utd:__ZN5physx18NpArticulationLink17setLinearVelocityERKNS_6PxVec3Eb
huc:__GLOBAL__sub_I_artifacts_WebGL_codegenerator_0_cpp_2794
d$l:__ZN6il2cpp2os12Cryptography24OpenCryptographyProviderEv
UXd:__ZN5physx2Sq17SceneQueryManager17processSimUpdatesEv
kki:_SynchronizedArrayListWrapper_Clear_m2191301493
hKe:_Update_Max
MHl:__ZN6il2cpp6icalls8mscorlib6SystemL15ThrowNoWideningEv
Gpd:__ZN5physx6shdfnd5ArrayIPvNS0_19ReflectionAllocatorINS_13NpRigidStaticEEEE15growAndPushBackERKS2_
Icc:__ZNK23TransformChangeDispatch24GetChangeMaskForInterestENS_12InterestTypeE
Rcc:__Z45Transform_CUSTOM_INTERNAL_CALL_TransformPointP12Il2CppObjectRK8Vector3fRS1_
$Wd:__ZN5physx10PxsContext25setVisualizationParameterENS_24PxVisualizationParameter4EnumEf
kwg:_GenericTypeParameterBuilder_InvokeMember_m1647304778
Fgf:_HorizontalOrVerticalLayoutGroup_set_childControlWidth_m3261460516
Zxa:__ZNSt3__26__treeINS_12__value_typeI39DeprecatedFastPropertyNameSerializationfEENS_19__map_value_compareIS2_S3_NS_4lessIS2_EELb1EEENS_9allocatorIS3_EEE7destroyEPNS_11__tree_nodeIS3_PvEE
A1c:__ZN24ConvexVsHeightfieldSweepC2ERN5physx2Gu15HeightFieldUtilERKNS1_14ConvexHullDataERKNS0_11PxMeshScaleERKNS0_11PxTransformESC_RKNS0_6PxVec3EfNS0_7PxFlagsINS0_9PxHitFlag4EnumEtEEfbb
hIe:_tt_cmap4_char_index
BBk:_Enumerator_System_Collections_IEnumerator_Reset_m1487823313_gshared
a_a:__ZNK12HandlerChain8IsHiddenERK13FileEntryData
_2a:__ZNSt3__26__treeINS_12__value_typeIN4core12basic_stringIcNS2_20StringStorageDefaultIcEEEEPN16MemoryFileSystem4NodeEEENS_19__map_value_compareIS6_SA_NS_4lessIS6_EELb1EEE13stl_allocatorISA_L18MemLabelIdentifier55ELi16EEE25__emplace_unique_key_argsIS6_JNS_4pairIKS6_S9_EEEEENSK_INS_15__tree_iteratorISA_PNS_11__tree_nodeISA_PvEEiEEbEERKT_DpOT0_
qfb:__ZL26Transfer_SimpleNativeClassI17RemapPPtrTransfer10RectOffsetLb0EEvRK29SerializationCommandArgumentsR31RuntimeSerializationCommandInfo
Tgc:__ZN16GraphicsSettings12CleanupClassEv
Mui:_Int32_ToString_m2507389746_AdjustorThunk
_Gi:_Decimal_op_Explicit_m438967917
Ncl:_AnimatorControllerPlayable_SetHandle_m2260644454_AdjustorThunk
cHa:__ZN21EnlightenSceneMapping16BuildRemapTablesEv
FTc:__ZN10ClipperLib14PointInPolygonERKNS_8IntPointEPNS_5OutPtE
Z1g:_InputField_set_selectionColor_m2084640295
Tma:__ZNK9ShaderLab20ShaderBlendStateDesc15ToGfxBlendStateEPK19ShaderPropertySheetS3_R13GfxBlendState
uwh:_Enumerator_System_Collections_IEnumerator_get_Current_m1747693366_AdjustorThunk
f1d:__ZN5physx2Sq8AABBTree11shiftOriginERKNS_6PxVec3E
_5b:__ZN9ShaderLab9IntShaderC2Ev
Esl:__ZN6il2cpp6icalls8mscorlib6SystemL9IsPrivateEPK9EventInfo
G_l:__ZN6il2cpp6icalls8mscorlib6System10Reflection4Emit11TypeBuilder20setup_internal_classEP27Il2CppReflectionTypeBuilderS7_
Toe:__ZN5physx11AdjacenciesD2Ev
BRd:__ZN5physx6shdfnd8PoolBaseINS_2Sc24ElementInteractionMarkerENS0_19ReflectionAllocatorIS3_EEE12allocateSlabEv
A0d:__ZN5physx2Sq16BucketPrunerCore11shiftOriginERKNS_6PxVec3E
z8a:__ZNSt3__26vectorIN20GpuProgramParameters14ConstantBufferENS_9allocatorIS2_EEE21__push_back_slow_pathIRKS2_EEvOT_
UVi:_Array_InternalArray__IndexOf_TisILTokenInfo_t2325775114_m2602704009_gshared
GVf:__ZL52Matrix4x4_t1817901843_CustomAttributesCacheGeneratorP21CustomAttributesCache
GOj:_StringBuilder_AppendFormat_m3255666490
Qyc:__ZN5Unity9rapidjson6WriterI16TempBufferWriterNS0_4UTF8IcEES4_13JSONAllocatorE11WriteUint64Ey
Oxc:__ZN13GUIStateScope3EndER16GUIKeyboardStateR8GUIStatePN5IMGUI19NamedKeyControlListE
Gsg:_Default_GetBetterMethod_m3232777160
qjf:_TypeBuilder_GetGenericArguments_m2872156836
rJc:__ZN16b2PrismaticJoint24SolveVelocityConstraintsERK12b2SolverData
nXd:__ZN5physx6shdfnd5ArrayIPNS_3Scb5ShapeENS0_19ReflectionAllocatorIS4_EEE6resizeEjRKS4_
Sdd:__ZN5physx3Cct15ObstacleContextD2Ev
Lgl:__ZN13Il2CppHashMapIPK22Il2CppGenericParameterP11Il2CppClassN6il2cpp5utils11PointerHashIS1_EENSt3__28equal_toIS2_EENS9_9allocatorINS9_4pairIK10KeyWrapperIS2_ES4_EEEEEC2EjRKS8_RKSB_
NDc:__ZN8JSONRead21TransferSTLStyleArrayI31ArrayOfManagedObjectsTransfererEEvRT_17TransferMetaFlags
k$a:__Z15CreateDirectoryRKN4core12basic_stringIcNS_20StringStorageDefaultIcEEEE
_Oa:__Z21CalculateGlobalMatrix23TransformAccessReadOnly
rjf:_TypeBuilder_GetGenericTypeDefinition_m1632720438
LWi:_MonoProperty_StaticGetterAdapterFrame_TisRuntimeObject_m4131530968_gshared
zQi:_Array_InternalArray__ICollection_Contains_TisLink_t544317964_m163190451_gshared
XKi:_DateTimeOffset_System_IComparable_CompareTo_m176229495_AdjustorThunk
_Fg:_ManagedStreamHelpers_ValidateLoadFromStream_m580138133
tRa:__ZNK13BuildSettings22GetTypeVirtualInternalEv
$6b:__ZN13MonoBehaviour20SetScriptingDataFromERKS_
A:tempBigIntD
L1d:__ZN5physx2Cm10FanoutTaskC2EPKc
szk:_List_1_CheckIndex_m2250397830_gshared
h_d:__ZNK5physx2Sc5Scene17prefetchForRemoveERKNS0_8BodyCoreE
k5h:_String_LastIndexOf_m578673845
MIg:_PlayerEditorConnectionEvents_UnregisterManagedCallback_m400366024
dnd:__ZN5physx2Sc8RigidSimD2Ev
M5b:__ZN9ShaderLab20SerializedSubProgram14ConstantBufferC2EOS1_
z:tempBigIntI
WMh:_Interval_get_Empty_m3617514670
Srg:_Assembly_GetName_m981771927
BWd:__ZNK5physx13NpVolumeCache7raycastERKNS_6PxVec3ES3_fRNS_13PxHitCallbackINS_12PxRaycastHitEEENS_7PxFlagsINS_9PxHitFlag4EnumEtEERKNS_17PxQueryFilterDataEPNS_21PxQueryFilterCallbackE
z4a:__ZNK9GfxDevice27GetActiveRenderSurfaceWidthEv
geg:__ZL114StandaloneInputModule_t2760469101_CustomAttributesCacheGenerator_StandaloneInputModule_ForceAutoSelect_m2837047882P21CustomAttributesCache
gce:__ZN5physx16PxsIslandManagerC2EjRNS_19PxcScratchAllocatorEPNS_2Cm13EventProfilerE
nXe:__ZN11UnityEngine15PlatformWrapper28GetCleanGraphicsFixedVersionEv
z7g:_MaskableGraphic_RecalculateClipping_m1772937317
Zlg:_UnmanagedMemoryStream_SetLength_m3752964620
DJk:_SslStreamBase_RaiseLocalPrivateKeySelection_m4112368540
EBl:__ZN6il2cpp2vm4Type7GetTypeEPK10Il2CppType
Z8d:__ZN5physx13ActorAABBTask11runInternalEv
hVc:__ZN17PhysicsMaterial2D23VirtualRedirectTransferER18StreamedBinaryReadILb0EE
G7b:__ZN16SpriteRenderData28PrepareRenderingDataIfNeededEv
Clh:_InternalEnumerator_1_get_Current_m165106323_AdjustorThunk
uPj:_UTF32Encoding_GetByteCount_m3610769032
_G:__ZN11AudioModule16SetListenerPauseEb
ugi:_Byte_System_IConvertible_ToInt32_m3495522413
tJb:__Z16FindCameraStacksRKNSt3__24listI4PPtrI6CameraENS_9allocatorIS3_EEEERNS_6vectorI11CameraStackNS4_ISA_EEEE
MPk:_MatchCollection_CopyTo_m3807326147
WGa:__ZN10GISettings8TransferI14SafeBinaryReadEEvRT_
jo:FUNCTION_TABLE_vifff
u0g:_MD5CryptoServiceProvider__ctor_m3271163125
kYb:__ZN19CustomRenderTexture12ClearGPUDataEv
nsi:_Guid_Equals_m3683678873
bva:__ZN13RenderTexture13ApplySettingsEv
qWg:_ObjectReader_RegisterObject_m1853376334
Fxg:_ModuleBuilderTokenGenerator_GetToken_m2588853565
xfi:_Boolean_System_IConvertible_ToDecimal_m3176932461_AdjustorThunk
GQb:__ZNSt3__26__treeINS_12__value_typeIi17ShadowCachingDataEENS_19__map_value_compareIiS3_NS_4lessIiEELb1EEE13stl_allocatorIS3_L18MemLabelIdentifier66ELi16EEE25__emplace_unique_key_argsIiJNS_4pairIiS2_EEEEENSD_INS_15__tree_iteratorIS3_PNS_11__tree_nodeIS3_PvEEiEEbEERKT_DpOT0_
yf:_JS_Sound_SetListenerPosition
bo:FUNCTION_TABLE_fiffi
DQe:__Z55Register_UnityEngine_CanvasGroup_get_ignoreParentGroupsv
o3k:_playerMovement_wallJump_m995405507
kEd:__ZN5physx7NpCloth21setLinearInertiaScaleENS_6PxVec3E
Fem:_glGetActiveUniform__wrapper
cXa:__ZNK8Material16MarkDependenciesER27GarbageCollectorThreadState
adh:_Slider_set_handleRect_m1101657556
iLi:_DateTimeOffset_ToString_m3985341516_AdjustorThunk
M$c:__ZN5Unity10FastCookerD2Ev
UAc:__ZL17Transfer_GUIStyleI9JSONWriteLb0EEvRK29SerializationCommandArgumentsR31RuntimeSerializationCommandInfo
DXi:_Array_InternalArray__ICollection_Add_TisContactPoint_t3758755253_m4220022016_gshared
gOb:__Z28GetHaloVertexPositionsStereoP8Vector3fRKS_S2_f
tre:__ZN17TriggerStayStates20executeDeferredEraseEv
W3:__ZN6prcoreL27StretchGenericFloatBilinearI15TexFormatRGHalfEEvPKNS_9InnerInfoE
cOb:__ZN9DepthPass7PrepareER6CameraRK13dynamic_arrayI16RenderObjectDataLj0EERK15RenderNodeQueueRK17ShaderReplaceDatab
Jaa:__ZN9Scripting11UnityEngine12Experimental3U2D10SpriteBone9InitProxyEv
Ari:_SortKey_GetHashCode_m3547067087
q8d:__ZN5physx14PxsAABBManager22processAggregateSingleERKNS_19AggregateSortedDataERKNS_9AggregateEjPNS_2Cm10BitMapBaseINS_6shdfnd9AllocatorEEE
YH:__Z13RegisterClassI12AudioManagerEvPKc
Pnb:__Z18Transfer_BlittableI18StreamedBinaryReadILb0EELb1E9BoundsIntEvRK29SerializationCommandArgumentsR31RuntimeSerializationCommandInfo
lig:__ZL71SpriteState_t1362986479_CustomAttributesCacheGenerator_m_DisabledSpriteP21CustomAttributesCache
WYe:__ZN22BaseUnityConnectClient28UpdateConfigFromServerStaticEPv
RHh:_PublicKey_DecodeDSA_m3490622362
pcc:__Z49Register_UnityEngine_Resources_GetBuiltinResourcev
bde:__ZN5physx2Sc17ParticleSystemSim20scheduleCollisionCpuERNS0_16InteractionSceneERKNS_6shdfnd5ArrayIPS1_NS4_19ReflectionAllocatorIS6_EEEERNS_10PxBaseTaskE
WUj:_Type_GetMethod_m1479779718
WHe:_tt_cmap10_char_index
FSj:_WaitHandle__cctor_m4242752477
bKk:_TlsException__ctor_m3242533711
m3b:__ZN15SerializeTraitsINSt3__24pairIN4core12basic_stringIcNS2_20StringStorageDefaultIcEEEE4PPtrI7TextureEEEE8TransferI24GenerateTypeTreeTransferEEvRSA_RT_
aCi:_SortedList__ctor_m3676552745
nhl:__ZN15dense_hashtableINSt3__24pairIK10KeyWrapperIPK22Il2CppGenericParameterEP11Il2CppClassEES6_N6il2cpp5utils11PointerHashIS4_EEN14dense_hash_mapIS6_S9_SE_NS6_14EqualsComparerINS0_8equal_toIS5_EEEENS0_9allocatorISA_EEE9SelectKeyESJ_SL_E3endEv
wG:__ZN11AudioSource24ClearExtensionPropertiesE12PropertyName
Wpa:__ZN14VertexDataInfo12UpdateFormatEj17ShaderChannelMaskS0_RK19VertexStreamsLayoutRK20VertexChannelsLayout
q4b:__ZN9ShaderLab22SerializedBindChannels8TransferI19StreamedBinaryWriteILb0EEEEvRT_
Ddb:__ZN15SerializeTraitsI5RectTIiEE8TransferI14SafeBinaryReadEEvRS1_RT_
Bwc:__ZN5IMGUI20MoveWindowFromLayoutER8GUIStateiRK5RectTIfE
UAe:_UNITY_FT_Stream_ReadUShort
JKe:_ft_var_get_value_pointer
ytg:_AssemblyBuilder_get_Location_m384539722
aCb:__Z13IsDepthFormat14GraphicsFormat
OQa:__ZN12AspectRatios8TransferI24GenerateTypeTreeTransferEEvRT_
$ng:_MonoType_GetFields_m4176012508
Pyj:__Z73RuntimeInvoker_Single_t1397266774_Vector3_t3722313464_Vector3_t3722313464PFvvEPK10MethodInfoPvPS4_
ng:_emscripten_glUniform1fv
hfe:__ZL28removeBrokenEdgesFromIslandsPKjjS0_jS0_RKN5physx11NodeManagerERNS1_11EdgeManagerERNS1_13IslandManagerERNS1_2Cm10BitMapBaseINS1_6shdfnd9AllocatorEEEPSD_
Ahl:__ZN6il2cpp2vm5Class13GetArrayClassEP11Il2CppClassj
r7e:_StandaloneInputModule_set_inputActionsPerSecond_m4057208843
Sub:__ZN19RuntimeSceneManager18LoadSceneAsyncIntoER10UnitySceneRKN4core12basic_stringIcNS2_20StringStorageDefaultIcEEEENS_11LoadingModeEb
s$g:_HashAlgorithm_ComputeHash_m2044824070
no:FUNCTION_TABLE_iifff
cyc:__ZN11IMGUIModule12AddGUIScriptER8ListNodeI13MonoBehaviourE
Ab:invoke_difi
jWk:_GUILayoutUtility_BeginWindow_m2240221150
vdm:_glDeleteSamplers__wrapper
y_:__ZL50StaticRegisterSceneLoadedCallback_LightmapSettingsPv
dDh:_HybridDictionary_set_Item_m2997363718
yn:FUNCTION_TABLE_iiffi
Irh:_InternalEnumerator_1_get_Current_m1477715453_AdjustorThunk
JEd:__ZNK5physx7NpCloth24getSeparationConstraintsEPNS_35PxClothParticleSeparationConstraintE
WXj:_UInt64_System_IConvertible_ToUInt32_m2784653358
MBb:__ZN21GLESGpuProgramApplier11ApplyVectorERKN20GpuProgramParameters14ValueParameterEPK8Vector4ft
mTb:__Z17PrepareSceneNodesP11CullResults
PYg:_SByte_System_IConvertible_ToDecimal_m2548745278
MBe:_cff_size_done
QTb:__ZN29ExtractProjectionPlanesHelperILb1EE5ApplyERK10Matrix4x4fP5Plane
Lfe:__ZN5physx6shdfnd5ArrayINS_17PxcSolverBodyDataENS0_16AlignedAllocatorILj128ENS0_19ReflectionAllocatorIS2_EEEEE6resizeEjRKS2_
Ghc:__ZN13ProduceHelperI7CubemapLb0EE7ProduceE10MemLabelId18ObjectCreationMode
CYb:__ZN6Camera34UpdatePreviousViewProjectionMatrixEv
bxa:__ZN9ShaderLab11ShaderState25RemoveUnsupportedProgramsEPK6Shader
kMe:__Z28Font_Get_Custom_PropMaterialP12Il2CppObject
rGg:_Mathf_Abs_m3281243566
Zkg:_SynchronizedWriter_WriteLine_m1552352268
l9b:__Z26scripting_class_has_parent17ScriptingClassPtrS_
_re:__ZN13ProduceHelperI9RigidbodyLb0EE7ProduceE10MemLabelId18ObjectCreationMode
kZ:__ZN13RuntimeStaticI21AssetReferenceStorageLb0EE16StaticInitializeEPv
Tti:_Int32_System_IConvertible_ToByte_m3832391412_AdjustorThunk
NG:__Z71Register_UnityEngine_AudioSource_INTERNAL_CALL_ClearExtensionPropertiesv
onh:_InternalEnumerator_1_System_Collections_IEnumerator_get_Current_m4088805473_gshared
Y9:__ZN9Scripting11UnityEngine5Plane12CleanupProxyEv
hn:FUNCTION_TABLE_viiifiii
xwc:__Z36Register_UnityEngine_GUI_set_changedv
dtf:_Context_GetServerContextSinkChain_m3154465897
XBj:__Z81RuntimeInvoker_Int32_t2950945753_Ray_t3785851493_RuntimeObject_Single_t1397266774PFvvEPK10MethodInfoPvPS4_
cXk:_GUIStyle_get_fixedHeight_m2868324709
cEd:__ZN5physx7NpCloth13setTargetPoseERKNS_11PxTransformE
P_l:__GLOBAL__sub_I_Il2CppCodeRegistration_cpp
Pij:_List_1_GetIndex_m3112872964_gshared
Vcf:_Dropdown_set_value_m1048320169
eel:_CustomEventData_Finalize_m1724721833
Pra:__ZN20TierGraphicsSettings8TransferI18StreamedBinaryReadILb0EEEEvRT_
qui:_Int32_System_IConvertible_ToUInt64_m2502338186_AdjustorThunk
s1:__Z33CleanupCubemapGPUUtilityMaterialsPv
etc:__Z43Register_UnityEngine_Material_EnableKeywordv
ndl:__ZL9rshift128PyS_
Oti:_Int16_ToString_m2072232391_AdjustorThunk
Rgj:_Enumerator_VerifyState_m169680537_AdjustorThunk
iAl:__ZN14dense_hash_mapI10KeyWrapperINSt3__24pairIPK12PropertyInfoP11Il2CppClassEEEj17ReflectionMapHashIS8_ENS9_14EqualsComparerINS1_8equal_toIS8_EEEENS1_9allocatorINS2_IKS9_jEEEEE13set_empty_keyERSH_
Mk:_glRenderbufferStorage
PKl:__ZNK15dense_hashtableINSt3__24pairIK10KeyWrapperINS1_IPKcS4_EEEiEES6_24NamespaceAndNamePairHashN14dense_hash_mapIS6_iS9_NS6_14EqualsComparerI26NamespaceAndNamePairEqualsEENS0_9allocatorIS8_EEE9SelectKeyESD_SF_E13find_positionERS7_
tec:__Z45Register_UnityEngine_Input_get_touchSupportedv
rXe:__ZN11UnityEngine15PlatformWrapper28GetTextureFormatSupportFlagsEv
Urg:_Assembly_UnprotectedGetName_m600830855
wUg:_RemotingConfiguration_RegisterWellKnownClientType_m1237674062
rda:__ZN9Scripting5Unity11Collections8LowLevel6Unsafe42NativeDisableUnsafePtrRestrictionAttribute9InitProxyEv
lUk:_Uri_EscapeString_m3864445955
uCe:_cf2_setError
oIa:__ZN14SafeBinaryRead21TransferSTLStyleArrayI13dynamic_arrayI12BoneWeights4Lj16EEEEvRT_17TransferMetaFlags
$Hb:__ZZ23InitPlayerLoopCallbacksvEN35PreUpdateSendMouseEventsRegistrator7ForwardEv
fma:__ZNK6Camera25GetNormalizedViewportRectEP13RenderTextureb
Wcf:_Dropdown_Awake_m3140021404
Dh:_glDisable
J6l:_llvm_ctlz_i64
_b:invoke_vffff
GRg:_Vector2_get_sqrMagnitude_m837837635
PTl:__ZN6il2cpp5utils11StringUtils15StringDuplicateEPKDsj
aSk:_Regex_Match_m4145799399
p5h:_String_IsNullOrEmpty_m2969720369
C9k:_TextGenerator_GetPreferredHeight_m3514897836
w$i:_BigInteger_LowestSetBit_m3082714978
Rik:_Array_InternalArray__Insert_TisKeyValuePair_2_t2530217319_m1769848997_gshared
m3c:__ZN5physx10getInverseERNS_7PxMat33ERNS_6PxVec3ERKS0_RKS2_
Jhm:b118
Khm:b119
oJb:__ZNK8Material12GetPassCountEv
BZh:_RSAParameters_t1728406613_marshal_pinvoke
dNh:_Interval_IsDisjoint_m1532171337_AdjustorThunk
Dgm:b112
v6l:_bitshift64Ashr
Hgm:b114
Igm:b115
Kgm:b116
Lgm:b117
$7l:dynCall_diii
z6g:_LayoutUtility_GetFlexibleWidth_m22831835
$Vg:_BinaryFormatter__ctor_m971003555
Cgh:_ArrayReadOnlyList_1_ReadOnlyError_m865416608_gshared
gVb:__Z18AddGroupToWorkloadR26BlockRangeBalancedWorkloadjR13dynamic_arrayI10BlockRangeLj0EERS1_IjLj0EE
sli:_CollectionBase_System_Collections_IList_get_Item_m3743372945
KAi:_Stream_ReadByte_m4291052673
hDa:__ZN4crnd12crn_unpacker22decode_alpha_endpointsEv
Cel:_Physics_Raycast_m1896872038
VBk:_Queue_1__ctor_m2068090025_gshared
EUb:__Z23CullDynamicObjectsUmbraPK4AABBPKN5Umbra15OcclusionBufferER9IndexList
CJk:_SslStreamBase_RaiseRemoteCertificateValidation2_m2908038766
iIe:_tt_cmap4_char_next
mbf:_ColorTween_set_startColor_m2562993758_AdjustorThunk
xlj:__Z50RuntimeInvoker_Boolean_t97287965_Int16_t2552820387PFvvEPK10MethodInfoPvPS4_
U$:__ZN17DirectorFrameTime14ResetDSPValuesEv
LFi:_Convert_ToDecimal_m1233667008
UBj:__Z44RuntimeInvoker_RuntimeObject_Ray_t3785851493PFvvEPK10MethodInfoPvPS4_
HZe:__ZN22UnityAnalyticsSettings10SetEnabledEb
nA:__ZN4FMOD7Channel11setPositionEjj
vi:_glBindSampler
AXl:_GC_reclaim_block
kTh:_ClientContext_get_ClientHelloProtocol_m1654639078
wud:__ZN5physx2Sc8BodyCore20clearSpatialVelocityEbb
zi:_glGetVertexAttribiv
nBh:_Enumerator_System_Collections_IEnumerator_get_Current_m1975949486_gshared
tQk:_PatternCompiler_EmitSub_m193323684
wZi:_MSCompatUnicodeTable_Category_m1834196420
p_d:__ZN5physx6shdfnd5ArrayINS_9PxBounds3ENS0_15InlineAllocatorILj192ENS0_19ReflectionAllocatorIS2_EEEEE8recreateEj
xda:__ZN9Scripting5Unity11Collections8LowLevel6Unsafe49NativeContainerSupportsDeferredConvertListToArray9InitProxyEv
_Dc:__ZN8JSONRead8TransferIbEEvRT_PKc17TransferMetaFlagsb
Whd:__ZN5physx6shdfnd5ArrayIPvNS0_19ReflectionAllocatorINS_2Sc24ElementInteractionMarkerEEEE4copyINS0_15InlineAllocatorILj256ES6_EEEEvRKNS1_IS2_T_EE
LTj:_TimeSpan_ToString_m1128692466
WBd:__ZNK5physx7NpShape15getGeometryTypeEv
aZk:_AesManaged_CreateEncryptor_m2294080233
MVk:_Event_GetHashCode_m3559153592
eOj:_StringBuilder__ctor_m2367297767
dWl:_GC_promote_black_lists
upi:_CultureInfo_construct_datetime_format_m1928121315
OEc:__Z29Transfer_Blittable_ArrayFieldI8JSONRead8Vector4fEvRT_R9ArrayInfoRK23StaticTransferFieldInfo
fog:_Binder_GetDerivedLevel_m3216810447
qp:FUNCTION_TABLE_vd
sp:FUNCTION_TABLE_vi
bR:__ZN13RuntimeStaticI37UnityShaderCompilerExtPluginConfigureLb0EE16StaticInitializeEPv
ipc:__ZN10systeminfo24GetRuntimePlatformStringEv
HOj:_StringBuilder_AppendFormat_m2403596038
g$g:_DSASignatureDeformatter_SetHashAlgorithm_m3186995552
C3j:_ReadOnlyCollection_1_System_Collections_Generic_ICollectionU3CTU3E_Clear_m2772202961_gshared
F5d:__ZN5physxL25solveContact4_StaticBlockEPKNS_23PxcSolverConstraintDescERNS_16PxcSolverContextE
Nw:__ZNK8Animator17HasBoundPlayablesEv
WUc:__ZN17Physics2DSettings8TransferI24GenerateTypeTreeTransferEEvRT_
jpf:_ResourceSet_ReadResources_m3663669011
sRj:_SynchronizationContext_SetSynchronizationContext_m1249070039
ycd:__ZNK5physx3Cct17CapsuleController15getFootPositionEv
fzk:_List_1_AddEnumerable_m1267044261_gshared
Qpj:__Z99RuntimeInvoker_Void_t1185182177_RuntimeObject_Int32_t2950945753_SByte_t1669577662_SByte_t1669577662PFvvEPK10MethodInfoPvPS4_
o_g:_KeySizes__ctor_m3113946058
Lyc:__ZN5Unity9rapidjson12PrettyWriterI16TempBufferWriterNS0_4UTF8IcEES4_13JSONAllocatorE10StartArrayEv
ada:__ZN9Scripting11UnityEngine16AndroidJNIHelper12CleanupProxyEv
Aa:invoke_iiifiii
sNg:_RectTransform_INTERNAL_get_pivot_m2970933031
Kfk:_UnityAction_1_Invoke_m927447181_gshared
XHl:__ZN6il2cpp2vm9Exception11FromNameMsgEPK11Il2CppImagePKcS6_S6_
Sn:FUNCTION_TABLE_fiiifii
M5d:__ZN5physx25solveContact_BStaticBlockEPKNS_23PxcSolverConstraintDescEjRNS_16PxcSolverContextE
U0:__Z14GetTimeManagerv
$Ag:_Color32_op_Implicit_m213813866
XMg:_RectOffset_set_top_m713260669
alc:__ZneRK20SpriteTilingPropertyS1_
v0e:__ZN19TransportJavaScript7CleanupEv
Sbc:__Z12GUIDToStringRK9UnityGUIDPc
LZ:__ZN15FileSystemEntry4LockE12FileLockModeP12FileAccessor
s8:__ZN9Scripting11UnityEngine10Vector3Int12CleanupProxyEv
ngm:_emscripten_glDrawArrays__wrapper
bRk:_Parser__ctor_m3200411199
zui:_Int32_Equals_m2976157357
CAj:__Z110RuntimeInvoker_Int32_t2950945753_Int32_t2950945753_Int32_t2950945753_Int32U26_t1369213839_Int32U26_t1369213839PFvvEPK10MethodInfoPvPS4_
m4c:__ZL4facejjjRN5physx6PxVec3ERKS0_S3_S3_PfRf
zXd:__ZN5physx6shdfnd5ArrayIPNS_2Sc14ConstraintCoreENS0_19ReflectionAllocatorIS4_EEE6resizeEjRKS4_
PLk:_BasicConstraintsExtension_Encode_m2009213240
VKk:_TlsException__ctor_m3717683709
MTl:__ZN4utf88internal20is_overlong_sequenceIiEEbjT_
Rll:__ZN6il2cpp2vm13MetadataCache8RegisterEPK22Il2CppCodeRegistrationPK26Il2CppMetadataRegistrationPK20Il2CppCodeGenOptions
rs:__Z9SetLocalR15TransformAccessRKN4math7_float4Ey
Cge:__ZL18getFrictionPatchesRN5physx26PxcFrictionPatchStreamPairERNS_20PxcCorrelationBufferEPKhjRKNS_11PxTransformES8_f
xqg:_NumberFormatter_AppendExponent_m1258666517
f9b:__Z41Register_UnityEngine_Cursor_get_lockStatev
xPb:__Z14SetupLightmapsRK8Vector4fS1_R17ShaderPassContext
Iyl:__ZN14dense_hash_mapI10KeyWrapperIPK14Il2CppAssemblyEPK22Il2CppMonoAssemblyNameN6il2cpp5utils11PointerHashIS2_EENS4_14EqualsComparerINSt3__28equal_toIS3_EEEENSD_9allocatorINSD_4pairIKS4_S7_EEEEE13set_empty_keyERSJ_
wwa:__ZL20InitializeGUIShadersv
hsi:_Guid_CompareTo_m243656946
Akc:__Z20DestroyObjectDelayedP6Objectf
_O:__ZN20DynamicHeapAllocatorI17LowLevelAllocatorED0Ev
kVe:__ZL56__ManagedRegistrationHelperFunction_AnalyticsSessionInfoPv
mTc:__ZN10ClipperLib11ClipperBase5ResetEv
BCj:__Z159RuntimeInvoker_Boolean_t97287965_Vector3U26_t3464235976_Vector3U26_t3464235976_RaycastHitU26_t2429360258_Single_t1397266774_Int32_t2950945753_Int32_t2950945753PFvvEPK10MethodInfoPvPS4_
Elc:__ZN11TimeManagerC2E10MemLabelId18ObjectCreationMode
S_c:__ZN8Collider16RecreateColliderEPK9Rigidbody
FMb:__ZN9DepthPassD2Ev
Rz:__ZN11AudioFilter6GetDSPEv
qwe:__ZN13PhysicsModule31GetColliderComponentsInChildrenERK10GameObjectbbR13dynamic_arrayIPN5Unity9ComponentELj0EE
izd:__ZN5physx2Sc14ConstraintCore9setBodiesEPNS0_9RigidCoreES3_
X9g:_Scrollbar_OnDrag_m4289602768
XT:__ZN19RuntimeSceneManager14CanUnloadSceneEP10UnityScene
IMb:__Z22ExtractRenderNodeQueueRK11CullResults15ExtractionFlagsR15RenderNodeQueue
$te:__ZN5physx6shdfnd8PoolBaseINS_24NpPtrTableStorageManager8PtrBlockILi64EEENS0_19ReflectionAllocatorIS4_EEE12allocateSlabEv
JC:__ZN24AudioScriptBufferManagerC2Ev
uGc:__ZN11UnityEngine9Analytics18SceneLoadTimeEvent12ToJsonStringER9JSONWrite
HKc:__ZN22FindParticleCollisions22ProcessFoundCollisionsERKfRK13dynamic_arrayI15BatchedRaycastsLj0EERS2_I20BatchedRaycastResultLj0EERS2_I21BatchedColliderResultLj0EE
Eze:__ZNSt3__26vectorIh13stl_allocatorIhL18MemLabelIdentifier1ELi16EEE8__appendEj
Mph:_InternalEnumerator_1_System_Collections_IEnumerator_get_Current_m3854084659_AdjustorThunk
ezc:__ZN8JSONRead32GetValueForKeyWithNameConversionEPKN5Unity9rapidjson12GenericValueINS1_4UTF8IcEE13JSONAllocatorEEPKc
Ffh:_U3CGetEnumeratorU3Ec__Iterator0_System_Collections_IEnumerator_get_Current_m283764921_gshared
$ni:_CultureInfo_get_IcuName_m2258611679
Mzc:__Z18Transfer_BlittableI9JSONWriteLb0EfEvRK29SerializationCommandArgumentsR31RuntimeSerializationCommandInfo
rva:__Z21GetAsyncUploadManagerv
lk:_emscripten_glDetachShader
cCj:__Z129RuntimeInvoker_Int32_t2950945753_Vector3U26_t3464235976_Vector3U26_t3464235976_Single_t1397266774_Int32_t2950945753_RuntimeObjectPFvvEPK10MethodInfoPvPS4_
rrd:__ZNK5physx2Sc15ArticulationSim16createDriveCacheEfj
BLa:__ZN17GenericDynamicVBO20ReleaseChunkInternalERK21DynamicVBOChunkHandlejj
uNe:__ZL27CleanupModule_TextRenderingv
J3i:_SymmetricTransform_OFB_m3842617151
Skb:__Z18Transfer_BlittableI18StreamedBinaryReadILb1EELb1E4AABBEvRK29SerializationCommandArgumentsR31RuntimeSerializationCommandInfo
zfd:__ZN5physx6shdfnd5ArrayIPNS_3Scb5ActorENS0_19ReflectionAllocatorIS4_EEE6resizeEjRKS4_
Xub:__ZN19RuntimeSceneManager11CreateSceneEv
EAg:_Color__ctor_m286683560
aQk:_PatternCompiler_Emit_m1540115729
tGe:_ps_get_standard_strings
cQb:__Z27SetupBakedOcclusionForLightbRK15SharedLightDataR17ShaderPassContext
ZKg:_PropertyName_op_Implicit_m1633828199
L$l:__ZN6il2cpp2os5Mutex6UnlockEv
J7h:_EncoderFallbackException__ctor_m1051987327
mAd:__ZN5physx7NpScene14removeMaterialERNS_10NpMaterialE
Hld:__ZN5physx16PxsIslandManager24setEdgeArticulationJointERKNS_20PxsIslandManagerHookIjLj4294967295EEE
SLi:_Decimal_System_IConvertible_ToBoolean_m1123794670
G7d:__ZN5physx16PxsBroadPhaseMBP7destroyEv
oud:__ZN5physx2Sc10NPhaseCore25addToDirtyInteractionListEPNS0_15CoreInteractionE
yHj:__Z98RuntimeInvoker_Int32_t2950945753_RaycastResult_t3360306849_RaycastResult_t3360306849_RuntimeObjectPFvvEPK10MethodInfoPvPS4_
K6g:_Mask__ctor_m1269055150
tMf:__ZL99WaitHandle_t1743403487_CustomAttributesCacheGenerator_WaitHandle_t1743403487____Handle_PropertyInfoP21CustomAttributesCache
QGh:_WebRequest_AddPrefix_m3187775913
XJb:__Z18RenderImageFiltersR10RenderLoopb
OQe:__Z43CanvasRenderer_Get_Custom_PropMaterialCountP12Il2CppObject
mQb:__ZNSt3__227__insertion_sort_incompleteIR23CompareReflectionProbesP31RuntimeReflectionProbeBlendInfoEEbT0_S5_T_
Lvk:_List_1_Remove_m1457733883_gshared
zEi:_DateTime_IsLetter_m156019844
Hhe:__ZN5physx2Cm12DelegateTaskINS_2Sc5SceneEXadL_ZNS3_19islandGenSecondPassEPNS_10PxBaseTaskEEEE11runInternalEv
amb:__ZN18StreamedBinaryReadILb1EE21TransferSTLStyleArrayI13dynamic_arrayIdLj0EEEEvRT_17TransferMetaFlags
ibc:__ZN19RuntimeSceneManager32LoadSceneAsyncByNameOrBuildIndexERKN4core12basic_stringIcNS0_20StringStorageDefaultIcEEEEiNS_11LoadingModeEb
Gzd:__ZN5physx6shdfnd4sortIPvNS0_4LessIS2_EENS0_19ReflectionAllocatorINS_10NpMaterialEEEEEvPT_jRKT0_RKT1_j
tQh:_MD4Managed_Encode_m386285215
XZ:__ZN10InputEventD2Ev
Lv:__ZN7mecanim4hand8HandPoseC2Ev
g$e:__ZN22UnityWebRequestManagerD2Ev
RVk:_Event_get_character_m1666742088
Rtb:__Z20SetPlayerPauseDirect11PlayerPause
Edd:__ZN5physx3Cct15ObstacleContext13onOriginShiftERKNS_6PxVec3E
H2l:_isalpha
jEi:_Convert_ToChar_m1442101407
tSd:__ZN5physx6shdfnd8PoolBaseINS_2Gu31SpherePersistentContactManifoldENS0_19ReflectionAllocatorIS3_EEE12allocateSlabEv
dmd:__ZN5physx6shdfnd5ArrayIPNS_2Sc7BodySimENS0_19ReflectionAllocatorIS4_EEE8recreateEj
Pfc:__ZZL31RegisterRectTransformPropertiesR22GenericPropertyBindingEN28Wrapper_RectTransformPivoty113SetFloatValueEPvf
cIc:__ZNK12b2MotorJoint17GetReactionTorqueEf
kLi:_DateTimeOffset_get_Offset_m2040541042_AdjustorThunk
Sql:__ZN6il2cpp2vmL17IsSocketAsyncCallEP14Il2CppDelegate
EBi:_Slot_t3975888750_marshal_pinvoke_back
bUl:__ZN6il2cpp2vm6String6NewLenEPKcj
k4g:_Selectable_get_image_m1928917691
Asb:__ZN17PersistentManager9AddStreamEv
Fl:_time
bbf:_ContentSizeFitter_set_verticalFit_m1831566876
Y$h:_TripleDESCryptoServiceProvider_CreateDecryptor_m740960117
LDj:__Z122RuntimeInvoker_Void_t1185182177_Color_t2555686324_Single_t1397266774_SByte_t1669577662_SByte_t1669577662_SByte_t1669577662PFvvEPK10MethodInfoPvPS4_
Rgd:__ZNK5physx2Sc8ShapeSim15getPxsRigidCoreEv
G2:__ZN18SpriteAtlasManagerD2Ev
kGg:_Material_EnableKeyword_m329692301
Vhd:__ZN5physx2Sc20ContactStreamManager28fillInContactReportExtraDataEPNS_17PxContactPairPoseEjRKNS0_8RigidSimEb
hDe:_cf2_stack_free
dFd:__ZN5physx7NpCloth23removeCollisionTriangleEj
U_h:_SHA512Managed_HashCore_m2377807474
yvi:_Int64_Parse_m3309897583
Moi:_CompareInfo_IndexOf_m667936183
vsk:_List_1_System_Collections_IList_Insert_m1011775503_gshared
cGb:__ZN26SinglePassStereoSupportExt18AfterSetViewMatrixEv
lzg:_Bounds__ctor_m1937678907_AdjustorThunk
NOg:_SetupCoroutine_InvokeMember_m2661944898
iej:_HashSet_1__ctor_m620629637_gshared
jFg:_Input_GetAxisRaw_m2316819917
J3d:__ZNK5physx2Gu29EPASupportMapPairRelativeImplINS0_9TriangleVENS0_11ConvexHullVEE9doSupportERKNS_6shdfnd3aos5Vec3VERS7_SA_SA_
vul:__ZN15dense_hashtableINSt3__24pairIK10KeyWrapperINS1_IPK9FieldInfoP11Il2CppClassEEEjEES9_17ReflectionMapHashIS8_EN14dense_hash_mapIS9_jSD_NS9_14EqualsComparerINS0_8equal_toIS8_EEEENS0_9allocatorISB_EEE9SelectKeyESI_SK_E4findERSA_
Wub:__ZN13LoadOperationC2E10MemLabelId
AVa:__ZNK9Transform21GetLocalToWorldMatrixEv
l1g:_InputField_SendOnValueChanged_m2560301445
yKb:__ZN13RenderTexture19SetAutoGenerateMipsEb
bua:__Z20GetTextureFormatInfo13TextureFormat
wEh:_TypeConverterAttribute_Equals_m1580461255
DRh:_RSAManaged_ToXmlString_m2369501989
qMi:_Decimal_System_IConvertible_ToUInt64_m1323635232_AdjustorThunk
qvf:_LogicalCallContext__ctor_m1263247987
EJi:_DateTime_System_IConvertible_ToSingle_m2193708681_AdjustorThunk
Ypb:__ZNK35ScriptingManagedObjectProxyRegistry11InitProxiesEv
_gf:_Image_get_alphaHitTestMinimumThreshold_m2015654453
Txf:__ZL64String_t_CustomAttributesCacheGenerator_String_Split_m3580120853P21CustomAttributesCache
b_l:__ZN6il2cpp5utils10MemoryPool6MallocEj
gA:__ZN11SoundHandle8InstanceD2Ev
Vof:_ResourceEnumerator_Reset_m3754276504
A1:__ZN31CanvasBatchIntermediateRenderer13StaticDestroyEPv
vVd:__ZN5physx13NpVolumeCache13onOriginShiftERKNS_6PxVec3E
_Vd:__ZNK5physx2Sc5Scene20getBroadPhaseRegionsEPNS_22PxBroadPhaseRegionInfoEjj
OAb:__ZNSt3__26__treeI17DeviceRasterState14MemoryCompLessIS1_ENS_9allocatorIS1_EEE25__emplace_unique_key_argsIS1_JS1_EEENS_4pairINS_15__tree_iteratorIS1_PNS_11__tree_nodeIS1_PvEEiEEbEERKT_DpOT0_
Udm:_emscripten_glBindProgramARB__wrapper
tNg:_RectTransform_set_pivot_m909387058
c9b:__Z41Register_UnityEngine_CullingGroup_Disposev
qwd:__ZN5physx14NpShapeManagerD2Ev
xQk:_PatternCompiler_EmitRepeat_m697083858
$Ba:__ZN7Cubemap23VirtualRedirectTransferER19StreamedBinaryWriteILb0EE
ftl:__ZN6il2cpp2vm7Runtime47RaiseExecutionEngineExceptionIfMethodIsNotFoundEPK10MethodInfoPK19Il2CppGenericMethod
Gv:__Z14FindAvatarRootPKN7mecanim8skeleton8SkeletonEPKjR9Transformb
Y0a:__ZN25MultiBlocksMemoryFileData5WriteEyyPKv
XIc:__ZNK13b2PulleyJoint16GetReactionForceEf
xof:_ResourceReader_Read7BitEncodedInt_m3568166465
x1i:_BlockProcessor_Core_m2138791525
pbl:_CanvasGroup_set_alpha_m4032573
$ci:_Array_get_LongLength_m978104875
HCb:__ZL17ProgramUniform2fvPK7ApiGLESjiihPKv
fem:b83
Fvd:__ZN5physx2Sc5Scene16removeConstraintERNS0_14ConstraintCoreE
Aze:__ZN20TextRenderingPrivate8FontImpl21HasCharacterInTextureEjijfPj
MQg:_Transform_SetAsFirstSibling_m253439912
NJi:_DateTime_System_IConvertible_ToUInt16_m4182197229_AdjustorThunk
XMh:_Interval_get_IsDiscontiguous_m3016063288
EJk:_SslStreamBase_get_CheckCertRevocationStatus_m2739906607
_3l:_htonl
iAb:__Z20GetBufferManagerGLESv
eem:b82
qPf:__ZL65NonSerializedAttribute_t2945079482_CustomAttributesCacheGeneratorP21CustomAttributesCache
Lob:__ZN18StreamedBinaryReadILb0EE21TransferSTLStyleArrayI31ArrayOfManagedObjectsTransfererEEvRT_17TransferMetaFlags
qZd:__ZN5physx2Sc18ParticleSystemCore18addDeltaVelocitiesERKNS_2Cm10BitMapBaseINS_6shdfnd9AllocatorEEEPKNS_6PxVec3Ef
W6:__ZL60__ManagedRegistrationHelperFunction_FailedToLoadScriptObjectPv
YCc:__Z18Transfer_BlittableI8JSONReadLb0EtEvRK29SerializationCommandArgumentsR31RuntimeSerializationCommandInfo
lee:__ZN5physx6shdfnd8PoolBaseINS_2Sc16ActorElementPairENS0_19ReflectionAllocatorIS3_EEE12allocateSlabEv
MU:__Z16GenerateTypeTreeRK6ObjectR8TypeTree24TransferInstructionFlags
Epi:_CultureInfo_CreateCulture_m1493441763
Q$h:_TripleDES_IsWeakKey_m2147489852
QAd:__ZNK5physx9NpPhysics17getNbClothFabricsEv
az:__ZN12AudioManager21FixMasterGroupRoutingEv
cLa:__ZNK19ShaderPropertySheet11HasPropertyERKN9ShaderLab16FastPropertyNameE
vWc:__ZN6b2Body9SetActiveEb
tGj:__Z81RuntimeInvoker_Boolean_t97287965_NavigationU26_t1807167253_Navigation_t3049316579PFvvEPK10MethodInfoPvPS4_
egm:_emscripten_glUniform1fv__wrapper
OYa:__ZN2UI13RectTransform19SetAnchoredPositionERK8Vector2f
mgf:_GridLayoutGroup_SetLayoutHorizontal_m2838109254
Woe:__ZL10UpdateLinkjjjjPN5physx11AdjTriangleERKNS_17ADJACENCIESCREATEE
tcf:_Dropdown_RefreshShownValue_m2806045241
ykd:__ZN5physx2Sc16InteractionScene19registerInteractionEPNS0_11InteractionEb
Tab:__Z18Transfer_BlittableI14SafeBinaryReadLb1E4AABBEvRK29SerializationCommandArgumentsR31RuntimeSerializationCommandInfo
i5d:__ZN5physx19solveContactCoulombERKNS_23PxcSolverConstraintDescERNS_16PxcSolverContextE
bZl:_GC_set_no_dls
waf:_ColorBlock_set_normalColor_m254595671_AdjustorThunk
yYj:_UnauthorizedAccessException__ctor_m40101894
loh:_InternalEnumerator_1_get_Current_m1007906068_gshared
Jhd:__ZNK5physx2Sc9ActorPair23createContactReportDataEv
Kda:__ZN9Scripting5Unity11Collections34DeallocateOnJobCompletionAttribute12CleanupProxyEv
ITe:__ZN11UnityEngine9Analytics15AnalyticsConfig12EventsConfig8TransferI8JSONReadEEvRT_
$ji:_SimpleEnumerator_Reset_m1520014659
SE:__ZN9AudioClip7WWWOpenEPKciPjPPvS4_
wtd:__ZN5physx18NpArticulationLink18setAngularVelocityERKNS_6PxVec3Eb
Kab:__Z18Transfer_BlittableI14SafeBinaryReadLb0E8Vector2fEvRK29SerializationCommandArgumentsR31RuntimeSerializationCommandInfo
lVh:_Context_set_ProtocolNegotiated_m2904861662
NKl:__ZN15dense_hashtableINSt3__24pairIK10KeyWrapperINS1_IPKcS4_EEEiEES6_24NamespaceAndNamePairHashN14dense_hash_mapIS6_iS9_NS6_14EqualsComparerI26NamespaceAndNamePairEqualsEENS0_9allocatorIS8_EEE9SelectKeyESD_SF_E12resize_deltaEjj
KTg:_RemotingServices_GetRemoteObject_m2117098022
Gbl:_CanvasRenderer_SetTexture_m1600559835
$_j:_Collection_1_System_Collections_IList_IndexOf_m4256072926_gshared
Koj:__Z132RuntimeInvoker_Boolean_t97287965_RuntimeObject_Int32_t2950945753_Int32_t2950945753_RuntimeObject_Int32_t2950945753_Int32_t2950945753PFvvEPK10MethodInfoPvPS4_
oec:__Z53Register_UnityEngine_Input_INTERNAL_get_mousePositionv
aAb:__ZN7ApiGLES12DrawElementsE16GfxPrimitiveTypePKvjjjj
_2i:_EncryptedPrivateKeyInfo_get_Salt_m3453455261
f1g:_InputField_get_shouldHideMobileInput_m2205078558
EEi:_DateTime__ParseNumber_m1240316250
vFc:__ZN8JSONRead21TransferSTLStyleArrayI13dynamic_arrayIfLj0EEEEvRT_17TransferMetaFlags
Y$d:__ZN5physx6shdfnd8PoolBaseINS_2Sc19ShapeInstancePairLLENS0_19ReflectionAllocatorIS3_EEE15disposeElementsEv
o3h:_Single_System_IConvertible_ToSingle_m1939829239_AdjustorThunk
kuf:_LeaseManager__ctor_m4015084757
AO:__GLOBAL__sub_I_Runtime_Utilities_6_cpp
Bkh:_InternalEnumerator_1_get_Current_m3839250771_gshared
_Gg:_Mesh_Internal_Create_m2853543051
gpi:_CultureInfo_get_TextInfo_m2342840448
v4c:__ZN5physx2Gu14sweepTriSphereERKNS_10PxTriangleERKNS_6PxVec3ES6_fS6_Rf
cWi:_Array_InternalArray__IndexOf_TisMark_t3471605523_m2905388260_gshared
Jd:_SDL_GetTicks
_Se:__ZN2UI14CanvasRenderer11SyncCullingENS0_8SyncFlagE
rwl:__ZN15dense_hashtableINSt3__24pairIK10KeyWrapperINS1_IPK11Il2CppImageP11Il2CppClassEEEjEES9_17ReflectionMapHashIS8_EN14dense_hash_mapIS9_jSD_NS9_14EqualsComparerINS0_8equal_toIS8_EEEENS0_9allocatorISB_EEE9SelectKeyESI_SK_E6insertERKSB_
Ev:__Z16AppendPathToHashRKN7mecanim5crc32EPKc
hUb:__Z21CreateShadowCullerJobP30CreateUmbraShadowCullerJobData
iFd:__ZNK5physx7NpCloth21getNbVirtualParticlesEv
Xge:__ZN5physx17PxcNpMemBlockPool23releaseConstraintBlocksERNS_6shdfnd5ArrayIPNS_13PxcNpMemBlockENS1_19ReflectionAllocatorIS4_EEEE
h7j:_ReadOnlyCollection_1_System_Collections_Generic_ICollectionU3CTU3E_Remove_m4072504734_gshared
zCb:__ZL18ProgramUniform2uivPK7ApiGLESjiihPKv
f9e:_U3COnFinishSubmitU3Ec__Iterator0_MoveNext_m2729496168
Ohk:_IndexedSet_1_AddUnique_m861843892_gshared
Gfm:_glUniform4iv__wrapper
RQb:__Z33GenerateShadowCasterPartsSortDataRK16ShadowCasterDatajRK15RenderNodeQueueRKNSt3__26vectorI20ShadowCasterPartData13stl_allocatorIS7_L18MemLabelIdentifier2ELi16EEEERK10Matrix4x4fRjP20ShadowCasterSortData
oIb:__ZZ23InitPlayerLoopCallbacksvEN51PostLateUpdateTriggerEndOfFrameCallbacksRegistrator7ForwardEv
oTj:_TimeSpan_Compare_m753151303
g4a:__ZN9GfxDevice16DynamicBatchMeshERK10Matrix4x4fPKhjjPKtj26GfxTransformVerticesParams25GfxTransformVerticesFlagsj
Sdb:__Z29Transfer_Blittable_ArrayFieldI14SafeBinaryRead9BoundsIntEvRT_R9ArrayInfoRK23StaticTransferFieldInfo
rud:__ZN5physx2Sq17SceneQueryManager13markForUpdateEPNS0_10ActorShapeE
oCe:_cf2_computeDarkening
scl:_AnimationLayerMixerPlayable__ctor_m860721801_AdjustorThunk
Jmf:_MonoPropertyInfo_get_property_info_m1599555644
F_g:_DESTransform_CipherFunct_m3527261721
zWl:_GC_expand_hp_inner
Hc:invoke_viiiififfi
Wtc:__Z25Screen_Get_Custom_PropDpiv
JDg:_UnityEventBase_RebuildPersistentCallsIfNeeded_m216788690
BTl:__ZN4utf812find_invalidIPKcEET_S3_S3_
m3g:_InputField_OnEndDrag_m4127187089
G9j:_ReadOnlyCollection_1_System_Collections_IList_RemoveAt_m2555465054_gshared
eBf:__ZL72RuntimeCompatibilityAttribute_t1169614002_CustomAttributesCacheGeneratorP21CustomAttributesCache
YTb:__Z59ProcessShadowCasterNodeVisibilityAndCullWithoutUmbra_KernelILN17CullingParameters9LayerCullE2ELi8EEvR9IndexListRK22SceneCullingParametersPK9SceneNodePK4AABBjjPKN4math7_float4E
BNi:_StackFrame__ctor_m343464319
tL:__ZN11UnityEngine15CloudWebService20WebRequestRestClient7PrepareEv
Rlf:_MonoField_CheckGeneric_m453069507
nze:__ZN20TextRenderingPrivate19NativeTextGenerator23FixLineHorizontalOffsetEiii
Mob:__Z19TransferField_ArrayI18StreamedBinaryReadILb0EE27Converter_UnityEngineObjectEvRK23StaticTransferFieldInfoR31RuntimeSerializationCommandInfoRT0_
EWg:_ObjectReader_ReadArrayOfString_m3550800559
Zmg:_MonoCustomAttrs_GetCustomAttributesInternal_m648304078
bba:__ZN9Scripting11UnityEngine12Experimental9Rendering16CameraProperties9InitProxyEv
g2a:__ZN16MemoryFileSystem4OpenER13FileEntryData14FilePermission16FileAutoBehavior
Hoi:_CompareInfo_GetSortKey_m1915852346
NKe:_ft_var_load_avar
l1:__ZN13RuntimeStaticI13RendererSceneLb0EE13StaticDestroyEPv
esh:_DefaultComparer_Compare_m1297750557_gshared
KTh:_CipherSuiteCollection_get_Item_m3790183696
Zgb:__Z18Transfer_BlittableI24GenerateTypeTreeTransferLb1E12PropertyNameEvRK29SerializationCommandArgumentsR31RuntimeSerializationCommandInfo
E$k:_Toggle_OnEnable_m1421694809
BRa:__ZN14SafeBinaryRead21TransferSTLStyleArrayI10vector_mapIPKN5Unity4TypeE7Hash128NSt3__24lessIS5_EENS7_9allocatorINS7_4pairIS5_S6_EEEEEEEvRT_17TransferMetaFlags
RE:__ZN9AudioClip18GetQueuedAudioDataEPPvj
iNe:__ZN20TextRenderingPrivate21TextMeshGeneratorImpl14GarbageCollectEv
rPc:__ZN25b2SynchronizeFixturesTask19CreateDeferredMovesEv
h6b:__ZNK9Texture2D17CheckHasPixelDataEv
jPc:__ZN15b2ContactSolver13StoreImpulsesEv
Nib:__Z18Transfer_BlittableI19StreamedBinaryWriteILb0EELb0E9BoundsIntEvRK29SerializationCommandArgumentsR31RuntimeSerializationCommandInfo
gFd:__ZNK5physx7NpCloth16getCollisionDataEPNS_22PxClothCollisionSphereEPjPNS_21PxClothCollisionPlaneES3_PNS_24PxClothCollisionTriangleE
pMb:__Z18SetShadowsKeywordsR17ShaderPassContext9LightType10ShadowType16ShadowProjectionbb
qff:_Graphic_GetPixelAdjustedRect_m3729397999
hAl:__ZN14dense_hash_mapI10KeyWrapperINSt3__24pairIPK12PropertyInfoP11Il2CppClassEEEj17ReflectionMapHashIS8_ENS9_14EqualsComparerINS1_8equal_toIS8_EEEENS1_9allocatorINS2_IKS9_jEEEEEC2EjRKSB_RKSF_
iic:__ZN17CollisionMeshDataC2Ev
Vrf:_ConfigHandler_CheckPath_m3079311646
B0d:__ZN5physx2Sq11PruningPool11preallocateEj
kqf:_Marshal_Copy_m1222846562
J5b:__ZL24FindBelongingStructParamRPKcRNSt3__26vectorIN9ShaderLab20SerializedSubProgram14ConstantBufferENS2_9allocatorIS6_EEEE
rIb:__ZZ23InitPlayerLoopCallbacksvEN47PostLateUpdateMemoryFrameMaintenanceRegistrator7ForwardEv
cAb:__ZN7ApiGLES20SetVertexArrayAttribEjj12VertexFormathjPKv
kXl:_GC_push_next_marked
$Va:__ZN18IDCollectorFunctor18GenerateInstanceIDEi17TransferMetaFlags
Wpk:_GameObject_GetComponent_TisRuntimeObject_m2049753423_gshared
iPc:__ZN15b2ContactSolver9WarmStartEv
c9k:_TextGenerationSettings_Equals_m3618607189_AdjustorThunk
VDh:_NameObjectCollectionBase_BaseAdd_m3437748750
Sud:__ZN5physx2Sc17ParticleSystemSim15onRbShapeChangeERKNS0_19ParticlePacketShapeERKNS0_8ShapeSimE
HUj:_Type_internal_from_handle_m3156085815
Bml:__ZN15dense_hashtableINSt3__24pairIK10KeyWrapperIN6il2cpp5utils13dynamic_arrayIPK10Il2CppTypeLj4EEEEPFvvEEESA_NS3_8metadata19Il2CppSignatureHashEN14dense_hash_mapISA_SD_SG_NSA_14EqualsComparerINSF_22Il2CppSignatureCompareEEENS0_9allocatorISE_EEE9SelectKeyESK_SM_E12maybe_shrinkEv
Xs:__ZN13ConstraintJob23ConstraintComponentDataC2ERK18PositionConstraint
wwe:__ZN13PhysicsModule24CapsuleColliderSetHeightER15CapsuleColliderf
Nhe:__ZN5physx27updateIslandsSecondPassMainEjRNS_2Cm10BitMapBaseINS_6shdfnd9AllocatorEEEPKjjRNS_11NodeManagerERNS_11EdgeManagerERNS_13IslandManagerERNS_23ArticulationRootManagerERNS_33ProcessSleepingIslandsComputeDataERNS_30IslandManagerUpdateWorkBuffersEPNS0_13EventProfilerE
q5j:_ReadOnlyCollection_1_System_Collections_Generic_ICollectionU3CTU3E_Add_m69722965_gshared
jWi:_Array_InternalArray__IndexOf_TisColor32_t2600501292_m3783551884_gshared
cY:__ZNSt3__27__sort4IRNS_6__lessI14ObjectLoadDataS2_EEPS2_EEjT0_S6_S6_S6_T_
d9:__ZN9Scripting11UnityEngine9Rendering18GraphicsDeviceType9InitProxyEv
Vmc:__Z22PlayableValidityChecksRK9HPlayableb
YSa:__ZN15ResourceManagerD2Ev
sbc:__Z41Register_UnityEngine_Camera_GetAllCamerasv
ZCg:_InvokableCall__ctor_m2158562079
tYc:__ZN14PhysicsQuery2D7RaycastERK8Vector2fS2_fRKN10Collider2D13ContactFilterEPKS3_bP12RaycastHit2Di
MRk:_Assertion__ctor_m2128950829
oZe:__ZN28PerformanceReportingSettings8TransferI14SafeBinaryReadEEvRT_
sXa:__ZN15CacheWriterBase18GetAddressOfMemoryEv
eDc:__Z18Transfer_BlittableI8JSONReadLb1E5RectTIiEEvRK29SerializationCommandArgumentsR31RuntimeSerializationCommandInfo
bAd:__ZN5physx10NpMaterial17resolveReferencesERNS_24PxDeserializationContextE
HGl:__ZN6il2cpp2vm22EmbeddedResourceRecordC2ERKS1_
Gvb:__ZL20DrawVBOChunkWithPassP6ShaderPN9ShaderLab4PassER17ShaderPassContextR10DynamicVBORK21DynamicVBOChunkHandle
cGk:_Collection_1__ctor_m825528237_gshared
sul:__ZN6il2cpp2gc19AppendOnlyGCHashMapINSt3__24pairIPK9FieldInfoP11Il2CppClassEEP21Il2CppReflectionField17ReflectionMapHashIS9_ENS2_8equal_toIS9_EEE11TryGetValueERKS9_PSB_
WBa:__ZN9Texture2D13AwakeFromLoadE17AwakeFromLoadMode
Gua:__ZN4core8hash_mapIPK17RenderSurfaceBaseP13RenderTexture19PointerHashFunctionIS3_ENSt3__28equal_toIS3_EEE6insertERKS3_RKS5_
XSi:_SetPropertyUtility_SetStruct_TisColorBlock_t2139031574_m1748367426_gshared
xIg:_PlayerConnection_get_instance_m1750121257
nNl:__ZN6il2cpp2vm3RCW14QueryInterfaceILb0EEEP14Il2CppIUnknownP15Il2CppComObjectRK10Il2CppGuid
Knk:_Dictionary_2_Do_CopyTo_TisRuntimeObject_TisRuntimeObject_m2341992100_gshared
fOk:_X509Store_get_Certificates_m56224934
V5g:_LayoutRebuilder__cctor_m2273545693
R2:__ZN6prcoreL17RemapGenericFloatI15TexFormatRFloat18TexFormatARGBFloatEEvPKNS_9InnerInfoE
lsj:__Z85RuntimeInvoker_Void_t1185182177_Int64_t3736567304_Int32_t2950945753_Int64_t3736567304PFvvEPK10MethodInfoPvPS4_
FSh:_CipherSuite__ctor_m2440635082
FZh:_RSAPKCS1KeyExchangeFormatter_SetRSAKey_m1477802943
z1h:_EvidenceEnumerator_get_Current_m1264365535
Eod:__ZN5physx6shdfnd8PoolBaseINS_2Sc19ParticlePacketShapeENS0_19ReflectionAllocatorIS3_EEE15disposeElementsEv
fzd:__ZN5physx7NpActor15removeConnectorERNS_7PxActorENS_15NpConnectorType4EnumEPNS_6PxBaseEPKc
U8d:__ZN5physx19ActorAABBUpdateTask11runInternalEv
s_e:__ZN11UnityEngine15PlatformWrapper20GetPlayerPrefsUInt64ERKN4core12basic_stringIcNS1_20StringStorageDefaultIcEEEEy
jqf:_Marshal_copy_from_unmanaged_m2834266824
N8l:dynCall_iiiifii
rQb:__ZN20ReflectionProbeCacheC2ER13BatchRendererR15RenderLoopStats
oMg:_Rect_set_xMax_m1720695099_AdjustorThunk
_uj:__Z59RuntimeInvoker_Int32_t2950945753_DateTimeOffset_t3229287507PFvvEPK10MethodInfoPvPS4_
OQc:__ZN35b2InitializeVelocityConstraintsTask7TaskJobEPS_j
t_a:__ZNK12HandlerChain6ExistsERK13FileEntryData
iHa:__ZN15SerializeTraitsI13dynamic_arrayI26EnlightenSystemInformationLj0EEE19ResizeSTLStyleArrayERS2_i
Zhe:__ZN5physx10PxsContext28runModifiableContactManagersEv
goc:__ZNSt3__26vectorIj13stl_allocatorIjL18MemLabelIdentifier1ELi16EEE6assignIPKjEENS_9enable_ifIXaasr21__is_forward_iteratorIT_EE5valuesr16is_constructibleIjNS_15iterator_traitsIS9_E9referenceEEE5valueEvE4typeES9_S9_
VPa:__ZN12InputManager23VirtualRedirectTransferER24GenerateTypeTreeTransfer
YYa:__ZN9Transform23VirtualRedirectTransferER24GenerateTypeTreeTransfer
qee:__ZN5physx21PxsBodyTransformVault7addBodyERKNS_11PxsBodyCoreE
txc:__ZN12GUIClipState10BeginOnGUIER10InputEvent
dGd:__ZN5physx6shdfnd5ArrayINS_35PxClothParticleSeparationConstraintENS0_19ReflectionAllocatorIS2_EEE6resizeEjRKS2_
Dwj:__Z87RuntimeInvoker_RuntimeObject_Byte_t1134296376_RuntimeObject_RuntimeObject_RuntimeObjectPFvvEPK10MethodInfoPvPS4_
oUh:_HandshakeMessage_Process_m810828609
iJe:_UNITY_tt_size_ready_bytecode
_xe:__ZN13TextRendering4FontD2Ev
cBe:_UNITY_FT_Stream_Open
Edk:__ZN28GenericInterfaceFuncInvoker1Ib20UIVertex_t4057497605E6InvokeEPK10MethodInfoP12Il2CppObjectS0_
aib:__Z29Transfer_Blittable_ArrayFieldI24GenerateTypeTreeTransfer9BoundsIntEvRT_R9ArrayInfoRK23StaticTransferFieldInfo
Yff:_GraphicRegistry__cctor_m1805310505
qzg:_Bounds_Equals_m3920299735
yqa:__ZN8keywords18KeywordSetToStringERK16ShaderKeywordSetRN4core12basic_stringIcNS3_20StringStorageDefaultIcEEEE
Awg:_GenericTypeParameterBuilder_GetGenericArguments_m2988765390
Dxb:__ZN13GfxDeviceGLES26UpdateViewProjectionMatrixEv
vrj:__Z77RuntimeInvoker_Void_t1185182177_Int64_t3736567304_ResourceInfoU26_t1611441338PFvvEPK10MethodInfoPvPS4_
Vij:_List_1_CheckCollection_m1717250693_gshared
fHc:__GLOBAL__sub_I_artifacts_WebGL_codegenerator_0_cpp_4204
vIj:__Z53RuntimeInvoker_Int32_t2950945753_Keyframe_t4206410242PFvvEPK10MethodInfoPvPS4_
Ry:__ZN4FMOD3DSP12setParameterEif
atb:__ZN13MemoryManager16StaticInitializeEv
ipi:_CultureInfo_Equals_m1360976324
Qf:___cxa_free_exception
r_f:__ZL69PersistentCall_t3407714124_CustomAttributesCacheGenerator_m_CallStateP21CustomAttributesCache
YA:__ZN4FMOD22FakeModChannelCallbackEPv
lba:__ZN9Scripting11UnityEngine12Experimental10PlayerLoop14PostLateUpdate9InitProxyEv
Wf:_emscripten_glValidateProgram
soa:__ZN4Mesh10CreateMeshEv
E5d:__ZN5physx36solveContactPreBlock_WriteBackStaticEPKNS_23PxcSolverConstraintDescEjRNS_16PxcSolverContextEPNS_25PxcThresholdStreamElementEjPi
OQj:_NativeEventCalls_ResetEvent_internal_m885886540
nKi:_DateTime_CompareTo_m3889078633
RCe:_cf2_stack_clear
G7l:dynCall_viiiiiiiiiiiiiiiiiiiiiiiiiiiiiiiiii
fpg:_NumberFormatter_set_CurrentCulture_m1358228087
lTc:__ZN10ClipperLib11ClipperBase5ClearEv
pWb:__ZN7Texture13SetAnisoLevelEi
GJ:__ZNSt3__26__treeINS_12__value_typeIN4core12basic_stringIcNS2_20StringStorageDefaultIcEEEEjEENS_19__map_value_compareIS6_S7_NS_4lessIS6_EELb1EEE13stl_allocatorIS7_L18MemLabelIdentifier88ELi16EEE7destroyEPNS_11__tree_nodeIS7_PvEE
R7a:__ZN19EndOfFrameCallbacks7EnqueueEP18EndOfFrameCallbackb
DFg:_Input_set_compositionCursorPos_m1909373301
JHa:__ZN15SerializeTraitsI13dynamic_arrayI31EnlightenSystemAtlasInformationLj0EEE8TransferI19StreamedBinaryWriteILb0EEEEvRS2_RT_
hGc:__ZN27PerformanceReportingManager23VirtualRedirectTransferER24GenerateTypeTreeTransfer
LAe:_raccess_guess_vfat
ktj:__Z78RuntimeInvoker_IntPtr_t_SByte_t1669577662_RuntimeObject_BooleanU26_t4125257963PFvvEPK10MethodInfoPvPS4_
UPe:__Z44Canvas_CUSTOM_GetETC1SupportedCanvasMaterialv
RMi:_Decimal_decimalSetExponent_m3707787243
BR:__ZN33InstancedMeshIntermediateRenderer13StaticDestroyEPv
CYe:__ZN28UnityConnectScriptingClasses35RemoteSettingsBeforeFetchFromServerEP21ScriptingExceptionPtr
bUd:__ZN5physx7NpScene26setSimulationEventCallbackEPNS_25PxSimulationEventCallbackEh
NJl:__ZN14dense_hash_mapI10KeyWrapperIP14Il2CppIUnknownEjN6il2cpp5utils11PointerHashIS1_EENS3_14EqualsComparerINSt3__28equal_toIS2_EEEENS9_9allocatorINS9_4pairIKS3_jEEEEE13set_empty_keyERSF_
S7a:__ZN15dense_hashtableINSt3__24pairIK9TextureIDiEES2_14GfxGenericHashIS2_EN14GfxDoubleCacheIS2_iS6_NS0_8equal_toIS2_EEN31GfxDoubleCacheConcurrencyPolicy11LocklessGetE42GfxDoubleCacheDefaultEmptyDeletedGeneratorIS2_EE9SelectKeyES9_13stl_allocatorIS4_L18MemLabelIdentifier24ELi16EEE12resize_deltaEjj
hma:__Z21DestroyShadowMapCacheP14ShadowMapCache
gpk:_Array_InternalArray__get_Item_TisLabelFixup_t858502054_m3276643490_gshared
rXb:__Z20RequiredComponentsOf17ScriptingClassPtr
JIl:__ZN6il2cpp2vm13LivenessState5ResetEv
Ggd:__ZN5physx6shdfnd4sortIPvNS0_4LessIS2_EENS0_19ReflectionAllocatorINS_2Sc16ActorElementPairEEEEEvPT_jRKT0_RKT1_j
mzc:__ZN9JSONWrite8TransferI11KeyframeTplIfEEEvRT_PKc17TransferMetaFlags
_Vb:__ZN22RenderingCommandBuffer23CleanupTemporaryRTArrayER13dynamic_arrayINSt3__24pairIN9ShaderLab16FastPropertyNameEP13RenderTextureEELj0EE
lCi:_SortedList_GetImpl_m3689246167
$oe:__ZN5physx2Gu15EdgeListBuilder18ComputeActiveEdgesEjPKjPKtPKNS_6PxVec3Ef
h7a:__ZN24BuiltinShaderParamValuesC2Ev
Czc:__ZL41CreateJSONTransferFunctionScriptingTraitsv
k0b:__ZN6Shader23VirtualRedirectTransferER14SafeBinaryRead
vSd:__ZN5physx17PxsContactManagerC2EPNS_10PxsContextEj
KSg:_WaitForSecondsRealtime_get_keepWaiting_m846832224
orb:__Z23GetLateBehaviourManagerv
iqj:__Z33RuntimeInvoker_Single_t1397266774PFvvEPK10MethodInfoPvPS4_
M_c:__ZN5physx6shdfnd5ArrayIPNS_7PxShapeENS0_15InlineAllocatorILj64ENS0_19ReflectionAllocatorIS3_EEEEE6resizeEjRKS3_
AW:__ZN10MemoryPool10DeallocateEPv
qAj:__Z80RuntimeInvoker_Void_t1185182177_ScriptableRenderContext_t274343796_RuntimeObjectPFvvEPK10MethodInfoPvPS4_
VAc:__ZL17Transfer_GUIStyleI9JSONWriteLb1EEvRK29SerializationCommandArgumentsR31RuntimeSerializationCommandInfo
E7a:__ZN14GfxDeviceStats10ResetFrameEv
qda:__ZN9Scripting5Unity11Collections8LowLevel6Unsafe43NativeSetClassTypeToNullOnScheduleAttribute12CleanupProxyEv
Q3d:__ZN5physx2Gu22gjkRelativePenetrationINS0_9TriangleVENS0_10ShrunkBoxVEEEjRKT_RKT0_RKNS_6shdfnd3aos15PsMatTransformVERKNSB_6FloatVERNSB_5Vec3VESJ_SJ_RSF_PhSL_Rh
l8l:dynCall_vif
rUa:__ZN18LoadSceneOperation22CompleteLoadFirstSceneEv
wHi:_Convert_ToSByte_m4075629912
o8l:dynCall_vii
w2i:_KeyPairPersistence_FromXml_m746585742
Y6h:_Decoder__ctor_m4046021500
Aob:__Z18Transfer_BlittableI18StreamedBinaryReadILb0EELb0EdEvRK29SerializationCommandArgumentsR31RuntimeSerializationCommandInfo
_gk:_UnityEvent_1_Invoke_m2734859485_gshared
g9e:_ColorBlock_get_fadeDuration_m121071467
Lrl:__ZN6il2cpp6icalls8mscorlib6System8MonoType18GetFields_internalEP20Il2CppReflectionTypeiS5_
Nda:__ZN5Unity9Component16CheckConsistencyEv
Amf:_MonoMethod_get_ContainsGenericParameters_m3860345224
Tna:__ZN19ShaderPropertySheet37CreateTextureAuxPropertyUninitializedEN9ShaderLab16FastPropertyNameES1_PKc
pjb:__ZL26Transfer_SimpleNativeClassI19StreamedBinaryWriteILb0EE10RectOffsetLb1EEvRK29SerializationCommandArgumentsR31RuntimeSerializationCommandInfo
P9d:__ZN5physx20PxcContactCapsuleBoxERKNS_2Gu13GeometryUnionES3_RKNS_11PxTransformES6_RKfRNS_10PxcNpCacheERNS0_13ContactBufferE
nim:b128
bvl:__ZN15dense_hashtableINSt3__24pairIK10KeyWrapperIPK10Il2CppTypeEjEES6_N6il2cpp8metadata14Il2CppTypeHashEN14dense_hash_mapIS6_jSB_NS6_14EqualsComparerINSA_26Il2CppTypeEqualityComparerEEENS0_9allocatorIS8_EEE9SelectKeyESF_SH_E3endEv
Yyb:__ZN13GfxDeviceGLES17SetGpuProgramNameEP10GpuProgramPKc
GL:__ZNK11UnityEngine15CloudWebService25WebRequestDownloadHandler11GetProgressEv
xLh:_CategoryUtils_CategoryFromName_m1352081402
mXi:_Array_InternalArray__ICollection_Add_TisMonoResource_t4103430009_m2699164149_gshared
Zol:__ZN6il2cpp2vm13MetadataCache28GetMethodDefinitionFromIndexEi
xSl:__ZN6il2cpp2os20FileErrnoToErrorCodeEi
Jxa:__ZN14SafeBinaryRead19TransferSTLStyleMapINSt3__23mapI39DeprecatedFastPropertyNameSerialization10ColorRGBAfNS1_4lessIS3_EENS1_9allocatorINS1_4pairIKS3_S4_EEEEEEEEvRT_17TransferMetaFlags
xFi:_Decimal_ThrowAtPos_m1170269346
Fh:_atexit
Cch:_Selectable_set_image_m3625164794
Foh:_InternalEnumerator_1_get_Current_m1232221964_gshared
ASa:__ZNSt3__26vectorIN30RuntimeInitializeOnLoadManager9ClassInfoE13stl_allocatorIS2_L18MemLabelIdentifier13ELi16EEE6assignINS_11__wrap_iterIPS2_EEEENS_9enable_ifIXaasr21__is_forward_iteratorIT_EE5valuesr16is_constructibleIS2_NS_15iterator_traitsISC_E9referenceEEE5valueEvE4typeESC_SC_
Q8j:_ReadOnlyCollection_1_System_Collections_Generic_IListU3CTU3E_Insert_m1818924748_gshared
jyl:__ZN6il2cpp2vmL31GetObjectForMissingDefaultValueEj
B8e:_AspectRatioFitter__ctor_m2468506840
rzb:__ZN13GfxDeviceGLES22UpdateComputeResourcesERK22ComputeShaderResources
qld:__ZN5physx6shdfnd8PoolBaseINS_2Cm5BlockIhLj384EEENS0_19ReflectionAllocatorIS4_EEE12allocateSlabEv
N2d:__Z13sweepAABBAABBRKN5physx6PxVec3ES2_S2_S2_S2_S2_
OFi:_Decimal_op_Implicit_m3873897383
AWe:__ZN11UnityEngine15PlatformWrapper30GetVRPlayAreaBoundaryDimensionEv
Ylk:_Array_Sort_TisBoolean_t97287965_TisBoolean_t97287965_m2753381653_gshared
qNk:_X509Certificate_get_Hash_m410033711
L2b:__ZN9ShaderLab14SerializedPassC2ERKS0_
Lzc:__Z35Transfer_Blittable_FixedBufferFieldI9JSONWritehEvRK29SerializationCommandArgumentsR31RuntimeSerializationCommandInfo
XAd:__ZN5physx9NpPhysics20createParticleSystemEjb
l:STACKTOP
REe:_cff_get_name_index
zpe:__ZN5physx17ConvexHullBuilder14CreateEdgeListEv
c5:__ZN6prcoreL12RemapGenericI13TexFormatRG8817TexFormatARGB8888EEvPKNS_9InnerInfoE
DY:__ZN17TransformInternal27UpdateDeepChildCountUpwardsER18TransformHierarchyii
W2h:_Single_System_IConvertible_ToBoolean_m1716619219_AdjustorThunk
hnc:__ZN16StreamedResource8TransferI14SafeBinaryReadEEvRT_
P4e:_ExecuteEvents_Execute_m3613826831
z3d:__ZN5physxL24PxcSweepCapsuleTrianglesERKNS_11PxsCCDShapeES2_RKNS_11PxTransformES5_S5_S5_fRNS_6PxVec3ES7_RNS_10PxcNpCacheERNS_18PxcNpThreadContextERKNS_2Cm23FastVertex2ShapeScalingERNS_2Gu9TriangleVEf
icf:_Image_set_type_m2038193736
WXc:__ZN22WorldContactListener2D10EndContactEP9b2Contact
MVb:__ZNK25CameraStackRenderingState25CalculateCameraTargetTypeEv
Zhf:_PropertyBuilder_GetSetMethod_m128670376
y:tempBigIntR
x:tempBigIntS
w:tempBigIntP
go:FUNCTION_TABLE_viffi
pAe:_open_face_PS_from_sfnt_stream
gY:__ZN6Object18RegisterInstanceIDEPS_
Egb:__Z18Transfer_BlittableI24GenerateTypeTreeTransferLb1EsEvRK29SerializationCommandArgumentsR31RuntimeSerializationCommandInfo
EOl:__ZN15dense_hashtableINSt3__24pairIK10KeyWrapperIP12Il2CppObjectEN6il2cpp2gc9CachedCCWEEES5_NS7_5utils11PointerHashIS3_EEN14dense_hash_mapIS5_S9_SD_NS5_14EqualsComparerINS0_8equal_toIS4_EEEENS0_9allocatorISA_EEE9SelectKeyESI_SK_E11set_deletedER30dense_hashtable_const_iteratorISA_S5_SD_SM_SI_SK_E
I3a:__ZNK9GfxDevice18GetWorldViewMatrixEv
TEj:__Z70RuntimeInvoker_Single_t1397266774_Single_t1397266774_Int32_t2950945753PFvvEPK10MethodInfoPvPS4_
o0h:_X509Certificate_GetPublicKey_m4184729161
hkc:__ZZL31RegisterOtherRendererPropertiesR22GenericPropertyBindingEN28Wrapper_RendererSortingOrder13SetFloatValueEPvf
aIi:_Convert_ToUInt16_m3902921832
Lrg:_Assembly_GetTypes_m1724781913
qEf:__ZL54TypeBuilder_t1073948154_CustomAttributesCacheGeneratorP21CustomAttributesCache
GPj:_UTF7Encoding_GetByteCount_m3616172568
Pai:_SmallXmlParser_ReadComment_m1578426707
Tbe:__ZN5physx2Gu18pcmContactPlaneBoxERKNS0_13GeometryUnionES3_RKNS_11PxTransformES6_RKfRNS0_5CacheERNS0_13ContactBufferE
Djj:_List_1_AddEnumerable_m376418521_gshared
Iwj:__Z79RuntimeInvoker_Void_t1185182177_Byte_t1134296376_Byte_t1134296376_RuntimeObjectPFvvEPK10MethodInfoPvPS4_
eml:__ZNSt3__218__insertion_sort_3IRN6il2cpp5utils11collections13ArrayValueMapIPK10Il2CppType17Il2CppInteropData26InteropDataToTypeConverterNS1_8metadata14Il2CppTypeLessENSA_26Il2CppTypeEqualityComparerEE12SortComparerEPS8_EEvT0_SH_T_
sud:__ZN5physx6shdfnd5ArrayIPNS_2Sq10ActorShapeENS0_19ReflectionAllocatorIS4_EEE15growAndPushBackERKS4_
fWc:__ZN11Rigidbody2D23VirtualRedirectTransferER14SafeBinaryRead
M3a:__ZNK9GfxDevice25GetDeviceProjectionMatrixEv
nZk:_AesTransform_Decrypt128_m3018534522
R2b:__ZNSt3__26__treeINS_12__value_typeI11ShaderTagIDS2_EENS_19__map_value_compareIS2_S3_NS_4lessIS2_EELb1EEENS_9allocatorIS3_EEE14__assign_multiINS_21__tree_const_iteratorIS3_PNS_11__tree_nodeIS3_PvEEiEEEEvT_SI_
sa:invoke_iidiii
Kgb:__Z18Transfer_BlittableI24GenerateTypeTreeTransferLb1EtEvRK29SerializationCommandArgumentsR31RuntimeSerializationCommandInfo
RF:__ZN12AudioManager33GetCurrentAmbisonicDefinitionNameE31UnityAudioEffectDefinitionFlags
Qpc:__ZN11UTF16StringC2EPKc10MemLabelId
h3c:__ZL13midPhaseQueryRKN5physx22PxTriangleMeshGeometryERKNS_11PxTransformERNS_2Gu3BoxERNS6_9ContainerE
Nxi:_MonoIO_DeleteFile_m3839141322
Ffa:__ZN10SpookyHash5ShortEPKvjPyS2_
mij:_List_1__ctor_m1728025230_gshared
$Ne:__ZN9Scripting11UnityEngine6Canvas12CleanupProxyEv
TR:__ZN13RuntimeStaticI13ModuleManagerLb0EE13StaticDestroyEPv
MQl:__ZN6il2cpp6icalls8mscorlib6System6String22RedirectToCreateStringEv
dEf:__ZL99ILGenerator_t1388622344_CustomAttributesCacheGenerator_ILGenerator_Mono_GetCurrentOffset_m993338688P21CustomAttributesCache
Z5g:_LayoutRebuilder_ReapplyDrivenProperties_m2581469389
Zfe:__ZN5physx6shdfnd5ArrayINS_24PxsConstraintBatchHeaderENS0_19ReflectionAllocatorIS2_EEE8recreateEj
aqc:__ZN9Scripting20CreateUnityExceptionEPKcz
aQc:__ZN35b2SolvePositionJointConstraintsTask7TaskJobEPS_
coa:__ZN9ShaderLab6TexEnvC2ERKNS_25SerializedTexturePropertyE
N3g:_InputField_Append_m687033660
Ykc:__Z28IntersectLineSegmentWithLineRK8Vector2fS1_S1_S1_RS_
Pia:__ZN9Transform32SetLocalScaleWithoutNotificationERKN4math7_float3Ey
lze:__ZN20TextRenderingPrivate19NativeTextGeneratorD2Ev
Cql:__ZN6il2cpp2vm19SocketPollingThread14DequeueRequestEv
uQl:__ZL10RevealLinkPv
fJi:_DateTime__ctor_m12900168_AdjustorThunk
Ohd:__ZN5physx6shdfnd8PoolBaseINS_2Sc26ActorPairContactReportDataENS0_19ReflectionAllocatorIS3_EEE12allocateSlabEv
ZUh:_ClientSessionCache_FromContext_m343076119
jj:___cxa_end_catch
K$h:_ToBase64Transform_TransformBlock_m2497349397
kEh:_NameValueCollection_Add_m2418530856
Mwf:_ReturnMessage_get_MethodSignature_m399735125
UTd:__ZN5physx7NpScene12createClientEv
bQe:__Z43Register_UnityEngine_Canvas_set_scaleFactorv
k_i:_SortKeyBuffer_AppendLevel5_m3963841125
UTk:_PositionAssertion_Compile_m2500980346
Eji:_ArrayListWrapper_ToArray_m3192696690
MAe:_raccess_guess_linux_cap
jG:__Z36AudioSource_Get_Custom_PropIsPlayingP12Il2CppObject
Vs:__ZN13ConstraintJob23ConstraintComponentDataC2ERK18RotationConstraint
Cuc:__ZL48__ManagedRegistrationHelperFunction_StylePainterPv
Rei:_Attribute_GetCustomAttribute_m4034845276
M9c:__ZN26ContactCapsuleMeshCallback10processHitERKN5physx12PxRaycastHitERKNS0_6PxVec3ES6_S6_RfPKj
ES:__Z33InitializeBuiltinShaderParamNamesv
gVj:_Type_GetConstructor_m2219014380
daf:_CanvasUpdateRegistry_SortLayoutList_m471948466
Qnd:__ZN5physx6shdfnd5ArrayINS_19PxHeightFieldSampleENS0_19ReflectionAllocatorIS2_EEE6resizeEjRKS2_
B8d:__ZN5physx14PxsAABBManager25removeAggregateSinglePairEjPNS_9AggregateEPNS_2Cm10BitMapBaseINS_6shdfnd9AllocatorEEE
nea:__ZNK16TypeTreeIterator4TypeEv
_Gb:__ZN10FileSystem25MountDataFolderFileSystemERKN4core12basic_stringIcNS0_20StringStorageDefaultIcEEEES6_
T8h:_ArgumentOutOfRangeException__ctor_m282481429
rWk:_GUILayoutUtility_Internal_MoveWindow_m3463958180
Uj:_glGetUniformLocation
myb:__ZN13GfxDeviceGLES32CreateColorRenderSurfacePlatformEP17RenderSurfaceBase19RenderTextureFormat
$Jb:__ZN22RenderingCommandBuffer20ExecuteCommandBufferER17ShaderPassContextR15RenderNodeQueuejP13dynamic_arrayINSt3__24pairIN9ShaderLab16FastPropertyNameEP13RenderTextureEELj0EE16ComputeQueueTypeSA_
IE:__ZN12AudioManager24CreateFMODSoundFromMovieEP9AudioClip
cTh:_CipherSuite_createEncryptionCipher_m2533565116
UQd:__ZN5physx2Sc10NPhaseCore9visualizeERNS_2Cm12RenderOutputE
sne:__ZN5physx2Gu12TriangleMesh15exportExtraDataERNS_22PxSerializationContextE
Ynl:__ZN6il2cpp2vm13MetadataCache24GetGenericInstanceMethodEPK10MethodInfoPK20Il2CppGenericContext
JWl:_GC_hblk_fl_from_blocks
Hlf:_MonoField_GetParentType_m2478933781
wX:__Z24ConvertSeparatorsToUnityPc
Bxl:__ZN6il2cpp2gc19AppendOnlyGCHashMapINSt3__24pairIPK9EventInfoP11Il2CppClassEEP21Il2CppReflectionEvent17ReflectionMapHashIS9_ENS2_8equal_toIS9_EEE3AddERKS9_SB_
cEk:_Collection_1_System_Collections_ICollection_CopyTo_m46221116_gshared
UDl:__ZN6il2cpp2vm6Thread20FreeThreadStaticDataEP12Il2CppThread
vVi:_Array_InternalArray__IndexOf_TisClientCertificateType_t1004704908_m3457772631_gshared
hkj:__Z28RuntimeInvoker_RuntimeObjectPFvvEPK10MethodInfoPvPS4_
Nmd:__ZN5physx2Sc8BodyCore17setupSimStateDataEPNS_6shdfnd4PoolINS0_12SimStateDataENS2_19ReflectionAllocatorIS4_EEEEbb
Oac:__Z41Register_UnityEngine_RectOffset_set_rightv
E8e:_AspectRatioFitter_UpdateRect_m1081360677
fDe:_cf2_glyphpath_finalize
tKf:__ZL56SecurityAction_t569814076_CustomAttributesCacheGeneratorP21CustomAttributesCache
lLb:__Z20LookRotationToMatrixRK8Vector3fS1_P10Matrix3x3f
gji:_ArrayListWrapper_set_Capacity_m2373297383
RJd:__Z25computePacketSizeMultLog2ff
g3g:_Text_get_cachedTextGenerator_m2506989875
rfj:_Enumerator_System_Collections_IEnumerator_Reset_m502339360_AdjustorThunk
$Bf:__ZL58DictionaryEntry_t3123975638_CustomAttributesCacheGeneratorP21CustomAttributesCache
t9k:_TextGenerator_GetVerticesInternal_m3222977969
Fxk:_List_1_RemoveAt_m4279084788_gshared
RAe:_UNITY_FT_Stream_Free
ZFl:__ZN15dense_hashtableINSt3__24pairIK10KeyWrapperINS1_IP11Il2CppClassjEEES4_EES6_N6il2cpp8metadata14ArrayClassHashEN14dense_hash_mapIS6_S4_SB_NS6_14EqualsComparerINSA_17ArrayClassCompareEEENS0_9allocatorIS8_EEE9SelectKeyESF_SH_E12maybe_shrinkEv
Dyc:__ZNK5Unity9rapidjson12GenericValueINS0_4UTF8IcEE13JSONAllocatorE6AcceptINS0_12PrettyWriterI16TempBufferWriterS3_S3_S4_EEEEbRT_
a_g:_CryptoConfig_EncodeLongNumber_m4127306320
NDj:__Z87RuntimeInvoker_Void_t1185182177_Single_t1397266774_Single_t1397266774_SByte_t1669577662PFvvEPK10MethodInfoPvPS4_
Gag:__ZL63AnalyticsSessionInfo_t2322308579_CustomAttributesCacheGeneratorP21CustomAttributesCache
XRd:__ZN5physx16PxsIslandManager18setEdgeUnconnectedERKNS_20PxsIslandManagerHookIjLj4294967295EEE
j1e:__ZL47__ManagedRegistrationHelperFunction_VideoPlayerPv
OJ:__ZN11UnityEngine15CloudWebService14DataDispatcher25OnDataBlockConsumedStaticEPv
u8c:__ZL27GeomMTDCallback_PlaneConvexRN5physx6PxVec3ERfRKNS_10PxGeometryERKNS_11PxTransformES5_S8_
Ewk:_List_1_CheckIndex_m3044940639_gshared
OSg:_GenericStack__ctor_m933681517
LKl:__ZN6il2cpp2vmL36AddNestedTypesToNametoClassHashTableEP40Il2CppNameToTypeDefinitionIndexHashTablePKcRKNSt3__212basic_stringIcNS5_11char_traitsIcEENS5_9allocatorIcEEEEP11Il2CppClass
Xmb:__Z29Transfer_Blittable_ArrayFieldI18StreamedBinaryReadILb1EE11QuaternionfEvRT_R9ArrayInfoRK23StaticTransferFieldInfo
qmg:_Math_Max_m482125436
_Bi:_SortedList_InitTable_m875730861
Jqf:_ActivatedServiceTypeEntry_ToString_m1591455874
H1h:_SecurityElement_ToXml_m3664345083
ijk:_Array_InternalArray__Insert_TisParameterModifier_t1461694466_m3664994573_gshared
I8i:_DefaultComparer_Equals_m1870794912_gshared
q1b:__Z14resize_trimmedINSt3__26vectorIN9ShaderLab20SerializedSubProgram16SamplerParameterENS0_9allocatorIS4_EEEEEvRT_j
jSd:__ZN5physx6shdfnd5ArrayIPvNS0_15InlineAllocatorILj256ENS0_19ReflectionAllocatorINS_2Gu30LargePersistentContactManifoldEEEEEE15growAndPushBackERKS2_
Och:_Shadow_set_effectColor_m3910676693
p5l:__ZNSt3__212basic_stringIcNS_11char_traitsIcEENS_9allocatorIcEEE6insertEjPKcj
Ezc:__Z44InitializeTransferFunctionScriptingTraitsForI8JSONReadEvR31TransferFunctionScriptingTraits
XFd:__ZN5physx2Sc13ClothBulkData15exportExtraDataERNS_22PxSerializationContextE
awb:__ZNSt3__27__sort4IRNS_4lessIN22BuiltinResourceManager8ResourceEEEPS3_EEjT0_S7_S7_S7_T_
BDh:_ListDictionary_Add_m3918308031
tOl:__ZNK15dense_hashtableINSt3__24pairIK10KeyWrapperIP12Il2CppObjectEN6il2cpp2gc9CachedCCWEEES5_NS7_5utils11PointerHashIS3_EEN14dense_hash_mapIS5_S9_SD_NS5_14EqualsComparerINS0_8equal_toIS4_EEEENS0_9allocatorISA_EEE9SelectKeyESI_SK_E23find_position_with_hashERS6_j
P2g:_Selectable_OnDisable_m3225138518
$Ta:__ZN17PersistentManager34ExtractTimeSliceAwakeFromLoadQueueER27TimeSliceAwakeFromLoadQueueNS_9LockFlagsE
ohd:__ZN5physx6shdfnd4sortIPvNS0_4LessIS2_EENS0_19ReflectionAllocatorINS_2Sc19ShapeInstancePairLLEEEEEvPT_jRKT0_RKT1_j
iZk:_AesManaged_CreateEncryptor_m1611897367
Gme:__ZN5physx13GuMeshFactory17createHeightFieldERKNS_17PxHeightFieldDescE
qzi:_DelegatePInvokeWrapper_WriteDelegate_t4270993571
iXb:__ZN10GameObject34AddFirstTransformComponentInternalEP9Transform
e9b:__Z31Cursor_Get_Custom_PropLockStatev
EQ:__ZNSt3__26__treeINS_12__value_typeINS_4pairIPcS3_EENS_3setIS3_15compare_tstringIPKcENS_9allocatorIS3_EEEEEENS_19__map_value_compareIS4_SD_20smaller_tstring_pairIS8_ELb1EEENSA_ISD_EEE7destroyEPNS_11__tree_nodeISD_PvEE
VD:__ZN12AudioManager29GetCurrentAmbisonicDefinitionE31UnityAudioEffectDefinitionFlags
hac:__Z52Register_UnityEngine_GameObject_GetComponentInParentv
aaa:__ZN9Scripting11UnityEngine16ScriptableObject12CleanupProxyEv
MRa:__ZN15SerializeTraitsINSt3__24pairIPKN5Unity4TypeE7Hash128EEE8TransferI14SafeBinaryReadEEvRS7_RT_
eWl:_GC_number_stack_black_listed
VMi:_Decimal_ToString_m4018746482_AdjustorThunk
gUb:__Z37GenerateCombinedDynamicVisibleListJobP11CullResults
YJa:__ZNK13ScreenManager21GetCursorInsideWindowEv
_sg:_CustomAttributeData_GetCustomAttributes_m1033457578
sqf:_SafeHandle_DangerousAddRef_m614714386
QQb:__Z20IntersectAABBFrustumRK4AABBPK5Planej
Gbh:_ScrollRect_OnDrag_m688583138
Ygc:__ZN13RenderManager15InitializeClassEv
Gvj:__Z74RuntimeInvoker_RuntimeObject_RuntimeObject_Double_t594665363_RuntimeObjectPFvvEPK10MethodInfoPvPS4_
sdb:__ZN15SerializeTraitsI12PropertyNameE8TransferI14SafeBinaryReadEEvRS0_RT_
H2j:_ReadOnlyCollection_1_System_Collections_IList_IndexOf_m3120991897_gshared
gvf:_Header__ctor_m1921907550
kue:__ZN5physx7profile8ZoneImplINS_28PxProfileNameProviderForwardEED0Ev
Idh:_Slider_FindSelectableOnUp_m4062600878
nmg:_Math_Ceiling_m625148210
A8l:dynCall_iiiiiiiiiiffffii
agc:__ZZN9Transform15InitializeClassEvEN31FunctorImpl_114kDidAddComponent4CallEPviR11MessageData
MBc:__ZN9JSONWrite8TransferI11ColorRGBA32EEvRT_PKc17TransferMetaFlags
sEc:__Z22TransferField_NonArrayI8JSONRead27Converter_SimpleNativeClassI8GradientEEvRK23StaticTransferFieldInfoR31RuntimeSerializationCommandInfoRT0_
sqb:__ZN10MonoScript13AwakeFromLoadE17AwakeFromLoadMode
UMh:_Interval__ctor_m4022869013
Esg:_Default_ReorderParameters_m2076271671
qHb:__ZN10MemoryFile21CreateFileSystemEntryE10MemLabelId14FilePermissionPvjb
_Eb:__ZNK18GfxFramebufferGLES15DiscardContentsER12ObjectHandleI17RenderSurface_TagP17RenderSurfaceBaseE
IPh:_ARC4Managed_KeySetup_m2449315676
QBc:__ZN9JSONWrite8TransferI13dynamic_arrayI5RectTIiELj0EEEEvRT_PKc17TransferMetaFlags
Tol:__ZN6il2cpp2vm13MetadataCache27GetEventDefinitionFromIndexEi
Q6:__ZL63__ManagedRegistrationHelperFunction_ScriptableCullingParametersPv
BIi:_Convert_ToUInt64_m92315402
hEi:_Convert_ToChar_m3776556379
SAc:__Z18Transfer_BlittableI9JSONWriteLb1EdEvRK29SerializationCommandArgumentsR31RuntimeSerializationCommandInfo
hdm:_glGetIntegerv__wrapper
A7h:_EncoderExceptionFallback__ctor_m3745979420
kzd:__ZN5physx2Sc13ConstraintSim15preBodiesChangeEv
H:Math_pow
clh:_InternalEnumerator_1_System_Collections_IEnumerator_get_Current_m435848551_gshared
Zea:__ZN10GameObject28FinalizeAddComponentInternalEPN5Unity9ComponentE
Wfg:__ZL57Image_t2670269651_CustomAttributesCacheGenerator_m_SpriteP21CustomAttributesCache
SDa:__ZN9Texture2DD2Ev
z1k:_AudioExtensionManager_GetReadyToPlay_m1557263244
KHi:_Convert_ToSingle_m164367433
F$c:__ZN14PhysicsManager8TransferI19StreamedBinaryWriteILb0EEEEvRT_
hHd:__ZNK5physx2Sc9ClothCore16getStretchConfigENS_22PxClothFabricPhaseType4EnumE
hpk:_Array_InternalArray__get_Item_TisILTokenInfo_t2325775114_m3110830457_gshared
JFi:_Convert_ToDecimal_m1284410333
BKi:_DateTime_CheckStyle_m1392838900
Pc:invoke_iiiifiiiii
UZd:__ZN5physx2Sc5Scene31setClothInterCollisionStiffnessEf
PJc:__ZN16PhysicsManager2D43RegisterTransformChangeInterestForRigidbodyEP11Rigidbody2D
Rai:_SmallXmlParser_ReadUntil_m2715581630
JDh:_NameObjectCollectionBase__ctor_m2090733912
LLh:_Group__cctor_m2230627219
T8:__ZN9Scripting11UnityEngine15SendMouseEvents9InitProxyEv
EQi:_Array_InternalArray__ICollection_Contains_TisDouble_t594665363_m1696010878_gshared
GNh:_BigInteger__cctor_m102257529
j$:__ZN27IntermediateRendererManagerD2Ev
fWa:__ZN17PersistentManager27GetLoadErrorMessageFromPathERKN4core12basic_stringIcNS0_20StringStorageDefaultIcEEEE
hMk:_NetscapeCertTypeExtension_ToString_m1800688476
Jm:_glGenRenderbuffers
jHl:__ZN6il2cpp6icalls8mscorlib6System2IO6MonoIO19GetCurrentDirectoryEPi
Cie:__ZN5physx2Sc13ConstraintSim11projectPoseEPNS0_7BodySimE
ZNg:_Renderer_get_sortingOrder_m344607889
GRb:__Z21IntersectSegmentPlaneRK8Vector3fS1_RK5PlanePS_
Vca:__ZN9Scripting11UnityEngine24AssemblyIsEditorAssembly9InitProxyEv
gkg:__ZL50Outline_t2536100125_CustomAttributesCacheGeneratorP21CustomAttributesCache
ngg:__ZL75InputField_t3762917431_CustomAttributesCacheGenerator_m_CharacterValidationP21CustomAttributesCache
YUk:_Uri_get_IsFile_m2450018824
GZ:__ZN14CachingManager7DisposeEv
Pba:__ZN9Scripting11UnityEngine8EnumInfo9InitProxyEv
R9d:__ZN5physx21PxcContactCapsuleMeshERKNS_2Gu13GeometryUnionES3_RKNS_11PxTransformES6_RKfRNS_10PxcNpCacheERNS0_13ContactBufferE
GD:__ZN12AudioManager31GetCurrentSpatializerDefinitionEv
gDh:_HybridDictionary_Add_m912320053
SHg:_MonoBehaviour_Invoke_m4227543964
PLa:__ZN12MeshRenderer16UpdateCachedMeshEv
Jre:__ZN9Rigidbody11SetPositionERK8Vector3f
sYk:_KeyBuilder_IV_m3340234014
Xcb:__Z19TransferField_ArrayI14SafeBinaryRead27Converter_SimpleNativeClassI8GradientEEvRK23StaticTransferFieldInfoR31RuntimeSerializationCommandInfoRT0_
X7i:_DefaultComparer_Equals_m1163494476_gshared
NIk:_RIPEMD160Managed_GG_m3020389474
ARi:_Array_InternalArray__ICollection_Remove_TisDictionaryEntry_t3123975638_m3699186409_gshared
Yqg:_Object_Equals_m1397037629
Nyg:_AsyncOperation_t1445031843_marshal_pinvoke_back
gl:_emscripten_glGenVertexArrays
RLg:_Rect_get_center_m138276653
wQc:__ZN43b2SolveVelocityConstraintsContactSolverTask7TaskJobEPS_j
JWb:__ZN6Camera15SetOrthographicEb
Iqb:__ZN13MonoBehaviourD2Ev
IEe:_UNITY_FT_Stream_GetUShort
Ixb:__ZN13GfxDeviceGLES14DisableScissorEv
Fze:__ZNSt3__26vectorIN20TextRenderingPrivate8FontImpl7IntRectE13stl_allocatorIS3_L18MemLabelIdentifier35ELi16EEE21__push_back_slow_pathIRKS3_EEvOT_
r$d:__ZN5physx17PxcNpMemBlockPool23releaseConstraintMemoryEv
uwj:__Z240RuntimeInvoker_RuntimeObject_Int16_t2552820387_RuntimeObject_Int32_t2950945753_Int32_t2950945753_Int32_t2950945753_SByte_t1669577662_SByte_t1669577662_SByte_t1669577662_SByte_t1669577662_Int16_t2552820387_SByte_t1669577662_SByte_t1669577662PFvvEPK10MethodInfoPvPS4_
Gxa:__ZNSt3__26__treeINS_12__value_typeIN4core12basic_stringIcNS2_20StringStorageDefaultIcEEEES6_EENS_19__map_value_compareIS6_S7_NS_4lessIS6_EELb1EEE13stl_allocatorIS7_L18MemLabelIdentifier1ELi16EEE7destroyEPNS_11__tree_nodeIS7_PvEE
Hpj:__Z64RuntimeInvoker_Double_t594665363_RuntimeObject_Int32_t2950945753PFvvEPK10MethodInfoPvPS4_
ILh:_Group__ctor_m2243671333
Aih:_InternalEnumerator_1_System_Collections_IEnumerator_get_Current_m2141782011_AdjustorThunk
FMi:_Decimal_decimalMult_m3812462972
nfe:__ZNK5physx10PxsContext25getManagerTouchEventCountEPiS1_S1_
KYc:__Z40Rigidbody2D_CUSTOM_set_velocity_InjectedP12Il2CppObjectRK13Vector2fIcall
AXh:_RecordProtocol_BeginSendRecord_m615249746
cd:_glVertexAttrib4f
fij:_Enumerator_System_Collections_IEnumerator_get_Current_m209407522_AdjustorThunk
rCg:_Display_get_systemHeight_m730809466
qRc:__ZN12b2BroadPhase13QueryCallbackEi
D2d:__ZN5physx6shdfnd4sortIPNS_10PxsCCDPairENS_13ToiPtrCompareENS0_19ReflectionAllocatorIS3_EEEEvPT_jRKT0_RKT1_j
Eqk:_List_1_System_Collections_IList_Insert_m4074493513_gshared
F2d:__ZN5physx13PxsCCDContext23runCCDModifiableContactEPNS_19PxModifiableContactEjPKNS_12PxsShapeCoreES5_PKNS_12PxsRigidCoreES8_PKNS_12PxsRigidBodyESB_
zye:__ZNSt3__26vectorINS_4pairINS1_IttEEfEENS_9allocatorIS3_EEE8__appendEj
UUk:_Uri_GetOpaqueWiseSchemeDelimiter_m1909471550
UKa:__ZN12ImageFilters4BlitER17ShaderPassContextP7TextureP13RenderTextureiP8MaterialiNS_9BlitFlagsE11CubemapFaceRK8Vector2fSC_
dKe:_UNITY_tt_face_get_location
vel:_Collision_get_gameObject_m3662658840
Xoa:__Z17SetupObjectMatrixRK10Matrix4x4fi
Hhi:_Char_Equals_m1279957088_AdjustorThunk
Q5i:_Dictionary_2_OnDeserialization_m1254782141_gshared
bpd:__ZN5physx6shdfnd8PoolBaseINS_11NpAggregateENS0_19ReflectionAllocatorIS2_EEE17releaseEmptySlabsEv
HQ:__ZN13RuntimeStaticINSt3__23mapINS0_4pairIPcS3_EEPFbPvR14SafeBinaryReadE20smaller_tstring_pairIPKcENS0_9allocatorINS2_IKS4_S9_EEEEEELb0EE13StaticDestroyES5_
tyi:_FileStream_FlushBufferIfDirty_m4249802951
Esh:_DefaultComparer_Compare_m1916473435_gshared
uHi:_Convert_ToSByte_m2653811524
mAe:_open_face
TSa:__ZN30RuntimeInitializeOnLoadManager15ClassMethodInfo8TransferI19StreamedBinaryWriteILb0EEEEvRT_
fkc:__ZZL31RegisterOtherRendererPropertiesR22GenericPropertyBindingEN30Wrapper_RendererReceiveShadows13SetFloatValueEPvf
DSe:__ZN2UI13PrepareOutputER9GfxDeviceRNS_7BatchesEjjNS_30AdditionalCanvasShaderChannelsE
oTe:__Z17RegisterModule_UIv
Oje:__ZN5physx2Sc17ParticleSystemSim19unlinkParticleShapeEPNS0_19ParticlePacketShapeE
bng:_MonoCustomAttrs_GetCustomAttributes_m1347331976
LHg:_Mesh_Clear_m2630385472
Mlj:__Z46RuntimeInvoker_RuntimeObject_Int16_t2552820387PFvvEPK10MethodInfoPvPS4_
Rtf:_SynchronizationAttribute_set_Locked_m2760363037
mti:_Int16_Equals_m82811458
p3g:_Selectable_EvaluateAndTransitionToSelectionState_m3735354430
bRh:_PrivateKeyInfo_Decode_m986145117
TMg:_RectOffset_get_top_m2855347295
aB:__ZN4FMOD5Sound11setUserDataEPv
fYc:__ZN4core8hash_setINS_4pairIKNSt3__24pairIPK10Collider2DS6_EEiLb0EEENS_9hash_pairINS4_23ColliderPairHashFunctorES8_iEENS_10equal_pairINS2_8equal_toIS7_EES8_iEEE4growEi
y0b:__ZN14SafeBinaryRead21TransferSTLStyleArrayINSt3__26vectorIN9ShaderLab19SerializedSubShaderENS1_9allocatorIS4_EEEEEEvRT_17TransferMetaFlags
eYc:__ZN4core8hash_setINS_4pairIKNSt3__24pairIPK10Collider2DS6_EEiLb0EEENS_9hash_pairINS4_23ColliderPairHashFunctorES8_iEENS_10equal_pairINS2_8equal_toIS7_EES8_iEEE4growEv
b5e:_ExecuteEvents_Execute_m533210008
_oj:__Z137RuntimeInvoker_Void_t1185182177_Int32_t2950945753_RuntimeObject_RuntimeObject_RuntimeObject_RuntimeObject_RuntimeObject_SByte_t1669577662PFvvEPK10MethodInfoPvPS4_
Vld:__ZN5physx10PxsContext19destroyArticulationERNS_15PxsArticulationE
S1a:__ZNK25SingleBlockMemoryFileData4SizeEv
BEi:_DateTime__ParseAmPm_m3478436123
rbe:__ZN5physx2Gu22GJKRelativePenetrationERKNS0_10ShrunkBoxVES3_RKNS_6shdfnd3aos15PsMatTransformVERKNS5_6FloatVERNS5_5Vec3VESD_SD_RS9_PhSF_Rh
uYe:__ZN11UnityEngine7Connect20RemoteConfigSettings19ConfigChangedStaticEPS1_RKN4core12basic_stringIcNS3_20StringStorageDefaultIcEEEER8JSONReadb
y2d:__ZN5physx2Cm12DelegateTaskINS_13PxsCCDContextEXadL_ZNS2_12postCCDSweepEPNS_10PxBaseTaskEEEE11runInternalEv
bLd:__ZN5physx23NpParticleFluidReadData18setDataAccessFlagsENS_7PxFlagsINS_16PxDataAccessFlag4EnumEhEE
jC:__ZL50UnityAudioEffect_InternalSetFloatParameterCallbackP14FMOD_DSP_STATEif
aOl:__ZNK15dense_hashtableINSt3__24pairIK10KeyWrapperIP12Il2CppObjectEN6il2cpp2gc9CachedCCWEEES5_NS7_5utils11PointerHashIS3_EEN14dense_hash_mapIS5_S9_SD_NS5_14EqualsComparerINS0_8equal_toIS4_EEEENS0_9allocatorISA_EEE9SelectKeyESI_SK_E3endEv
OJi:_DateTime_System_IConvertible_ToUInt32_m3781235049
AP:__ZN17LowLevelAllocator4FreeEPvj
BNj:__Z77RuntimeInvoker_RuntimeObject_UIVertex_t4057497605_RuntimeObject_RuntimeObjectPFvvEPK10MethodInfoPvPS4_
Eue:__ZN5physx7profile8ZoneImplINS_28PxProfileNameProviderForwardEE10eventValueEtyx
Zlj:__Z92RuntimeInvoker_Int32_t2950945753_RuntimeObject_RuntimeObject_SByte_t1669577662_RuntimeObjectPFvvEPK10MethodInfoPvPS4_
ivi:_Int64_System_IConvertible_ToType_m3223988955
VSb:__ZN14qsort_internal5QSortIP16RenderObjectDatai25RenderPrePassObjectSorterEEvT_S4_T0_T1_
oVj:_Type_GetGenericTypeDefinition_m639345035
m$h:_SymmetricAlgorithm_Dispose_m1120980942
nZ:__ZL19StaticCleanupPlayerPv
cng:_MonoCustomAttrs_RetrieveAttributeUsage_m2717094301
d5d:__ZN5physx24writeBackContactCoulomb4EPKNS_23PxcSolverConstraintDescERNS_16PxcSolverContextEPPKNS_17PxcSolverBodyDataES8_
byg:_AnimationCurve_Init_m425927913
iD:__ZN12AudioManager37RebindAudioSourcesAndSubMixersToMixerEP10AudioMixer
Sda:__ZN9Behaviour10DeactivateE19DeactivateOperation
E5g:_LayoutGroup_DelayedSetDirty_m2562435574
VAa:__ZN13StreamingInfo8TransferI14SafeBinaryReadEEvRT_
eRi:_Array_InternalArray__ICollection_Contains_TisContactPoint_t3758755253_m1890115071_gshared
X0b:__ZN15dense_hashtableINSt3__24pairIKiN4core17string_with_labelILi1EEEEEi18SInt32HashFunctionN14dense_hash_mapIiS5_S7_NS0_8equal_toIiEE13stl_allocatorIS6_L18MemLabelIdentifier1ELi16EEE9SelectKeyESA_SD_E15insert_noresizeERKS6_
hal:_Physics2D_Raycast_m1377762210
oPl:__ZN6il2cpp2vmL22RaiseOverflowExceptionEv
Zq:__Z23CalculateGlobalRotation23TransformAccessReadOnly
cra:__ZN16GraphicsSettings28SetLightsUseColorTemperatureEb
jxa:__ZNK9ShaderLab7Program11IsSupportedEPK6Shader
z2k:_cameraController_LateUpdate_m1432640849
I_d:__ZN5physx2Cm10FanoutTaskD0Ev
$if:_TypeBuilder_GetMethodImpl_m3583143647
aud:__ZN5physx14NpShapeManager26markAllSceneQueryForUpdateERNS_2Sq17SceneQueryManagerE
kjg:__ZL54LayoutGroup_t2436138090_CustomAttributesCacheGeneratorP21CustomAttributesCache
A4l:_strcat
ekd:__ZN5physx2Sc21ConstraintInteractionD2Ev
ooc:__Z18TransformPoints3x4RK10Matrix4x4fPK8Vector3fjPS2_ji
vY:__ZL26DestroyGameObjectRecursiveR10GameObjectR11BatchDelete
ZXl:_GC_allochblk_nth
Z2e:_BaseInput_get_touchSupported_m2634027966
Mbh:_ScrollRect_get_vScrollingNeeded_m1717136831
Loe:__ZNK5physx2Gu9Container8ContainsEjPj
Gri:_TextInfo_Equals_m3029092201
jjc:__Z7HaloTexP9Texture2DPhiiii
H9l:dynCall_i
w1l:__ZNK6il2cpp8metadata23Il2CppGenericMethodHashclEPK19Il2CppGenericMethod
CH:__ZN17AudioCustomFilter4InitEv
O8l:dynCall_f
q0c:__ZN9Rigidbody10DeactivateE19DeactivateOperation
yDh:_ListDictionary_GetEnumerator_m3395631195
wue:__ZNK5physx7profile8ZoneImplINS_28PxProfileNameProviderForwardEE10hasClientsEv
x2i:_KeyPairPersistence_Save_m3111435398
gpl:__ZNK15dense_hashtableINSt3__24pairIK10KeyWrapperIP9FieldInfoEiEES5_N6il2cpp5utils11PointerHashIS3_EEN14dense_hash_mapIS5_iSB_NS5_14EqualsComparerINS0_8equal_toIS4_EEEENS0_9allocatorIS7_EEE9SelectKeyESG_SI_E13find_positionERS6_
U8l:dynCall_v
Wkc:__ZN13dynamic_arrayIS_I8Vector2fLj0EELj0EE18resize_initializedEj12ResizePolicy
PDb:__ZN7ApiGLES14TextureSamplerEjjRK24GfxTextureSamplingParams17TextureColorSpace
cCi:_SortedList_System_Collections_IEnumerable_GetEnumerator_m2738760439
lEl:__ZN6il2cpp2vm6Thread8SetStateEP12Il2CppThreadNS0_11ThreadStateE
hka:__ZN6Camera23VirtualRedirectTransferER14SafeBinaryRead
uyg:_Application_get_isEditor_m857789090
QRc:__ZN10Effector2D12AddToManagerEv
gYe:__ZN11UnityEngine7Connect13ConnectConfig11ConfigValueD2Ev
qEb:__ZNSt3__26__treeINS_12__value_typeIjP14DataBufferGLESEENS_19__map_value_compareIjS4_NS_4lessIjEELb1EEENS_9allocatorIS4_EEE7destroyEPNS_11__tree_nodeIS4_PvEE
a9:__ZN9Scripting11UnityEngine9Rendering20SphericalHarmonicsL212CleanupProxyEv
_pd:__ZN5physx14NpArticulationD0Ev
Ob:invoke_viiiiiiii
Psi:_Int16_System_IConvertible_ToDateTime_m3080274979_AdjustorThunk
oDk:_Collection_1_ConvertItem_m1760499239_gshared
uEb:__ZN18GfxFramebufferGLES24UpdateDefaultFramebufferEP17RenderSurfaceBaseS1_N2gl6HandleILNS2_10ObjectTypeE9EEE
_6f:__ZL66GUIUtility_t1868551600_CustomAttributesCacheGenerator_s_OriginalIDP21CustomAttributesCache
Rt:__ZL67__ManagedRegistrationHelperFunction_SharedBetweenAnimatorsAttributePv
aJk:_SslHandshakeHash__ctor_m4169387017
Iml:__ZN15dense_hashtableINSt3__24pairIK10KeyWrapperIN6il2cpp5utils13dynamic_arrayIPK10Il2CppTypeLj4EEEEPFvvEEESA_NS3_8metadata19Il2CppSignatureHashEN14dense_hash_mapISA_SD_SG_NSA_14EqualsComparerINSF_22Il2CppSignatureCompareEEENS0_9allocatorISE_EEE9SelectKeyESK_SM_E9copy_fromERKSP_j
Tcl:_Animator_ResetTrigger_m2321267720
LGa:__ZN16LightmapSettings5ResetEv
lFa:__ZN12FileAccessor4ReadEyPvPy
RIg:__ZN23InterfaceActionInvoker3I6Guid_tP22ByteU5BU5D_t4116647657iE6InvokeEjP11Il2CppClassP12Il2CppObjectS0_S2_i
Plj:__Z67RuntimeInvoker_Void_t1185182177_Int16_t2552820387_Int32_t2950945753PFvvEPK10MethodInfoPvPS4_
Hvc:__Z42Register_UnityEngine_Event_get_commandNamev
ZIb:__Z12IsFirstFramev
P_j:_Collection_1_IsValidItem_m714924194_gshared
Eyc:__ZN5Unity9rapidjson12PrettyWriterI16TempBufferWriterNS0_4UTF8IcEES4_13JSONAllocatorE12PrettyPrefixENS0_4TypeE
ZOj:_UnicodeEncoding_GetString_m332467280
eV:__ZN8TypeTreeC2E10MemLabelId
bY:__ZNK15FileSystemEntry6ExistsEv
uQg:_Transform_INTERNAL_get_rotation_m2413441996
_7e:_TouchInputModule_IsModuleSupported_m384818291
bKc:__ZN16PhysicsManager2D20FindParticleOverlapsER13dynamic_arrayI15BatchedOverlapsLj0EEPP10Collider2Dj
hU:__ZN17PersistentManager18ReadObjectThreadedEiNS_9LockFlagsE
nle:__ZN5physx2Gu10ConvexMesh4loadERNS_13PxInputStreamE
qwh:_Enumerator_get_Current_m35296194_AdjustorThunk
EKi:_DateTime_ToString_m884486936
pQh:_MD4Managed_HashCore_m3384203071
$E:__ZN13AudioListener23VirtualRedirectTransferER19StreamedBinaryWriteILb0EE
gUh:_ClientRecordProtocol_createClientHandshakeMessage_m3325677558
VUf:__ZL103Component_t1923634451_CustomAttributesCacheGenerator_Component_GetComponentsForListInternal_m1419905927P21CustomAttributesCache
boe:__ZN5physx6shdfnd5ArrayIPvNS0_19ReflectionAllocatorIN17PxcPoolMallocData10PoolData16EEEE15growAndPushBackERKS2_
Ayb:__ZN13GfxDeviceGLES11CopyTextureE9TextureIDS0_
qCi:_SortedList_get_Capacity_m919184864
A7i:_Dictionary_2_ContainsKey_m2278349286_gshared
rcm:_emscripten_glViewport__wrapper
RL:__ZN11UnityEngine15CloudWebService23WebRequestUploadHandler13GetUploadDataERj
bBg:_Color32_ToString_m403383053_AdjustorThunk
a5h:_String_IndexOfOrdinalUnchecked_m460601827
JUa:__ZN13dynamic_arrayI28EnlightenRendererInformationLj0EE6insertEPS0_PKS0_S4_
Zal:_Canvas_get_sortingOrder_m1860900812
csf:_ConfigHandler_ReadChannel_m781299361
XLg:_Rect_get_max_m350137314
XTb:__Z59ProcessShadowCasterNodeVisibilityAndCullWithoutUmbra_KernelILN17CullingParameters9LayerCullE1ELi8EEvR9IndexListRK22SceneCullingParametersPK9SceneNodePK4AABBjjPKN4math7_float4E
txj:__Z99RuntimeInvoker_Void_t1185182177_Int32_t2950945753_Int32_t2950945753_SByte_t1669577662_RuntimeObjectPFvvEPK10MethodInfoPvPS4_
cJe:_tt_size_select
huf:_InternalRemotingServices_GetCachedSoapAttribute_m1042302982
eK:__ZN11UnityEngine15CloudWebService17SessionEventQueue15RestoreFromFileER12FileAccessorPvy
dug:_ConstructorBuilder_GetILGenerator_m1421260830
kQa:__ZN14PlayerSettingsD2Ev
p7g:_RectMask2D_RemoveClippable_m773604960
exf:__ZL51Attribute_t861562559_CustomAttributesCacheGeneratorP21CustomAttributesCache
oHi:_Convert_ToSByte_m1350241137
JTc:__ZN10ClipperLib15FirstIsBottomPtEPKNS_5OutPtES2_
eOa:__ZN13dynamic_arrayI16BlendShapeVertexLj0EE18resize_initializedEj12ResizePolicy
$$:__ZN13PlayableGraph14DestroyOutputsEv
rCk:_Enumerator_System_Collections_IEnumerator_get_Current_m3895111131_gshared
Pf:___syscall122
LYc:__Z39Rigidbody2D_Set_Custom_PropGravityScaleP12Il2CppObjectf
b5c:__ZN16RayRTreeCallbackILi1ELb1EED0Ev
X9d:__ZL18PxcContactHullHullRKN5physx2Gu13PolygonalDataES3_RKNS_9PxBounds3ES6_RKNS_11PxTransformES9_fRNS0_13ContactBufferERKNS_2Cm23FastVertex2ShapeScalingESF_bb
RFi:_Convert_ToDecimal_m2858622624
grg:_OperatingSystem__ctor_m1545635730
CFd:__ZN5physx7NpCloth16setContactOffsetEf
AFd:__ZN5physx7NpCloth23setSimulationFilterDataERKNS_12PxFilterDataE
Mvk:_List_1_RemoveAll_m2406195485_gshared
_7c:__ZN5physx3Cct26CharacterControllerManager21resetObstaclesBuffersEv
kje:__ZN5physx6shdfnd5ArrayIPNS_10PxsCCDBodyENS0_19ReflectionAllocatorIS3_EEE8recreateEj
JH:__ZN9AudioClip16EnableLegacyModeEv
ptf:_Context_DoCallBack_m749197451
Dbl:_CanvasRenderer_set_materialCount_m4286588063
h4l:_mkdir
VZc:__ZN9Scripting11UnityEngine7Physics12CleanupProxyEv
p0k:_VerticalLayoutGroup_SetLayoutHorizontal_m84550911
ree:__ZN5physx6shdfnd8PoolBaseINS_21PxsBodyTransformVault13PxsBody2WorldENS0_19ReflectionAllocatorIS3_EEE12allocateSlabEv
hFh:_HttpWebRequest_get_ServicePoint_m3916606901
Bhj:_Enumerator_MoveNext_m29052175_AdjustorThunk
Zch:_Slider_UpdateVisuals_m3662961057
G8h:_PKCS12_ReadSafeBag_m1585166574
iLe:_ps_hints_close
Lkc:__Z16CreateRenderLoopR6Camera
z4d:__ZN5physx20PxcNpCacheStreamPairC2ERNS_17PxcNpMemBlockPoolE
Krb:__ZN32SerializationCommandQueueBuilder3AddERK20SerializationCommand
KP:_tlsf_create
n7j:_ReadOnlyCollection_1_System_Collections_IEnumerable_GetEnumerator_m2505713430_gshared
C2l:_frexpl
hTa:__ZN14SafeBinaryRead21TransferSTLStyleArrayINSt3__26vectorIN15ResourceManager10DependencyE13stl_allocatorIS4_L18MemLabelIdentifier52ELi16EEEEEEvRT_17TransferMetaFlags
aTc:__ZN10ClipperLib7ClipperC1Ei
Tqb:__ZN13MonoBehaviour23VirtualRedirectTransferER18StreamedBinaryReadILb0EE
r2b:__ZN9ShaderLab20SerializedSubProgramC2ERKS0_
GKa:__ZN9Texture3D17UploadToGfxDeviceEv
Qok:_Array_InternalArray__get_Item_TisKeyValuePair_2_t71524366_m252172060_gshared
h6l:__ZNK10__cxxabiv121__vmi_class_type_info27has_unambiguous_public_baseEPNS_19__dynamic_cast_infoEPvi
Qog:_MulticastDelegate_CombineImpl_m2857239134
UCj:__Z171RuntimeInvoker_Void_t1185182177_RuntimeObject_RuntimeObject_RuntimeObject_RuntimeObject_RuntimeObject_RuntimeObject_RuntimeObject_RuntimeObject_RuntimeObject_RuntimeObjectPFvvEPK10MethodInfoPvPS4_
Kfi:_Boolean_System_IConvertible_ToUInt16_m3465173538
lZj:_Version_op_Inequality_m1696193441
mqf:_Marshal_ReadByte_m1960935664
gfd:__ZNK5physx11PxAggregate8isKindOfEPKc
_l:_emscripten_glGetActiveUniform
wji:_ArrayListWrapper_CopyTo_m3756520478
Wof:_ResourceInfo_t2872965302_marshal_pinvoke
Yla:__ZN16RenderTextureMap5QueryEPK17RenderSurfaceBase
fge:__ZN5physx28solveParallelCouloumFrictionERNS_18PxsDynamicsContextEjjPNS_13PxcSolverBodyEPNS_17PxcSolverBodyDataEjjPNS_25PxcArticulationSolverDescEjPNS_23PxcSolverConstraintDescEjS9_jPiSA_SA_SA_SA_SA_PNS_25PxcThresholdStreamElementEjSA_PNS_2Cm13SpatialVectorEPKPNS_11PxsBodyCoreERNSD_10BitMapBaseINS_6shdfnd9AllocatorEEEPKPNS_15PxsArticulationEjPViRNSL_5ArrayINS_24PxsConstraintBatchHeaderENSL_19ReflectionAllocatorISW_EEEES10_RNSV_IjNSX_IjEEEES13_PPNS_12PxsRigidBodyEj
skc:__ZN8Material8GetFloatEN9ShaderLab16FastPropertyNameE
O3d:__ZN5physx2Gu18gjkRelativeRayCastINS0_9TriangleVENS0_4BoxVES2_NS0_10ShrunkBoxVEEEbRT_RT0_RKNS_6shdfnd3aos15PsMatTransformVERKNSA_6FloatVERKNSA_5Vec3VESJ_RSE_RSH_SL_fb
Mvc:__Z11GetGUIStatev
Pg:_glGetActiveUniform
GVi:_Array_InternalArray__IndexOf_TisSlot_t3975888750_m4250446283_gshared
twd:__ZN5physx2Sc8BodyCoreD2Ev
Qrc:__Z57Register_UnityEngine_MonoBehaviour_StartCoroutineManaged2v
Uvi:_IntPtr__ctor_m620280096_AdjustorThunk
iTk:_CharacterClass_AddCharacter_m2370152363
vka:__ZN15SerializeTraitsI10ColorRGBAfE8TransferI14SafeBinaryReadEEvRS0_RT_
M1j:_Collection_1_IsValidItem_m2333176545_gshared
pZ:__ZN22BuiltinResourceManager13StaticDestroyEPv
O8:__ZN9Scripting11UnityEngine25SerializePrivateVariables12CleanupProxyEv
JLc:__ZNK14b2CapsuleShape11ComputeMassEP10b2MassDataf
lY:__ZN10GameObject17GetComponentIndexEPN5Unity9ComponentE
DEd:__ZN5physx7NpCloth20setMotionConstraintsEPKNS_31PxClothParticleMotionConstraintE
mkk:_Array_InternalArray__set_Item_TisILTokenInfo_t2325775114_m309595583_gshared
XB:__ZN29AudioEffectInternalDefinition9CreateDSPEPN4FMOD6SystemEPvPfP23UnityAudioAmbisonicDataPP25UnityAudioSpatializerData
QKe:_UNITY_tt_face_vary_cvt
eVa:__ZN13RenderManager18UpdateAllRenderersEv
EVk:_Event_Internal_GetMousePosition_m1101229675
cle:__ZNK5physx2Sc15ClothFabricCore9getPhasesEPNS_18PxClothFabricPhaseEj
JYb:__ZN35RegisterRuntimeInitializeAndCleanup22ExecuteInitializationsEv
LKc:__Z14b2TimeOfImpactP11b2TOIOutputPK10b2TOIInput
_$h:_TripleDESCryptoServiceProvider_CreateEncryptor_m450924958
DUk:_UriParser_GetParser_m544052729
J3g:_Text_get_font_m2857203289
Lem:b100
Sx:__ZN23PreloadManagerOperation14SetFinalTimingEffff
i:DYNAMICTOP_PTR
jxg:_MethodBuilder_fixup_m1765890582
qKb:__Z11CopyTextureP7TextureiiS0_ii
PRa:__ZN13BuildSettings8TransferI18StreamedBinaryReadILb0EEEEvRT_
Jmg:_MissingFieldException__ctor_m4282575076
zMi:_Decimal_Equals_m2592017260
zsf:_ConfigHandler_OnEndParsing_m3764034673
sYd:__ZN5physx3Scb17ArticulationJoint9syncStateEv
t3d:__ZNK5physx2Gu29EPASupportMapPairRelativeImplINS0_8CapsuleVENS0_4BoxVEE18doWarmStartSupportEiiRNS_6shdfnd3aos5Vec3VES8_S8_
IUg:_RemotingConfiguration_RegisterTypes_m2378540395
_tc:__Z38Renderer_Get_Custom_PropSortingLayerIDP12Il2CppObject
nie:__ZN5physx17PxsThresholdTable5buildERKNS_18PxsThresholdStreamE
wii:_ArrayList_get_Capacity_m431818936
Mmh:_InternalEnumerator_1_System_Collections_IEnumerator_get_Current_m767948013_gshared
n3k:_playerMovement_IsWalledRight_m2914920671
nyg:_UnityAction_Invoke_m893829196
hZ:__ZNK11TypeManager23FindAllRTTIDerivedTypesEPK4RTTIR13dynamic_arrayIS2_Lj0EEb
Nt:__ZL58__ManagedRegistrationHelperFunction_AnimatorTransitionInfoPv
Z7d:__ZN9BoxPruner12updateObjectERK5IAABBt
Lhd:__ZN5physx2Sc10NPhaseCore32createActorPairContactReportDataEv
Wbe:__ZN5physx2Gu22pcmContactPlaneCapsuleERKNS0_13GeometryUnionES3_RKNS_11PxTransformES6_RKfRNS0_5CacheERNS0_13ContactBufferE
oRa:__ZN14AsyncOperationD0Ev
wBb:__Z29TextureIdMapGLES_QueryOrAlloc9TextureID
_wl:__ZN15dense_hashtableINSt3__24pairIK10KeyWrapperINS1_IPK12PropertyInfoP11Il2CppClassEEEjEES9_17ReflectionMapHashIS8_EN14dense_hash_mapIS9_jSD_NS9_14EqualsComparerINS0_8equal_toIS8_EEEENS0_9allocatorISB_EEE9SelectKeyESI_SK_E12resize_deltaEjj
IAg:_Color_GetHashCode_m1829208463
Ptb:__ZN13ScreenManager18SetAllowCursorLockEb25DisallowCursorLockReasons
p4g:_Text_get_cachedTextGeneratorForLayout_m116487342
vdl:__ZL11decimalLog2P19il2cpp_decimal_repr
oTa:__ZN15ResourceManager10Dependency8TransferI14SafeBinaryReadEEvRT_
$5d:__ZNK5physx29BroadPhaseBatchUpdateWorkTask7getNameEv
EHk:_Collection_1_System_Collections_IList_Remove_m3800279569_gshared
pWl:_GC_extend_size_map
rwg:_GenericTypeParameterBuilder_GetCustomAttributes_m386082976
beh:_Text_FontTextureChanged_m495427969
Upg:_NumberFormatter_RoundDecimal_m2957290908
zC:__ZN4FMOD6System9setDriverEi
pVb:__ZNK9Transform11GetRotationEv
ydm:_emscripten_glGetIntegerv__wrapper
ZWd:__ZN5physx2Sc5Scene26setVisualizationCullingBoxERKNS_9PxBounds3E
uXi:_Array_InternalArray__ICollection_Add_TisSingle_t1397266774_m1873979703_gshared
FLe:_pshinter_get_globals_funcs
khb:__Z18Transfer_BlittableI24GenerateTypeTreeTransferLb0EyEvRK29SerializationCommandArgumentsR31RuntimeSerializationCommandInfo
mxa:__ZN8Material14CreateMaterialER6ShaderN6Object9HideFlagsEb
bTj:_TimeSpan_get_Minutes_m4278980001_AdjustorThunk
UHe:_tt_cmap12_char_map_binary
VVk:_GUI__cctor_m3051457990
kre:__Z27GetMeshAssetPathDescriptivePK4Mesh
L4j:_ReadOnlyCollection_1_System_Collections_Generic_ICollectionU3CTU3E_Add_m1738170497_gshared
iF:__ZN12AudioManager19RemoveAudioListenerEP13AudioListener
koa:__Z25GetBuiltinResourceManagerv
L0d:__ZN5physx2Sq16BucketPrunerCore20allocateSortedMemoryEj
zNl:__ZN6il2cpp2gc8GCHandle15GetTargetHandleEP12Il2CppObjectii
Sti:_Int32_System_IConvertible_ToByte_m3832391412
mi:_llvm_trap
KS:__ZNSt3__27__sort5IRNS_6__lessIN12_GLOBAL__N_114ParamNameIndexES3_EEPS3_EEjT0_S7_S7_S7_S7_T_
INk:_X509Certificate_VerifySignature_m3988463526
bWh:_TlsClientCertificate_get_ClientCertificate_m1637836254
MWl:_get_index
i9d:__ZNK5physx14SingleAABBTask7getNameEv
Dt:__ZL54__ManagedRegistrationHelperFunction_PositionConstraintPv
Mpe:__ZN5physx11HullLibrary11calchullgenEPNS_6float3Eiif
b2i:_KeyBuilder_Key_m876696100
ela:__Z26scripting_method_get_class18ScriptingMethodPtr
aul:__ZN15dense_hashtableINSt3__24pairIK10KeyWrapperINS1_IPK14Il2CppAssemblyP11Il2CppClassEEEjEES9_17ReflectionMapHashIS8_EN14dense_hash_mapIS9_jSD_NS9_14EqualsComparerINS0_8equal_toIS8_EEEENS0_9allocatorISB_EEE9SelectKeyESI_SK_EC2ERKSN_j
_ca:__ZN9Scripting11UnityEngine14AnimationCurve12CleanupProxyEv
fqa:__ZN17CollisionMeshData20VertexDataHasChangedEv
P1e:__ZL65__ManagedRegistrationHelperFunction_Internal_SubsystemDescriptorsPv
Oql:__ZN6il2cpp2vm21ThreadPoolCompartment12DetachThreadEP12Il2CppThread
UYg:_SByte_System_IConvertible_ToInt16_m885121451_AdjustorThunk
wFi:_Decimal_stripStyles_m1823381019
kyb:__ZN13GfxDeviceGLES30SetBackBufferColorDepthSurfaceEP17RenderSurfaceBaseS1_
u$f:__ZL63TexturePlayableOutput_t648497447_CustomAttributesCacheGeneratorP21CustomAttributesCache
lxc:__Z52Register_UnityEngine_GUIUtility_get_systemCopyBufferv
xok:_LayoutGroup_SetProperty_TisBoolean_t97287965_m3903959758_gshared
inc:__ZN16StreamedResource8TransferI18StreamedBinaryReadILb0EEEEvRT_
uec:__Z49Register_UnityEngine_Input_get_imeCompositionModev
pWd:__ZN5physx6shdfnd5ArrayINS_12PxActorShapeENS0_19ReflectionAllocatorIS2_EEE8recreateEj
W0b:__ZN15dense_hashtableINSt3__24pairIKiN4core17string_with_labelILi1EEEEEi18SInt32HashFunctionN14dense_hash_mapIiS5_S7_NS0_8equal_toIiEE13stl_allocatorIS6_L18MemLabelIdentifier1ELi16EEE9SelectKeyESA_SD_E12resize_deltaEjj
jLk:_TlsStream_get_EOF_m953226442
Vo:FUNCTION_TABLE_iiiiifi
whm:_emscripten_glDisableVertexAttribArray__wrapper
mia:__ZN14SafeBinaryRead21TransferSTLStyleArrayI13dynamic_arrayINSt3__24pairIi12ImmediatePtrIN5Unity9ComponentEEEELj0EEEEvRT_17TransferMetaFlags
Qoe:__ZNK5physx11Adjacencies22ComputeNbBoundaryEdgesEv
oba:__ZN9Scripting11UnityEngine12Experimental10PlayerLoop14Initialization12CleanupProxyEv
nPc:__ZN22b2IslandDiscreteSolver5SolveEv
Qng:_MonoType_GetAttributeFlagsImpl_m167182975
URh:_EncryptedData_get_EncryptedContent_m3205649670
RLa:__ZN12MeshRenderer18CalculateLocalAABBER4AABBRKS_RK4Mesh
rHd:__ZN5physx2Sc9ClothCore20setMotionConstraintsEPKNS_31PxClothParticleMotionConstraintE
D$b:__ZN21UnityDefaultAllocatorI17LowLevelAllocatorE8AllocateEji
Q9d:__ZN5physx23PxcContactCapsuleConvexERKNS_2Gu13GeometryUnionES3_RKNS_11PxTransformES6_RKfRNS_10PxcNpCacheERNS0_13ContactBufferE
pPe:__ZL28InitializeUIScriptingClassesv
Nzj:__Z54RuntimeInvoker_Vector2_t2156229523_Vector3_t3722313464PFvvEPK10MethodInfoPvPS4_
Iub:__ZN10UnityScene10ClearRootsEv
Y6j:_ReadOnlyCollection_1_System_Collections_IList_set_Item_m2162444692_gshared
n_a:__ZN12HandlerChain10AtomicMoveER13FileEntryDataS1_
d8a:__ZN9GfxDevice17HasGPUFencePassedEPv
K$:__ZZN15DirectorManager15InitializeClassEvEN48PreLateUpdateDirectorDeferredEvaluateRegistrator7ForwardEv
gxe:__ZN20SpeedTreeWindManager6UpdateEf
iOc:__ZN7b2World23SolveDiscreteIslandTaskERK10b2TimeStep
Dqj:__Z68RuntimeInvoker_Int64_t3736567304_IntPtr_t_MonoIOErrorU26_t1548853198PFvvEPK10MethodInfoPvPS4_
tv:__ZN7mecanim9animation20CreateAvatarConstantEPNS_8skeleton8SkeletonEPNS1_13SkeletonPoseTIN4math4trsXEEES8_PNS_5human5HumanES3_iRKS6_RNS_6memory9AllocatorE
G1e:__Z20RegisterModule_WebGLv
AOa:__ZN14CompressedMesh8TransferI19StreamedBinaryWriteILb0EEEEvRT_
Qpd:__ZN5physx6shdfnd5ArrayIPvNS0_15InlineAllocatorILj256ENS0_19ReflectionAllocatorINS_14NpRigidDynamicEEEEEE15growAndPushBackERKS2_
Xik:_Array_InternalArray__Insert_TisDouble_t594665363_m675699942_gshared
yXa:__ZN13dynamic_arrayI15ComputeShaderCBLj0EE6assignEPKS0_S3_
Kgl:__GLOBAL__sub_I_Class_cpp
Wxk:_List_1_System_Collections_IList_Add_m3014885234_gshared
pfk:_UnityAction_1_Invoke_m3535252839_gshared
Gdd:__ZN5physx3Cct9SweepTest13onOriginShiftERKNS_6PxVec3E
xch:_Selectable_set_isPointerInside_m701571657
gQk:_PatternCompiler_EmitNotCategory_m2023580103
Hra:__ZN24GenerateTypeTreeTransfer8TransferI21PlatformShaderDefinesEEvRT_PKc17TransferMetaFlags
_Sa:__ZNK15ResourceManager22GetTypeVirtualInternalEv
KKl:__ZN6il2cpp2vmL36AddNestedTypesToNametoClassHashTableEPK11Il2CppImagePK20Il2CppTypeDefinition
Ezk:_List_1_set_Capacity_m2707586410_gshared
VIg:_PlayerConnection_MessageCallbackInternal_m1914517467
Zyg:_AttributeHelperEngine__cctor_m1900959362
gye:__ZN13TextRendering4Font23VirtualRedirectTransferER24GenerateTypeTreeTransfer
cgg:__ZL102Image_t2670269651_CustomAttributesCacheGenerator_Image_t2670269651____eventAlphaThreshold_PropertyInfoP21CustomAttributesCache
kHh:_X509SubjectKeyIdentifierExtension_ToString_m12089275
kEj:__Z106RuntimeInvoker_RuntimeObject_RuntimeObject_Int32_t2950945753_Int16_t2552820387_RuntimeObject_RuntimeObjectPFvvEPK10MethodInfoPvPS4_
AYj:_UnhandledExceptionEventArgs__ctor_m224348470
bbd:__ZN5physx6shdfnd5ArrayINS_11PxDebugLineENS0_19ReflectionAllocatorIS2_EEE15growAndPushBackERKS2_
P5d:__ZN5physx25solveContactConcludeBlockEPKNS_23PxcSolverConstraintDescEjRNS_16PxcSolverContextE
N9d:__ZN5physx21PxcContactPlaneConvexERKNS_2Gu13GeometryUnionES3_RKNS_11PxTransformES6_RKfRNS_10PxcNpCacheERNS0_13ContactBufferE
Ibl:_CanvasRenderer_SetPopMaterial_m2720611463
xVi:_Array_InternalArray__IndexOf_TisByte_t1134296376_m929524687_gshared
h5e:_ExecuteEvents_get_dragHandler_m3849431675
eOb:__ZN11HaloManager17RenderGeometryJobEP25DynamicVBOGeometryJobDataj
uJg:_Object_DestroyImmediate_m2288369078
_Oi:_Enum_System_IConvertible_ToDateTime_m3823814707
Ihm:_emscripten_glBlendEquation__wrapper
a5l:__ZNSt3__212basic_stringIcNS_11char_traitsIcEENS_9allocatorIcEEE6__initEPKcj
sk:_emscripten_set_fullscreenchange_callback
oQd:__ZN5physx2Sc5Scene11preAllocateEjjjjj
aif:_PropertyBuilder_IsDefined_m406627924
E9j:_ReadOnlyCollection_1_System_Collections_IList_Insert_m4085855595_gshared
EQk:_PatternCompiler_NewLink_m3699449496
uN:__ZN11UnityEngine15CloudWebService14DataDispatcher22ResetNetworkRetryIndexEv
xk:_emscripten_glDrawArrays
jGg:_Material_HasProperty_m2704238996
PHb:__ZZ23InitPlayerLoopCallbacksvEN43EarlyUpdateExecuteMainThreadJobsRegistrator7ForwardEv
ZM:__ZN11UnityEngine15CloudWebService19SessionEventManagerC2Ev
xhi:_Char_System_IConvertible_ToSingle_m2690985411_AdjustorThunk
Ck:_clock_getres
Xak:_Comparison_1_Invoke_m668117148_gshared
oDh:_DictionaryNodeEnumerator_FailFast_m2494733641
__c:__ZN14PhysicsManager5ResetEv
e1e:__ZN13RuntimeStaticI14dynamic_bitsetLb0EE16StaticInitializeEPv
Dqk:_List_1_System_Collections_IList_IndexOf_m581320577_gshared
O_c:__ZN5physx3Ext9MassProps13rotateInertiaERKNS_7PxMat33ERKNS_6PxQuatE
dI:__ZL19CleanupModule_Audiov
xNh:_IntervalCollection_CopyTo_m2976848759
S9e:_CanvasUpdateRegistry_ObjectValidForUpdate_m2723813849
b9a:__ZN18GlslGpuProgramGLES25LoadFromBinaryShaderCacheERjRKN4core12basic_stringIcNS1_20StringStorageDefaultIcEEEER17ShaderChannelMaskPKc
Nvk:_List_1_RemoveAt_m1433290785_gshared
zsj:__Z81RuntimeInvoker_Void_t1185182177_Int64_t3736567304_RuntimeObject_Int32_t2950945753PFvvEPK10MethodInfoPvPS4_
XMa:__Z30DrawSpriteBatchedFromNodeQueueRK15RenderNodeQueueRK18RenderMultipleData16VertexInputMasks
oeb:__Z29Transfer_Blittable_ArrayFieldI14SafeBinaryReadiEvRT_R9ArrayInfoRK23StaticTransferFieldInfo
Erl:__ZN6il2cpp6icalls8mscorlib6System8MonoType8GetFieldEP20Il2CppReflectionTypeP12Il2CppStringi
wHc:__ZN9Scripting11UnityEngine21CachedContactPoints2D9InitProxyEv
Jml:__ZN15dense_hashtableINSt3__24pairIK10KeyWrapperIN6il2cpp5utils13dynamic_arrayIPK10Il2CppTypeLj4EEEEPFvvEEESA_NS3_8metadata19Il2CppSignatureHashEN14dense_hash_mapISA_SD_SG_NSA_14EqualsComparerINSF_22Il2CppSignatureCompareEEENS0_9allocatorISE_EEE9SelectKeyESK_SM_E5clearEv
v_h:_SHA256Managed_ProcessBlock_m2297835517
Ndm:_emscripten_glVertexAttrib3fv__wrapper
jOg:_Scene_Equals_m581999093
xDi:_Convert_ToBoolean_m4098720762
y9j:_ReadOnlyCollection_1_System_Collections_ICollection_CopyTo_m511916545_gshared
jSi:_Array_InternalArray__ICollection_Remove_TisOrderBlock_t1585977831_m1449044465_gshared
hsg:_AssemblyName__ctor_m1753467291
edh:_Slider_set_minValue_m3431883418
xpc:__ZN8Material10GetTextureEN9ShaderLab16FastPropertyNameE
bBh:_Enumerator_System_Collections_IEnumerator_get_Current_m1657817602_gshared
VIa:__ZN18StreamedBinaryReadILb0EE21TransferSTLStyleArrayI13dynamic_arrayI10Matrix4x4fLj16EEEEvRT_17TransferMetaFlags
$hc:__ZNK28MonoBehaviourPropertyBinding13GetFloatValueERKN11UnityEngine9Animation10BoundCurveE
CYi:_Array_InternalArray__ICollection_CopyTo_TisMark_t3471605523_m3650504988_gshared
wKb:__ZL20BlitToStagingTextureP7TextureiS0_i
CYl:_GC_generic_malloc
r0d:__ZNK5physx2Sq12BucketPruner7overlapERKNS0_9ShapeDataERNS0_14PrunerCallbackE
DGh:_WebHeaderCollection_get_Keys_m910440889
nyb:__ZN13GfxDeviceGLES32CreateDepthRenderSurfacePlatformEP17RenderSurfaceBase17DepthBufferFormat
C2i:_KeyPairPersistence__ProtectMachine_m813172390
N6d:__ZN5physx23PxsBroadPhaseContextSap7destroyEv
mji:_ArrayListWrapper_Clear_m2625302714
Y2d:__ZN5physx19PxcGetMaterialShapeEPKNS_12PxsShapeCoreEjRNS_18PxcNpThreadContextEPNS_15PxsMaterialInfoE
Zhm:_emscripten_glIsTexture__wrapper
ATh:_CipherSuiteCollection_System_Collections_IEnumerable_GetEnumerator_m3240848888
sbk:_Comparison_1_BeginInvoke_m3417636795_gshared
l4a:__ZN9GfxDevice25ReleaseAsyncCommandHeaderEPN21GfxDeviceAsyncCommand3ArgE
uOk:_X509Crl_Parse_m3164013387
ivb:__Z19InitializeGfxDevicev
TVf:__ZL75Mesh_t3648964284_CustomAttributesCacheGenerator_Mesh_HasChannel_m4256962133P21CustomAttributesCache
xXc:__ZN17Physics2DSettings15InitializeClassEv
yFb:__ZN21UniformBufferTFMethod20IsBoneCountSupportedEi
rgf:_HorizontalLayoutGroup_CalculateLayoutInputHorizontal_m750541069
oSl:__ZN6il2cpp6icalls8mscorlib6System11Environment11get_NewLineEv
TJh:_X509CertificateCollection__ctor_m1395805580
wof:_ResourceReader_CreateResourceInfo_m1818330740
K$c:__ZNSt3__26__treeINS_12__value_typeI9ShapePair16TriggerStayStateEENS_19__map_value_compareIS2_S4_NS_4lessIS2_EELb1EEENS_9allocatorIS4_EEE7destroyEPNS_11__tree_nodeIS4_PvEE
Xcl:_OnOverrideControllerDirtyCallback_Invoke_m764065723
dxa:__ZN6Shader27MarkShaderStateNotSupportedEPKS_
O6:__ZL55__ManagedRegistrationHelperFunction_DrawShadowsSettingsPv
Lbd:__Z13raycast_planeRKN5physx10PxGeometryERKNS_11PxTransformERKNS_6PxVec3ES8_fNS_7PxFlagsINS_9PxHitFlag4EnumEtEEjPNS_12PxRaycastHitEbPFbRSD_PvESG_
fMk:_NetscapeCertTypeExtension_Decode_m251886799
Y6:__ZL52__ManagedRegistrationHelperFunction_GradientAlphaKeyPv
zJg:_Object_Internal_CloneSingle_m1021157572
bFb:__ZN25TransformFeedbackSkinning8SkinMeshERK18VertexStreamSourceP9GfxBufferP17GPUSkinPoseBufferS4_ii17ShaderChannelMaskb
jKl:__ZN15dense_hashtableINSt3__24pairIK10KeyWrapperIP14Il2CppIUnknownEjEES5_N6il2cpp5utils11PointerHashIS3_EEN14dense_hash_mapIS5_jSB_NS5_14EqualsComparerINS0_8equal_toIS4_EEEENS0_9allocatorIS7_EEE9SelectKeyESG_SI_E12resize_deltaEjj
gof:_ResolveEventArgs__ctor_m1455935166
EUj:_Type_Equals_m1673304139
Qkg:_SynchronizedReader_Read_m1388613247
tte:__ZN5physx9NpFactory14createInstanceEv
led:__ZN5physx2Cm12RenderBufferD2Ev
oid:__ZL32GeomOverlapCallback_PlaneCapsuleRKN5physx10PxGeometryERKNS_11PxTransformES2_S5_PNS_2Gu12TriggerCacheE
NHd:__ZN5physx2Sc9ClothCore13setGlobalPoseERKNS_11PxTransformE
Y9g:_Scrollbar_OnPointerDown_m3213715319
_Ec:__ZN8JSONRead8TransferIN4math12int3_storageEEEvRT_PKc17TransferMetaFlagsb
aJb:__ZN27IntermediateRendererManager29ClearAllIntermediateRenderersEv
k7e:_StandaloneInputModule__ctor_m2419721820
Cth:_Comparer_1_System_Collections_IComparer_Compare_m2018996185_gshared
_q:__Z17CalculateGlobalSM23TransformAccessReadOnlyRKN4math7_float4E
mli:_CollectionBase_System_Collections_IList_Contains_m2994901969
Am:_emscripten_glLoadIdentity
WYb:__ZNSt3__26vectorINS_4pairIN4core12basic_stringIcNS2_20StringStorageDefaultIcEEEEPK17MessageIdentifierEENS_9allocatorISA_EEE26__swap_out_circular_bufferERNS_14__split_bufferISA_RSC_EEPSA_
Jag:__ZL57RemoteSettings_t1718627291_CustomAttributesCacheGeneratorP21CustomAttributesCache
fgl:_NativeMethodAttribute_set_HasExplicitThis_m2961870915
FJg:_Vector3_get_zero_m1409827619
SIb:__ZN6Shader16GetDefaultOrNullEv
b6c:__ZN5physx2Gu21sweepCapsuleTrianglesEjPKNS_10PxTriangleERKNS0_7CapsuleERKNS_6PxVec3EfPKjRNS_7PxFlagsINS_9PxHitFlag4EnumEtEERfRS7_SI_RjSI_SF_bPKNS0_3BoxE
tr:__ZN4AABB8TransferI14SafeBinaryReadEEvRT_
WQi:_Array_InternalArray__ICollection_Contains_TisX509ChainStatus_t133602714_m795171973_gshared
ZIl:__ZN6il2cpp2vm8Liveness8FromRootEP12Il2CppObjectPv
$Jc:__ZN16PhysicsManager2D26GetGameObjectForRaycastHitERK12RaycastHit2D
jPa:__ZN12MeshRenderer23VirtualRedirectTransferER19StreamedBinaryWriteILb0EE
s0a:__ZNK17ArchiveFileSystem9EnumerateEPKcP19dynamic_block_arrayI13FileEntryInfoLj32EEbPPv19FileEnumerationFlag
IOc:__ZN15b2ContactSolver38SolveContinuousPositionConstraintsTaskEii
Q_b:__Z11MD5ToStringPh
TRl:__ZN6il2cpp2vm6Method17IsGenericInstanceEPK10MethodInfo
dql:__ZN23InterfaceActionInvoker4IixxbE6InvokeEjP11Il2CppClassP12Il2CppObjectixxb
eec:__Z38Input_Get_Custom_PropCompositionStringv
RN:__GLOBAL__sub_I_artifacts_WebGL_codegenerator_0_cpp_862
JPc:__ZN7b2WorldaSERKS_
Yjd:__ZNK5physx2Sc14ConstraintCore13getBreakForceERfS2_
bgd:__ZN5physx2Sc8ShapeSim21destroyLowLevelVolumeEv
Y3i:_ContentInfo_get_ASN1_m1776225219
W_f:__ZL82NativeContainerNeedsThreadIndexAttribute_t764917452_CustomAttributesCacheGeneratorP21CustomAttributesCache
CK:__ZN9JSONWrite8TransferIN4core12basic_stringIcNS1_20StringStorageDefaultIcEEEEEEvRT_PKc17TransferMetaFlags
bJa:__ZN10SpriteBone8TransferI19StreamedBinaryWriteILb0EEEEvRT_
Hue:__ZThn116_N5physx7profile8ZoneImplINS_28PxProfileNameProviderForwardEED1Ev
$Kc:__ZN24b2ChainAndPolygonContact6CreateEP9b2FixtureiS1_iP16b2BlockAllocator
MHi:_Convert_ToSingle_m2533452644
j5l:__ZNSt3__212basic_stringIcNS_11char_traitsIcEENS_9allocatorIcEEE6resizeEjc
zOd:__ZN5physx2Sc8BodyCore17setAngularDampingEf
nQa:__ZN14PlayerSettings16CheckConsistencyEv
ARb:__Z25CalculateFocusedLightHullPK8Vector3fRS0_RK10MinMaxAABBR13dynamic_arrayIS_Lj0EE
mH:__ZN11AudioModule30GetOrCreateDSPFromCustomFilterEP17AudioCustomFilter
Ola:__ZN19AtomicPageAllocatorD2Ev
r4e:_EventTrigger_OnPointerEnter_m986348926
one:__ZNK5physx2Gu12TriangleMesh24getTriangleMaterialIndexEj
Tte:__ZN5physx6shdfnd5ArrayIPvNS0_19ReflectionAllocatorINS_24NpPtrTableStorageManager8PtrBlockILi64EEEEEE4copyINS0_15InlineAllocatorILj256ES7_EEEEvRKNS1_IS2_T_EE
uJl:__ZN6il2cpp6icalls8mscorlib6System13GlobalizationL20culture_lcid_locatorEPKvS5_
b0h:_X509Certificate__ctor_m1413707489
vil:__ZN6il2cpp2vm5Class9HasParentEP11Il2CppClassS3_
L7j:_ReadOnlyCollection_1_System_Collections_Generic_ICollectionU3CTU3E_Remove_m2211264472_gshared
F7l:dynCall_vifiiiiiiiiiiiii
NBa:__ZNK12CubemapArray16ExtractImageImplEP14ImageReferenceNS0_8BlitModeEbi
npc:__ZN10systeminfo24GetSystemLanguageCultureEi
j6a:__ZN9GfxDevice24RequestAsyncReadbackDataEP20GfxAsyncReadbackDataRK27GfxAsyncReadbackRequestDesc
AQa:__ZN10VRSettings8TransferI14SafeBinaryReadEEvRT_
Fba:__ZN9Scripting11UnityEngine12Experimental18GlobalIllumination11LightDataGI9InitProxyEv
fVj:_Type_IsMarshalByRefImpl_m914778231
Yle:__ZN5physx13BigConvexData15exportExtraDataERNS_22PxSerializationContextE
oZa:__ZNK17FileSystemHandler10IsReadOnlyERK13FileEntryData
FBe:_UNITY_FT_Outline_Get_CBox
jtc:__Z56Register_UnityEngine_SystemInfo_GetOperatingSystemFamilyv
bmi:_Hashtable__ctor_m2302711321
oa:invoke_viifiiii
Tgi:_Byte_TryParse_m1467448483
K8l:dynCall_viiiiiif
zPg:_Texture2D_get_whiteTexture_m2176011403
Hma:__ZN22PerThreadPageAllocator14AcquireNewPageEj
Rbk:_Func_2_Invoke_m3516477887_gshared
iZf:__ZL65SelectionBaseAttribute_t3493465804_CustomAttributesCacheGeneratorP21CustomAttributesCache
C5h:_String_ToString_m3872792296
Cgb:__Z18Transfer_BlittableI24GenerateTypeTreeTransferLb1E9BoundsIntEvRK29SerializationCommandArgumentsR31RuntimeSerializationCommandInfo
Sxi:_FileStream_GetSecureFileName_m449783930
yPb:__ZN6Camera13ClearNoSkyboxEb
Jlg:_UnexceptionalStreamWriter_Flush_m82278468
Yed:__ZN5physx6shdfnd21atomicCompareExchangeEPViii
i3k:_playerMovement_Start_m1762290797
Dmh:_InternalEnumerator_1_get_Current_m3911557813_gshared
Yll:__ZNK15dense_hashtableI10KeyWrapperIPK17Il2CppGenericInstES4_N6il2cpp8metadata21Il2CppGenericInstHashEN14dense_hash_setIS4_S7_NS4_14EqualsComparerINS6_24Il2CppGenericInstCompareEEENSt3__29allocatorIS4_EEE8IdentityESB_SE_E12test_deletedEj
sHd:__ZNK5physx2Sc9ClothCore26getNbParticleAccelerationsEv
_2e:_BaseInput_get_touchCount_m1263753282
T_:__ZNSt3__27__sort5IR17CompareInstanceIDPP6ObjectEEjT0_S6_S6_S6_S6_T_
ael:_CustomEventData_Internal_Create_m4267220301
PYb:__ZN13sorted_vectorINSt3__24pairIN4core12basic_stringIcNS2_20StringStorageDefaultIcEEEEPK17MessageIdentifierEEN10vector_mapIS6_S9_NS0_4lessIS6_EENS0_9allocatorISA_EEE13value_compareESF_E4findIS6_EENS0_11__wrap_iterIPSA_EERKT_
z7h:_DecoderReplacementFallbackBuffer_Reset_m3943028589
LZf:__ZL56RenderTexture_t2108887433_CustomAttributesCacheGeneratorP21CustomAttributesCache
jEb:__ZN18GfxFramebufferGLES10InvalidateEv
YDd:__ZN5physx7NpCloth16lockParticleDataENS_7PxFlagsINS_16PxDataAccessFlag4EnumEhEE
kJe:_UNITY_tt_size_run_prep
BQj:_CompressedStack_CreateCopy_m2591279216
GZh:_RSAPKCS1KeyExchangeFormatter_CreateKeyExchange_m1611814432
ER:__ZN10MemoryPoolD2Ev
tud:__ZN5physx7NpActor13getOwnerSceneERKNS_7PxActorE
Pxc:__ZNSt3__26__treeINS_12__value_typeIN4core12basic_stringIcNS2_20StringStorageDefaultIcEEEEN5IMGUI12NamedControlEEENS_19__map_value_compareIS6_S9_NS_4lessIS6_EELb1EEENS_9allocatorIS9_EEE7destroyEPNS_11__tree_nodeIS9_PvEE
y4d:__ZN5physx18PxcNpThreadContextC2EfffRKNS_2Cm12RenderOutputERNS_17PxcNpMemBlockPoolEb
eHh:_AsnEncodedData_KeyUsageExtension_m1792651780
l2d:__ZN5physx2Cm12DelegateTaskINS_13PxsCCDContextEXadL_ZNS2_14postCCDAdvanceEPNS_10PxBaseTaskEEEE11runInternalEv
_Ol:__ZN6il2cpp2os5posix15PosixWaitObjectD2Ev
C7a:__ZN14GfxDeviceStats19EndClientFrameStatsEv
RKb:__ZNK25CameraStackRenderingState28GetDstTextureForImageFiltersEv
V3l:___mmap
s7b:__ZN9Scripting26RaiseArgumentNullExceptionEPKc
gne:__ZN5physx2Gu12TriangleMeshD0Ev
Lhm:b120
TP:__ZL18InternalLogConsolePKcz
hkh:_InternalEnumerator_1_get_Current_m685192625_gshared
Dlg:_UnexceptionalStreamReader_Read_m16956299
Fof:_ResourceReader_ReadValueVer1_m183253382
WV:__Z37scripting_method_get_nth_argumenttype18ScriptingMethodPtri
UD:__ZN11AudioSource16UpdatePauseStateEv
z_:__ZL52StaticUnregisterSceneLoadedCallback_LightmapSettingsPv
nAg:_Camera_get_main_m3643453163
Frc:__Z48Register_UnityEngine_MonoBehaviour_StopCoroutinev
AEd:__ZN5physx7NpCloth24setParticleAccelerationsEPKNS_6PxVec4E
E0l:__ZN6il2cpp5utils25NativeDelegateMethodCache17AddNativeDelegateEPFvvEPK10MethodInfo
p6g:_LayoutRebuilder_U3CRebuildU3Em__5_m1288787547
eDd:__ZN5physx3Scb5Shape18setMaterialsHelperEPKPNS_10PxMaterialEt
EOb:__ZN27DeviceViewProjMatricesStateD2Ev
FOg:_SendMouseEvents__cctor_m2378365934
Dld:__ZN5physx6shdfnd5ArrayINS_19PxsArticulationLinkENS0_19ReflectionAllocatorIS2_EEE8recreateEj
wGg:_Mathf_Pow_m856735666
a2:__ZL39CreateRegisteredMessageIdentifiersArrayPv
ngb:__Z18Transfer_BlittableI24GenerateTypeTreeTransferLb0E8Vector3fEvRK29SerializationCommandArgumentsR31RuntimeSerializationCommandInfo
ORl:__ZN6il2cpp2os10ThreadImpl33UnregisterCurrentThreadForCleanupEv
$Zi:_SimpleCollator_FilterExtender_m72900315
cye:__ZNK13TextRendering4Font22GetTypeVirtualInternalEv
Wag:__ZL61CertificateHandler_t2739891000_CustomAttributesCacheGeneratorP21CustomAttributesCache
EQg:_Transform_set_parentInternal_m2066300701
JTa:__ZN19StreamedBinaryWriteILb0EE21TransferSTLStyleArrayINSt3__26vectorIN15ResourceManager10DependencyE13stl_allocatorIS5_L18MemLabelIdentifier52ELi16EEEEEEvRT_17TransferMetaFlags
ybh:_ScrollRect_EnsureLayoutHasRebuilt_m3415112783
eog:_Binder_FindMostDerivedMatch_m239579024
hYk:_GUIUtility_EndContainerGUIFromException_m530164245
ial:_Physics2D_RaycastNonAlloc_Internal_m4193835177
QTe:__ZN21UnityAnalyticsManagerD0Ev
bcl:_RectTransformUtility_INTERNAL_CALL_RectangleContainsScreenPoint_m1214874141
bAa:__ZN6prcoreL10inner_flipILj2EEEvPhS1_j
bol:__ZN6il2cpp2vm13MetadataCache14GetPointerTypeEP11Il2CppClass
Tza:__ZNK14Texture2DArray16ExtractImageImplEP14ImageReferenceNS0_8BlitModeEbi
yOj:_StringBuilder_Append_m2383614642
nBc:__ZN9JSONWrite8TransferIbEEvRT_PKc17TransferMetaFlags
mga:__ZN12TLSAllocatorI14StackAllocatorED0Ev
aVc:__ZN19PhysicsJobOptions2D16CheckConsistencyEv
APa:__ZN11TimeManager16CheckConsistencyEv
zjd:__ZN5physx3Scb5Scene12addRigidBodyERNS0_4BodyEb
I7j:_ReadOnlyCollection_1_System_Collections_Generic_ICollectionU3CTU3E_Add_m2451728105_gshared
MLb:__ZN21GfxDeviceAsyncCommand10ArgScratch15ThreadedCleanupEv
Cdm:_emscripten_glDeleteTextures__wrapper
aUc:__ZN10ClipperLib14IntersectPointERNS_5TEdgeES1_RNS_8IntPointE
Tmc:__Z14DoubleToStringd
C6h:_StringComparer_GetHashCode_m2080455020
Ofb:__ZN12NativeBufferI27Converter_UnityEngineObjectE15SetupForWritingER9ArrayInfo
Wsk:_List_1_CheckCollection_m2118769249_gshared
Ue:_glTexImage3D
fcf:_DefaultControls_SetDefaultColorTransitionValues_m2033775311
mxi:_Path_IsPathRooted_m3515805419
Sjk:_Array_InternalArray__set_Item_TisChar_t3634460470_m741842250_gshared
W2c:__ZNK5physx2Gu17ShrunkConvexHullV10planeShiftEjRKNS_6shdfnd3aos6FloatVE
Cbe:__ZN5physx2GuL35fullContactsGenerationCapsuleConvexERKNS0_8CapsuleVERKNS0_11ConvexHullVERKNS_6shdfnd3aos15PsMatTransformVERKNS8_12PsTransformVESE_PNS0_17PersistentContactERjRNS0_13ContactBufferEbRNS0_25PersistentContactManifoldERNS8_5Vec3VERKNS8_6FloatVEb
Ypd:__ZNK5physx14PxArticulation19getConcreteTypeNameEv
iMl:__ZN6il2cpp2vm5Field22StaticGetValueInternalEP9FieldInfoPvS4_
h8h:_Encoding_GetByteCount_m1264711659
f8d:__ZN3MBP17populateNewRegionERK5IAABB
J0g:_RC2_Create_m2052783340
Rri:_Guid__ctor_m3421080095_AdjustorThunk
IXl:_GC_set_hdr_marks
bf:_JS_SystemInfo_GetCurrentCanvasWidth
sTl:__ZN6il2cpp8metadataL22FormatGenericArgumentsEPK17Il2CppGenericInst
TBj:__Z133RuntimeInvoker_Int32_t2950945753_Vector2_t2156229523_Vector2_t2156229523_Single_t1397266774_ContactFilter2D_t3805203441_RuntimeObjectPFvvEPK10MethodInfoPvPS4_
u9b:__ZL34GetComponentsImplementationRecurseILb1ELi0ELi1EEbR10GameObjectbRK17CompareParametersRK39GetComponentsImplementation_ReturnValue
Loa:__ZNK17InstancingBatcher15RenderInstancesERK15RenderNodeQueuePK17BatchInstanceDataj16VertexInputMasksPFbPvS6_iR11MeshBuffersR16DrawBuffersRangeRiSC_E
COi:_Double_Equals_m1674752021
N2g:_InputField_OnDisable_m1824300767
fZi:_CodePointIndexer_ToIndex_m1008730487
$qc:__Z37Texture_CUSTOM_get_texelSize_InjectedP12Il2CppObjectR13Vector2fIcall
pvi:_Int64_System_IConvertible_ToUInt64_m2815650160_AdjustorThunk
Nbd:__Z11raycast_boxRKN5physx10PxGeometryERKNS_11PxTransformERKNS_6PxVec3ES8_fNS_7PxFlagsINS_9PxHitFlag4EnumEtEEjPNS_12PxRaycastHitEbPFbRSD_PvESG_
YQa:__ZN10VRSettings8TransferI18StreamedBinaryReadILb0EEEEvRT_
nZa:__ZN22LocalFileSystemHandler4NameEv
VXc:__ZN22WorldContactListener2D12BeginContactEP9b2Contact
img:_Math_Abs_m3912393749
